ARM GAS  C:\Users\jonas\AppData\Local\Temp\ccuEYjoh.s 			page 1


   1              		.cpu cortex-m4
   2              		.arch armv7e-m
   3              		.fpu fpv4-sp-d16
   4              		.eabi_attribute 27, 1
   5              		.eabi_attribute 28, 1
   6              		.eabi_attribute 20, 1
   7              		.eabi_attribute 21, 1
   8              		.eabi_attribute 23, 3
   9              		.eabi_attribute 24, 1
  10              		.eabi_attribute 25, 1
  11              		.eabi_attribute 26, 1
  12              		.eabi_attribute 30, 1
  13              		.eabi_attribute 34, 1
  14              		.eabi_attribute 18, 4
  15              		.file	"audio.c"
  16              		.text
  17              	.Ltext0:
  18              		.cfi_sections	.debug_frame
  19              		.file 1 "Core/Src/audio.c"
  20              		.global	__aeabi_i2d
  21              		.global	__aeabi_dmul
  22              		.global	__aeabi_d2iz
  23              		.section	.text.initSineTable,"ax",%progbits
  24              		.align	1
  25              		.global	initSineTable
  26              		.syntax unified
  27              		.thumb
  28              		.thumb_func
  30              	initSineTable:
  31              	.LFB134:
   1:Core/Src/audio.c **** #include "audio.h"
   2:Core/Src/audio.c **** #include "fatfs.h"
   3:Core/Src/audio.c **** #include "wavDecoder.h"
   4:Core/Src/audio.c **** 
   5:Core/Src/audio.c **** bool dma_dataReady = false;
   6:Core/Src/audio.c **** int16_t dacData[BUFFER_SIZE];
   7:Core/Src/audio.c **** volatile int16_t *outBufPtr = &dacData[0];
   8:Core/Src/audio.c **** 
   9:Core/Src/audio.c **** #define SINE_TABLE_SIZE 256 // Adjust the table size as needed for your accuracy/performance tradeo
  10:Core/Src/audio.c **** 
  11:Core/Src/audio.c **** // Precomputed sine wave table
  12:Core/Src/audio.c **** int16_t sineTable[SINE_TABLE_SIZE];
  13:Core/Src/audio.c **** 
  14:Core/Src/audio.c **** // Populate the sine wave table during initialization
  15:Core/Src/audio.c **** void initSineTable() {
  32              		.loc 1 15 22 view -0
  33              		.cfi_startproc
  34              		@ args = 0, pretend = 0, frame = 0
  35              		@ frame_needed = 0, uses_anonymous_args = 0
  36 0000 10B5     		push	{r4, lr}
  37              		.cfi_def_cfa_offset 8
  38              		.cfi_offset 4, -8
  39              		.cfi_offset 14, -4
  16:Core/Src/audio.c ****     for (int i = 0; i < SINE_TABLE_SIZE; ++i) {
  40              		.loc 1 16 5 view .LVU1
  41              	.LBB2:
  42              		.loc 1 16 10 view .LVU2
ARM GAS  C:\Users\jonas\AppData\Local\Temp\ccuEYjoh.s 			page 2


  43              	.LVL0:
  44              		.loc 1 16 14 is_stmt 0 view .LVU3
  45 0002 0024     		movs	r4, #0
  46              		.loc 1 16 5 view .LVU4
  47 0004 1CE0     		b	.L2
  48              	.LVL1:
  49              	.L3:
  17:Core/Src/audio.c ****         sineTable[i] = (int16_t)(32767 * sin(2.0 * M_PI * i / SINE_TABLE_SIZE));
  50              		.loc 1 17 9 is_stmt 1 view .LVU5
  51              		.loc 1 17 57 is_stmt 0 view .LVU6
  52 0006 2046     		mov	r0, r4
  53 0008 FFF7FEFF 		bl	__aeabi_i2d
  54              	.LVL2:
  55 000c 12A3     		adr	r3, .L5+16
  56 000e D3E90023 		ldrd	r2, [r3]
  57 0012 FFF7FEFF 		bl	__aeabi_dmul
  58              	.LVL3:
  59              		.loc 1 17 42 view .LVU7
  60 0016 0022     		movs	r2, #0
  61 0018 0D4B     		ldr	r3, .L5+8
  62 001a FFF7FEFF 		bl	__aeabi_dmul
  63              	.LVL4:
  64 001e 41EC100B 		vmov	d0, r0, r1
  65 0022 FFF7FEFF 		bl	sin
  66              	.LVL5:
  67 0026 51EC100B 		vmov	r0, r1, d0
  68              		.loc 1 17 40 discriminator 1 view .LVU8
  69 002a 07A3     		adr	r3, .L5
  70 002c D3E90023 		ldrd	r2, [r3]
  71 0030 FFF7FEFF 		bl	__aeabi_dmul
  72              	.LVL6:
  73              		.loc 1 17 24 discriminator 1 view .LVU9
  74 0034 FFF7FEFF 		bl	__aeabi_d2iz
  75              	.LVL7:
  76              		.loc 1 17 22 discriminator 1 view .LVU10
  77 0038 064B     		ldr	r3, .L5+12
  78 003a 23F81400 		strh	r0, [r3, r4, lsl #1]	@ movhi
  16:Core/Src/audio.c ****     for (int i = 0; i < SINE_TABLE_SIZE; ++i) {
  79              		.loc 1 16 42 is_stmt 1 discriminator 3 view .LVU11
  80 003e 0134     		adds	r4, r4, #1
  81              	.LVL8:
  82              	.L2:
  16:Core/Src/audio.c ****     for (int i = 0; i < SINE_TABLE_SIZE; ++i) {
  83              		.loc 1 16 23 discriminator 1 view .LVU12
  84 0040 FF2C     		cmp	r4, #255
  85 0042 E0DD     		ble	.L3
  86              	.LBE2:
  18:Core/Src/audio.c ****     }
  19:Core/Src/audio.c **** }
  87              		.loc 1 19 1 is_stmt 0 view .LVU13
  88 0044 10BD     		pop	{r4, pc}
  89              	.LVL9:
  90              	.L6:
  91              		.loc 1 19 1 view .LVU14
  92 0046 00BF     		.align	3
  93              	.L5:
  94 0048 00000000 		.word	0
ARM GAS  C:\Users\jonas\AppData\Local\Temp\ccuEYjoh.s 			page 3


  95 004c C0FFDF40 		.word	1088421824
  96 0050 0000703F 		.word	1064304640
  97 0054 00000000 		.word	sineTable
  98 0058 182D4454 		.word	1413754136
  99 005c FB211940 		.word	1075388923
 100              		.cfi_endproc
 101              	.LFE134:
 103              		.section	.text.HAL_I2S_TxHalfCpltCallback,"ax",%progbits
 104              		.align	1
 105              		.global	HAL_I2S_TxHalfCpltCallback
 106              		.syntax unified
 107              		.thumb
 108              		.thumb_func
 110              	HAL_I2S_TxHalfCpltCallback:
 111              	.LVL10:
 112              	.LFB135:
  20:Core/Src/audio.c **** 
  21:Core/Src/audio.c **** // Callbacks for DMA Complete
  22:Core/Src/audio.c **** void HAL_I2S_TxHalfCpltCallback(I2S_HandleTypeDef *hi2s){
 113              		.loc 1 22 57 is_stmt 1 view -0
 114              		.cfi_startproc
 115              		@ args = 0, pretend = 0, frame = 0
 116              		@ frame_needed = 0, uses_anonymous_args = 0
 117              		@ link register save eliminated.
  23:Core/Src/audio.c ****     outBufPtr = &dacData[0];
 118              		.loc 1 23 5 view .LVU16
 119              		.loc 1 23 15 is_stmt 0 view .LVU17
 120 0000 034B     		ldr	r3, .L8
 121 0002 044A     		ldr	r2, .L8+4
 122 0004 1A60     		str	r2, [r3]
  24:Core/Src/audio.c ****     dma_dataReady = true;
 123              		.loc 1 24 5 is_stmt 1 view .LVU18
 124              		.loc 1 24 19 is_stmt 0 view .LVU19
 125 0006 044B     		ldr	r3, .L8+8
 126 0008 0122     		movs	r2, #1
 127 000a 1A70     		strb	r2, [r3]
  25:Core/Src/audio.c **** }
 128              		.loc 1 25 1 view .LVU20
 129 000c 7047     		bx	lr
 130              	.L9:
 131 000e 00BF     		.align	2
 132              	.L8:
 133 0010 00000000 		.word	outBufPtr
 134 0014 00000000 		.word	dacData
 135 0018 00000000 		.word	dma_dataReady
 136              		.cfi_endproc
 137              	.LFE135:
 139              		.section	.text.HAL_I2S_TxCpltCallback,"ax",%progbits
 140              		.align	1
 141              		.global	HAL_I2S_TxCpltCallback
 142              		.syntax unified
 143              		.thumb
 144              		.thumb_func
 146              	HAL_I2S_TxCpltCallback:
 147              	.LVL11:
 148              	.LFB136:
  26:Core/Src/audio.c **** 
ARM GAS  C:\Users\jonas\AppData\Local\Temp\ccuEYjoh.s 			page 4


  27:Core/Src/audio.c **** void HAL_I2S_TxCpltCallback(I2S_HandleTypeDef *hi2s){
 149              		.loc 1 27 53 is_stmt 1 view -0
 150              		.cfi_startproc
 151              		@ args = 0, pretend = 0, frame = 0
 152              		@ frame_needed = 0, uses_anonymous_args = 0
 153              		@ link register save eliminated.
  28:Core/Src/audio.c ****     outBufPtr = &dacData[BUFFER_SIZE/2];
 154              		.loc 1 28 5 view .LVU22
 155              		.loc 1 28 15 is_stmt 0 view .LVU23
 156 0000 034B     		ldr	r3, .L11
 157 0002 044A     		ldr	r2, .L11+4
 158 0004 1A60     		str	r2, [r3]
  29:Core/Src/audio.c ****     dma_dataReady = true;
 159              		.loc 1 29 5 is_stmt 1 view .LVU24
 160              		.loc 1 29 19 is_stmt 0 view .LVU25
 161 0006 044B     		ldr	r3, .L11+8
 162 0008 0122     		movs	r2, #1
 163 000a 1A70     		strb	r2, [r3]
  30:Core/Src/audio.c **** }
 164              		.loc 1 30 1 view .LVU26
 165 000c 7047     		bx	lr
 166              	.L12:
 167 000e 00BF     		.align	2
 168              	.L11:
 169 0010 00000000 		.word	outBufPtr
 170 0014 00010000 		.word	dacData+256
 171 0018 00000000 		.word	dma_dataReady
 172              		.cfi_endproc
 173              	.LFE136:
 175              		.global	__aeabi_ddiv
 176              		.global	__aeabi_dadd
 177              		.global	__aeabi_d2uiz
 178              		.section	.text.generateSineWave,"ax",%progbits
 179              		.align	1
 180              		.global	generateSineWave
 181              		.syntax unified
 182              		.thumb
 183              		.thumb_func
 185              	generateSineWave:
 186              	.LVL12:
 187              	.LFB137:
  31:Core/Src/audio.c **** 
  32:Core/Src/audio.c **** // populates half of the DAC Buffer, with the help of a lookup table
  33:Core/Src/audio.c **** void generateSineWave(double frequency) {
 188              		.loc 1 33 41 is_stmt 1 view -0
 189              		.cfi_startproc
 190              		@ args = 0, pretend = 0, frame = 0
 191              		@ frame_needed = 0, uses_anonymous_args = 0
 192              		.loc 1 33 41 is_stmt 0 view .LVU28
 193 0000 F8B5     		push	{r3, r4, r5, r6, r7, lr}
 194              		.cfi_def_cfa_offset 24
 195              		.cfi_offset 3, -24
 196              		.cfi_offset 4, -20
 197              		.cfi_offset 5, -16
 198              		.cfi_offset 6, -12
 199              		.cfi_offset 7, -8
 200              		.cfi_offset 14, -4
ARM GAS  C:\Users\jonas\AppData\Local\Temp\ccuEYjoh.s 			page 5


 201 0002 51EC100B 		vmov	r0, r1, d0
  34:Core/Src/audio.c ****     static uint16_t phaseIndex = 0;                 // retain index between function calls
 202              		.loc 1 34 5 is_stmt 1 view .LVU29
  35:Core/Src/audio.c ****     double phaseIncrement = frequency * SINE_TABLE_SIZE / I2S_AUDIOFREQ_44K;  
 203              		.loc 1 35 5 view .LVU30
 204              		.loc 1 35 39 is_stmt 0 view .LVU31
 205 0006 0022     		movs	r2, #0
 206 0008 174B     		ldr	r3, .L19+8
 207 000a FFF7FEFF 		bl	__aeabi_dmul
 208              	.LVL13:
 209              		.loc 1 35 12 view .LVU32
 210 000e 14A3     		adr	r3, .L19
 211 0010 D3E90023 		ldrd	r2, [r3]
 212 0014 FFF7FEFF 		bl	__aeabi_ddiv
 213              	.LVL14:
 214 0018 0446     		mov	r4, r0
 215 001a 0D46     		mov	r5, r1
 216              	.LVL15:
  36:Core/Src/audio.c **** 
  37:Core/Src/audio.c ****     for (uint8_t n = 0; n < (BUFFER_SIZE / 2) - 1; n += 2) {
 217              		.loc 1 37 5 is_stmt 1 view .LVU33
 218              	.LBB3:
 219              		.loc 1 37 10 view .LVU34
 220              		.loc 1 37 18 is_stmt 0 view .LVU35
 221 001c 0026     		movs	r6, #0
 222              		.loc 1 37 5 view .LVU36
 223 001e 01E0     		b	.L14
 224              	.LVL16:
 225              	.L15:
 226              		.loc 1 37 54 is_stmt 1 discriminator 2 view .LVU37
 227 0020 0236     		adds	r6, r6, #2
 228              	.LVL17:
 229              		.loc 1 37 54 is_stmt 0 discriminator 2 view .LVU38
 230 0022 F6B2     		uxtb	r6, r6
 231              	.LVL18:
 232              	.L14:
 233              		.loc 1 37 27 is_stmt 1 discriminator 1 view .LVU39
 234 0024 7E2E     		cmp	r6, #126
 235 0026 18D8     		bhi	.L18
  38:Core/Src/audio.c ****         // Lookup sine value from table
  39:Core/Src/audio.c ****         outBufPtr[n] = sineTable[phaseIndex];
 236              		.loc 1 39 9 view .LVU40
 237              		.loc 1 39 33 is_stmt 0 view .LVU41
 238 0028 104F     		ldr	r7, .L19+12
 239 002a 3888     		ldrh	r0, [r7]
 240              		.loc 1 39 18 view .LVU42
 241 002c 104B     		ldr	r3, .L19+16
 242 002e 1B68     		ldr	r3, [r3]
 243              		.loc 1 39 33 view .LVU43
 244 0030 104A     		ldr	r2, .L19+20
 245 0032 32F91020 		ldrsh	r2, [r2, r0, lsl #1]
 246              		.loc 1 39 22 view .LVU44
 247 0036 23F81620 		strh	r2, [r3, r6, lsl #1]	@ movhi
  40:Core/Src/audio.c ****         
  41:Core/Src/audio.c ****         // Increment phase index
  42:Core/Src/audio.c ****         phaseIndex += phaseIncrement;
 248              		.loc 1 42 9 is_stmt 1 view .LVU45
ARM GAS  C:\Users\jonas\AppData\Local\Temp\ccuEYjoh.s 			page 6


 249              		.loc 1 42 20 is_stmt 0 view .LVU46
 250 003a FFF7FEFF 		bl	__aeabi_i2d
 251              	.LVL19:
 252 003e 2246     		mov	r2, r4
 253 0040 2B46     		mov	r3, r5
 254 0042 FFF7FEFF 		bl	__aeabi_dadd
 255              	.LVL20:
 256 0046 FFF7FEFF 		bl	__aeabi_d2uiz
 257              	.LVL21:
 258 004a 80B2     		uxth	r0, r0
 259 004c 3880     		strh	r0, [r7]	@ movhi
  43:Core/Src/audio.c ****         
  44:Core/Src/audio.c ****         // Wrap phase index if it exceeds table size
  45:Core/Src/audio.c ****         if (phaseIndex >= SINE_TABLE_SIZE) {
 260              		.loc 1 45 9 is_stmt 1 view .LVU47
 261              		.loc 1 45 12 is_stmt 0 view .LVU48
 262 004e FF28     		cmp	r0, #255
 263 0050 E6D9     		bls	.L15
  46:Core/Src/audio.c ****             phaseIndex -= SINE_TABLE_SIZE;
 264              		.loc 1 46 13 is_stmt 1 view .LVU49
 265              		.loc 1 46 24 is_stmt 0 view .LVU50
 266 0052 A0F58070 		sub	r0, r0, #256
 267 0056 3880     		strh	r0, [r7]	@ movhi
 268 0058 E2E7     		b	.L15
 269              	.L18:
 270              	.LBE3:
  47:Core/Src/audio.c ****         }
  48:Core/Src/audio.c ****     }
  49:Core/Src/audio.c **** }
 271              		.loc 1 49 1 view .LVU51
 272 005a F8BD     		pop	{r3, r4, r5, r6, r7, pc}
 273              	.LVL22:
 274              	.L20:
 275              		.loc 1 49 1 view .LVU52
 276 005c AFF30080 		.align	3
 277              	.L19:
 278 0060 00000000 		.word	0
 279 0064 8088E540 		.word	1088784512
 280 0068 00007040 		.word	1081081856
 281 006c 00000000 		.word	phaseIndex.0
 282 0070 00000000 		.word	outBufPtr
 283 0074 00000000 		.word	sineTable
 284              		.cfi_endproc
 285              	.LFE137:
 287              		.section	.text.fillHalfBufferFromSD,"ax",%progbits
 288              		.align	1
 289              		.global	fillHalfBufferFromSD
 290              		.syntax unified
 291              		.thumb
 292              		.thumb_func
 294              	fillHalfBufferFromSD:
 295              	.LVL23:
 296              	.LFB138:
  50:Core/Src/audio.c **** 
  51:Core/Src/audio.c **** uint16_t fillHalfBufferFromSD(FIL *fil){
 297              		.loc 1 51 40 is_stmt 1 view -0
 298              		.cfi_startproc
ARM GAS  C:\Users\jonas\AppData\Local\Temp\ccuEYjoh.s 			page 7


 299              		@ args = 0, pretend = 0, frame = 8
 300              		@ frame_needed = 0, uses_anonymous_args = 0
 301              		.loc 1 51 40 is_stmt 0 view .LVU54
 302 0000 00B5     		push	{lr}
 303              		.cfi_def_cfa_offset 4
 304              		.cfi_offset 14, -4
 305 0002 83B0     		sub	sp, sp, #12
 306              		.cfi_def_cfa_offset 16
  52:Core/Src/audio.c ****     UINT bytesRead = 0;
 307              		.loc 1 52 5 is_stmt 1 view .LVU55
 308              		.loc 1 52 10 is_stmt 0 view .LVU56
 309 0004 0023     		movs	r3, #0
 310 0006 0193     		str	r3, [sp, #4]
  53:Core/Src/audio.c ****     // fill half of the buffer (16bit Samples -> BUFFER_SIZE)
  54:Core/Src/audio.c ****     if (f_read(fil,(void *)outBufPtr, BUFFER_SIZE, &bytesRead) != FR_OK) {
 311              		.loc 1 54 5 is_stmt 1 view .LVU57
 312              		.loc 1 54 9 is_stmt 0 view .LVU58
 313 0008 01AB     		add	r3, sp, #4
 314 000a 4FF48072 		mov	r2, #256
 315 000e 0549     		ldr	r1, .L25
 316 0010 0968     		ldr	r1, [r1]
 317 0012 FFF7FEFF 		bl	f_read
 318              	.LVL24:
 319              		.loc 1 54 8 discriminator 1 view .LVU59
 320 0016 00B1     		cbz	r0, .L22
 321              	.L23:
  55:Core/Src/audio.c ****     // Error handling
  56:Core/Src/audio.c ****         while(1);
 322              		.loc 1 56 9 is_stmt 1 view .LVU60
 323              		.loc 1 56 14 view .LVU61
 324 0018 FEE7     		b	.L23
 325              	.L22:
  57:Core/Src/audio.c ****     }
  58:Core/Src/audio.c ****     // for (uint8_t n = 0; n < BUFFER_SIZE / 2; n += 2) {
  59:Core/Src/audio.c ****     //     outBufPtr[n] *= 2;
  60:Core/Src/audio.c ****     // }
  61:Core/Src/audio.c ****     return (uint16_t) bytesRead;
 326              		.loc 1 61 5 view .LVU62
  62:Core/Src/audio.c **** }
 327              		.loc 1 62 1 is_stmt 0 view .LVU63
 328 001a BDF80400 		ldrh	r0, [sp, #4]
 329 001e 03B0     		add	sp, sp, #12
 330              		.cfi_def_cfa_offset 4
 331              		@ sp needed
 332 0020 5DF804FB 		ldr	pc, [sp], #4
 333              	.L26:
 334              		.align	2
 335              	.L25:
 336 0024 00000000 		.word	outBufPtr
 337              		.cfi_endproc
 338              	.LFE138:
 340              		.section	.bss.phaseIndex.0,"aw",%nobits
 341              		.align	1
 344              	phaseIndex.0:
 345 0000 0000     		.space	2
 346              		.global	sineTable
 347              		.section	.bss.sineTable,"aw",%nobits
ARM GAS  C:\Users\jonas\AppData\Local\Temp\ccuEYjoh.s 			page 8


 348              		.align	2
 351              	sineTable:
 352 0000 00000000 		.space	512
 352      00000000 
 352      00000000 
 352      00000000 
 352      00000000 
 353              		.global	outBufPtr
 354              		.section	.data.outBufPtr,"aw"
 355              		.align	2
 358              	outBufPtr:
 359 0000 00000000 		.word	dacData
 360              		.global	dacData
 361              		.section	.bss.dacData,"aw",%nobits
 362              		.align	2
 365              	dacData:
 366 0000 00000000 		.space	512
 366      00000000 
 366      00000000 
 366      00000000 
 366      00000000 
 367              		.global	dma_dataReady
 368              		.section	.bss.dma_dataReady,"aw",%nobits
 371              	dma_dataReady:
 372 0000 00       		.space	1
 373              		.text
 374              	.Letext0:
 375              		.file 2 "C:/Users/jonas/AppData/Roaming/VSCodium/User/globalStorage/bmd.stm32-for-vscode/@xpack-de
 376              		.file 3 "C:/Users/jonas/AppData/Roaming/VSCodium/User/globalStorage/bmd.stm32-for-vscode/@xpack-de
 377              		.file 4 "Drivers/CMSIS/Device/ST/STM32F4xx/Include/stm32f401xe.h"
 378              		.file 5 "Drivers/STM32F4xx_HAL_Driver/Inc/stm32f4xx_hal_def.h"
 379              		.file 6 "Drivers/STM32F4xx_HAL_Driver/Inc/stm32f4xx_hal_dma.h"
 380              		.file 7 "Drivers/STM32F4xx_HAL_Driver/Inc/stm32f4xx_hal_i2s.h"
 381              		.file 8 "Middlewares/Third_Party/FatFs/src/integer.h"
 382              		.file 9 "Middlewares/Third_Party/FatFs/src/ff.h"
 383              		.file 10 "Core/Inc/audio.h"
 384              		.file 11 "C:/Users/jonas/AppData/Roaming/VSCodium/User/globalStorage/bmd.stm32-for-vscode/@xpack-d
ARM GAS  C:\Users\jonas\AppData\Local\Temp\ccuEYjoh.s 			page 9

