ARM GAS  C:\Users\jonas\AppData\Local\Temp\ccyC9VxG.s 			page 1


   1              		.cpu cortex-m4
   2              		.arch armv7e-m
   3              		.fpu fpv4-sp-d16
   4              		.eabi_attribute 27, 1
   5              		.eabi_attribute 28, 1
   6              		.eabi_attribute 20, 1
   7              		.eabi_attribute 21, 1
   8              		.eabi_attribute 23, 3
   9              		.eabi_attribute 24, 1
  10              		.eabi_attribute 25, 1
  11              		.eabi_attribute 26, 1
  12              		.eabi_attribute 30, 1
  13              		.eabi_attribute 34, 1
  14              		.eabi_attribute 18, 4
  15              		.file	"stm32f4xx_hal_i2s_ex.c"
  16              		.text
  17              	.Ltext0:
  18              		.cfi_sections	.debug_frame
  19              		.file 1 "Drivers/STM32F4xx_HAL_Driver/Src/stm32f4xx_hal_i2s_ex.c"
  20              		.section	.text.I2SEx_TxRxDMAHalfCplt,"ax",%progbits
  21              		.align	1
  22              		.syntax unified
  23              		.thumb
  24              		.thumb_func
  26              	I2SEx_TxRxDMAHalfCplt:
  27              	.LVL0:
  28              	.LFB140:
   1:Drivers/STM32F4xx_HAL_Driver/Src/stm32f4xx_hal_i2s_ex.c **** /**
   2:Drivers/STM32F4xx_HAL_Driver/Src/stm32f4xx_hal_i2s_ex.c ****   ******************************************************************************
   3:Drivers/STM32F4xx_HAL_Driver/Src/stm32f4xx_hal_i2s_ex.c ****   * @file    stm32f4xx_hal_i2s_ex.c
   4:Drivers/STM32F4xx_HAL_Driver/Src/stm32f4xx_hal_i2s_ex.c ****   * @author  MCD Application Team
   5:Drivers/STM32F4xx_HAL_Driver/Src/stm32f4xx_hal_i2s_ex.c ****   * @brief   I2S HAL module driver.
   6:Drivers/STM32F4xx_HAL_Driver/Src/stm32f4xx_hal_i2s_ex.c ****   *          This file provides firmware functions to manage the following
   7:Drivers/STM32F4xx_HAL_Driver/Src/stm32f4xx_hal_i2s_ex.c ****   *          functionalities of I2S extension peripheral:
   8:Drivers/STM32F4xx_HAL_Driver/Src/stm32f4xx_hal_i2s_ex.c ****   *           + Extension features Functions
   9:Drivers/STM32F4xx_HAL_Driver/Src/stm32f4xx_hal_i2s_ex.c ****   ******************************************************************************
  10:Drivers/STM32F4xx_HAL_Driver/Src/stm32f4xx_hal_i2s_ex.c ****   * @attention
  11:Drivers/STM32F4xx_HAL_Driver/Src/stm32f4xx_hal_i2s_ex.c ****   *
  12:Drivers/STM32F4xx_HAL_Driver/Src/stm32f4xx_hal_i2s_ex.c ****   * Copyright (c) 2016 STMicroelectronics.
  13:Drivers/STM32F4xx_HAL_Driver/Src/stm32f4xx_hal_i2s_ex.c ****   * All rights reserved.
  14:Drivers/STM32F4xx_HAL_Driver/Src/stm32f4xx_hal_i2s_ex.c ****   *
  15:Drivers/STM32F4xx_HAL_Driver/Src/stm32f4xx_hal_i2s_ex.c ****   * This software is licensed under terms that can be found in the LICENSE file
  16:Drivers/STM32F4xx_HAL_Driver/Src/stm32f4xx_hal_i2s_ex.c ****   * in the root directory of this software component.
  17:Drivers/STM32F4xx_HAL_Driver/Src/stm32f4xx_hal_i2s_ex.c ****   * If no LICENSE file comes with this software, it is provided AS-IS.
  18:Drivers/STM32F4xx_HAL_Driver/Src/stm32f4xx_hal_i2s_ex.c ****   *
  19:Drivers/STM32F4xx_HAL_Driver/Src/stm32f4xx_hal_i2s_ex.c ****   ******************************************************************************
  20:Drivers/STM32F4xx_HAL_Driver/Src/stm32f4xx_hal_i2s_ex.c ****   @verbatim
  21:Drivers/STM32F4xx_HAL_Driver/Src/stm32f4xx_hal_i2s_ex.c ****   ==============================================================================
  22:Drivers/STM32F4xx_HAL_Driver/Src/stm32f4xx_hal_i2s_ex.c ****                     ##### I2S Extension features #####
  23:Drivers/STM32F4xx_HAL_Driver/Src/stm32f4xx_hal_i2s_ex.c ****   ==============================================================================
  24:Drivers/STM32F4xx_HAL_Driver/Src/stm32f4xx_hal_i2s_ex.c ****   [..]
  25:Drivers/STM32F4xx_HAL_Driver/Src/stm32f4xx_hal_i2s_ex.c ****      (#) In I2S full duplex mode, each SPI peripheral is able to manage sending and receiving
  26:Drivers/STM32F4xx_HAL_Driver/Src/stm32f4xx_hal_i2s_ex.c ****          data simultaneously using two data lines. Each SPI peripheral has an extended block
  27:Drivers/STM32F4xx_HAL_Driver/Src/stm32f4xx_hal_i2s_ex.c ****          called I2Sxext (i.e I2S2ext for SPI2 and I2S3ext for SPI3).
  28:Drivers/STM32F4xx_HAL_Driver/Src/stm32f4xx_hal_i2s_ex.c ****      (#) The extension block is not a full SPI IP, it is used only as I2S slave to
  29:Drivers/STM32F4xx_HAL_Driver/Src/stm32f4xx_hal_i2s_ex.c ****          implement full duplex mode. The extension block uses the same clock sources
  30:Drivers/STM32F4xx_HAL_Driver/Src/stm32f4xx_hal_i2s_ex.c ****          as its master.
ARM GAS  C:\Users\jonas\AppData\Local\Temp\ccyC9VxG.s 			page 2


  31:Drivers/STM32F4xx_HAL_Driver/Src/stm32f4xx_hal_i2s_ex.c **** 
  32:Drivers/STM32F4xx_HAL_Driver/Src/stm32f4xx_hal_i2s_ex.c ****      (#) Both I2Sx and I2Sx_ext can be configured as transmitters or receivers.
  33:Drivers/STM32F4xx_HAL_Driver/Src/stm32f4xx_hal_i2s_ex.c **** 
  34:Drivers/STM32F4xx_HAL_Driver/Src/stm32f4xx_hal_i2s_ex.c ****      [..]
  35:Drivers/STM32F4xx_HAL_Driver/Src/stm32f4xx_hal_i2s_ex.c ****        (@) Only I2Sx can deliver SCK and WS to I2Sx_ext in full duplex mode, where
  36:Drivers/STM32F4xx_HAL_Driver/Src/stm32f4xx_hal_i2s_ex.c ****          I2Sx can be I2S2 or I2S3.
  37:Drivers/STM32F4xx_HAL_Driver/Src/stm32f4xx_hal_i2s_ex.c **** 
  38:Drivers/STM32F4xx_HAL_Driver/Src/stm32f4xx_hal_i2s_ex.c ****                   ##### How to use this driver #####
  39:Drivers/STM32F4xx_HAL_Driver/Src/stm32f4xx_hal_i2s_ex.c ****  ===============================================================================
  40:Drivers/STM32F4xx_HAL_Driver/Src/stm32f4xx_hal_i2s_ex.c ****  [..]
  41:Drivers/STM32F4xx_HAL_Driver/Src/stm32f4xx_hal_i2s_ex.c ****    Three operation modes are available within this driver :
  42:Drivers/STM32F4xx_HAL_Driver/Src/stm32f4xx_hal_i2s_ex.c **** 
  43:Drivers/STM32F4xx_HAL_Driver/Src/stm32f4xx_hal_i2s_ex.c ****    *** Polling mode IO operation ***
  44:Drivers/STM32F4xx_HAL_Driver/Src/stm32f4xx_hal_i2s_ex.c ****    =================================
  45:Drivers/STM32F4xx_HAL_Driver/Src/stm32f4xx_hal_i2s_ex.c ****    [..]
  46:Drivers/STM32F4xx_HAL_Driver/Src/stm32f4xx_hal_i2s_ex.c ****      (+) Send and receive in the same time an amount of data in blocking mode using HAL_I2SEx_Trans
  47:Drivers/STM32F4xx_HAL_Driver/Src/stm32f4xx_hal_i2s_ex.c **** 
  48:Drivers/STM32F4xx_HAL_Driver/Src/stm32f4xx_hal_i2s_ex.c ****    *** Interrupt mode IO operation ***
  49:Drivers/STM32F4xx_HAL_Driver/Src/stm32f4xx_hal_i2s_ex.c ****    ===================================
  50:Drivers/STM32F4xx_HAL_Driver/Src/stm32f4xx_hal_i2s_ex.c ****    [..]
  51:Drivers/STM32F4xx_HAL_Driver/Src/stm32f4xx_hal_i2s_ex.c ****      (+) Send and receive in the same time an amount of data in non blocking mode using HAL_I2SEx_T
  52:Drivers/STM32F4xx_HAL_Driver/Src/stm32f4xx_hal_i2s_ex.c ****      (+) At transmission/reception end of transfer HAL_I2SEx_TxRxCpltCallback is executed and user 
  53:Drivers/STM32F4xx_HAL_Driver/Src/stm32f4xx_hal_i2s_ex.c ****          add his own code by customization of function pointer HAL_I2SEx_TxRxCpltCallback
  54:Drivers/STM32F4xx_HAL_Driver/Src/stm32f4xx_hal_i2s_ex.c ****      (+) In case of transfer Error, HAL_I2S_ErrorCallback() function is executed and user can
  55:Drivers/STM32F4xx_HAL_Driver/Src/stm32f4xx_hal_i2s_ex.c ****          add his own code by customization of function pointer HAL_I2S_ErrorCallback
  56:Drivers/STM32F4xx_HAL_Driver/Src/stm32f4xx_hal_i2s_ex.c **** 
  57:Drivers/STM32F4xx_HAL_Driver/Src/stm32f4xx_hal_i2s_ex.c ****    *** DMA mode IO operation ***
  58:Drivers/STM32F4xx_HAL_Driver/Src/stm32f4xx_hal_i2s_ex.c ****    ==============================
  59:Drivers/STM32F4xx_HAL_Driver/Src/stm32f4xx_hal_i2s_ex.c ****    [..]
  60:Drivers/STM32F4xx_HAL_Driver/Src/stm32f4xx_hal_i2s_ex.c ****      (+) Send and receive an amount of data in non blocking mode (DMA) using HAL_I2SEx_TransmitRece
  61:Drivers/STM32F4xx_HAL_Driver/Src/stm32f4xx_hal_i2s_ex.c ****      (+) At transmission/reception end of transfer HAL_I2SEx_TxRxCpltCallback is executed and user 
  62:Drivers/STM32F4xx_HAL_Driver/Src/stm32f4xx_hal_i2s_ex.c ****          add his own code by customization of function pointer HAL_I2S_TxRxCpltCallback
  63:Drivers/STM32F4xx_HAL_Driver/Src/stm32f4xx_hal_i2s_ex.c ****      (+) In case of transfer Error, HAL_I2S_ErrorCallback() function is executed and user can
  64:Drivers/STM32F4xx_HAL_Driver/Src/stm32f4xx_hal_i2s_ex.c ****          add his own code by customization of function pointer HAL_I2S_ErrorCallback
  65:Drivers/STM32F4xx_HAL_Driver/Src/stm32f4xx_hal_i2s_ex.c ****      (+) __HAL_I2SEXT_FLUSH_RX_DR: In Full-Duplex Slave mode, if HAL_I2S_DMAStop is used to stop th
  66:Drivers/STM32F4xx_HAL_Driver/Src/stm32f4xx_hal_i2s_ex.c ****          communication, an error HAL_I2S_ERROR_BUSY_LINE_RX is raised as the master continue to tra
  67:Drivers/STM32F4xx_HAL_Driver/Src/stm32f4xx_hal_i2s_ex.c ****          In this case __HAL_I2SEXT_FLUSH_RX_DR macro must be used to flush the remaining data
  68:Drivers/STM32F4xx_HAL_Driver/Src/stm32f4xx_hal_i2s_ex.c ****          inside I2Sx and I2Sx_ext DR registers and avoid using DeInit/Init process for the next tra
  69:Drivers/STM32F4xx_HAL_Driver/Src/stm32f4xx_hal_i2s_ex.c ****   @endverbatim
  70:Drivers/STM32F4xx_HAL_Driver/Src/stm32f4xx_hal_i2s_ex.c **** 
  71:Drivers/STM32F4xx_HAL_Driver/Src/stm32f4xx_hal_i2s_ex.c ****  Additional Figure: The Extended block uses the same clock sources as its master.
  72:Drivers/STM32F4xx_HAL_Driver/Src/stm32f4xx_hal_i2s_ex.c **** 
  73:Drivers/STM32F4xx_HAL_Driver/Src/stm32f4xx_hal_i2s_ex.c ****                 +-----------------------+
  74:Drivers/STM32F4xx_HAL_Driver/Src/stm32f4xx_hal_i2s_ex.c ****     I2Sx_SCK    |                       |
  75:Drivers/STM32F4xx_HAL_Driver/Src/stm32f4xx_hal_i2s_ex.c ****  ----------+-->|          I2Sx         |------------------->I2Sx_SD(in/out)
  76:Drivers/STM32F4xx_HAL_Driver/Src/stm32f4xx_hal_i2s_ex.c ****          +--|-->|                       |
  77:Drivers/STM32F4xx_HAL_Driver/Src/stm32f4xx_hal_i2s_ex.c ****         |   |   +-----------------------+
  78:Drivers/STM32F4xx_HAL_Driver/Src/stm32f4xx_hal_i2s_ex.c ****         |   |
  79:Drivers/STM32F4xx_HAL_Driver/Src/stm32f4xx_hal_i2s_ex.c ****  I2S_WS |   |
  80:Drivers/STM32F4xx_HAL_Driver/Src/stm32f4xx_hal_i2s_ex.c ****  ------>|   |
  81:Drivers/STM32F4xx_HAL_Driver/Src/stm32f4xx_hal_i2s_ex.c ****         |   |   +-----------------------+
  82:Drivers/STM32F4xx_HAL_Driver/Src/stm32f4xx_hal_i2s_ex.c ****         |   +-->|                       |
  83:Drivers/STM32F4xx_HAL_Driver/Src/stm32f4xx_hal_i2s_ex.c ****         |       |       I2Sx_ext        |------------------->I2Sx_extSD(in/out)
  84:Drivers/STM32F4xx_HAL_Driver/Src/stm32f4xx_hal_i2s_ex.c ****          +----->|                       |
  85:Drivers/STM32F4xx_HAL_Driver/Src/stm32f4xx_hal_i2s_ex.c ****                 +-----------------------+
  86:Drivers/STM32F4xx_HAL_Driver/Src/stm32f4xx_hal_i2s_ex.c ****   */
  87:Drivers/STM32F4xx_HAL_Driver/Src/stm32f4xx_hal_i2s_ex.c **** 
ARM GAS  C:\Users\jonas\AppData\Local\Temp\ccyC9VxG.s 			page 3


  88:Drivers/STM32F4xx_HAL_Driver/Src/stm32f4xx_hal_i2s_ex.c **** /* Includes ------------------------------------------------------------------*/
  89:Drivers/STM32F4xx_HAL_Driver/Src/stm32f4xx_hal_i2s_ex.c **** #include "stm32f4xx_hal.h"
  90:Drivers/STM32F4xx_HAL_Driver/Src/stm32f4xx_hal_i2s_ex.c **** 
  91:Drivers/STM32F4xx_HAL_Driver/Src/stm32f4xx_hal_i2s_ex.c **** /** @addtogroup STM32F4xx_HAL_Driver
  92:Drivers/STM32F4xx_HAL_Driver/Src/stm32f4xx_hal_i2s_ex.c ****   * @{
  93:Drivers/STM32F4xx_HAL_Driver/Src/stm32f4xx_hal_i2s_ex.c ****   */
  94:Drivers/STM32F4xx_HAL_Driver/Src/stm32f4xx_hal_i2s_ex.c **** 
  95:Drivers/STM32F4xx_HAL_Driver/Src/stm32f4xx_hal_i2s_ex.c **** #ifdef HAL_I2S_MODULE_ENABLED
  96:Drivers/STM32F4xx_HAL_Driver/Src/stm32f4xx_hal_i2s_ex.c **** 
  97:Drivers/STM32F4xx_HAL_Driver/Src/stm32f4xx_hal_i2s_ex.c **** /** @defgroup I2SEx I2SEx
  98:Drivers/STM32F4xx_HAL_Driver/Src/stm32f4xx_hal_i2s_ex.c ****   * @brief I2S Extended HAL module driver
  99:Drivers/STM32F4xx_HAL_Driver/Src/stm32f4xx_hal_i2s_ex.c ****   * @{
 100:Drivers/STM32F4xx_HAL_Driver/Src/stm32f4xx_hal_i2s_ex.c ****   */
 101:Drivers/STM32F4xx_HAL_Driver/Src/stm32f4xx_hal_i2s_ex.c **** 
 102:Drivers/STM32F4xx_HAL_Driver/Src/stm32f4xx_hal_i2s_ex.c **** #if defined (SPI_I2S_FULLDUPLEX_SUPPORT)
 103:Drivers/STM32F4xx_HAL_Driver/Src/stm32f4xx_hal_i2s_ex.c **** 
 104:Drivers/STM32F4xx_HAL_Driver/Src/stm32f4xx_hal_i2s_ex.c **** /* Private typedef -----------------------------------------------------------*/
 105:Drivers/STM32F4xx_HAL_Driver/Src/stm32f4xx_hal_i2s_ex.c **** /** @defgroup I2SEx_Private_Typedef I2S Extended Private Typedef
 106:Drivers/STM32F4xx_HAL_Driver/Src/stm32f4xx_hal_i2s_ex.c ****   * @{
 107:Drivers/STM32F4xx_HAL_Driver/Src/stm32f4xx_hal_i2s_ex.c ****   */
 108:Drivers/STM32F4xx_HAL_Driver/Src/stm32f4xx_hal_i2s_ex.c **** typedef enum
 109:Drivers/STM32F4xx_HAL_Driver/Src/stm32f4xx_hal_i2s_ex.c **** {
 110:Drivers/STM32F4xx_HAL_Driver/Src/stm32f4xx_hal_i2s_ex.c ****   I2S_USE_I2S      = 0x00U,   /*!< I2Sx should be used      */
 111:Drivers/STM32F4xx_HAL_Driver/Src/stm32f4xx_hal_i2s_ex.c ****   I2S_USE_I2SEXT   = 0x01U,   /*!< I2Sx_ext should be used  */
 112:Drivers/STM32F4xx_HAL_Driver/Src/stm32f4xx_hal_i2s_ex.c **** } I2S_UseTypeDef;
 113:Drivers/STM32F4xx_HAL_Driver/Src/stm32f4xx_hal_i2s_ex.c **** /**
 114:Drivers/STM32F4xx_HAL_Driver/Src/stm32f4xx_hal_i2s_ex.c ****   * @}
 115:Drivers/STM32F4xx_HAL_Driver/Src/stm32f4xx_hal_i2s_ex.c ****   */
 116:Drivers/STM32F4xx_HAL_Driver/Src/stm32f4xx_hal_i2s_ex.c **** /* Private define ------------------------------------------------------------*/
 117:Drivers/STM32F4xx_HAL_Driver/Src/stm32f4xx_hal_i2s_ex.c **** /* Private macro -------------------------------------------------------------*/
 118:Drivers/STM32F4xx_HAL_Driver/Src/stm32f4xx_hal_i2s_ex.c **** /* Private variables ---------------------------------------------------------*/
 119:Drivers/STM32F4xx_HAL_Driver/Src/stm32f4xx_hal_i2s_ex.c **** /* Private function prototypes -----------------------------------------------*/
 120:Drivers/STM32F4xx_HAL_Driver/Src/stm32f4xx_hal_i2s_ex.c **** /** @defgroup I2SEx_Private_Functions I2S Extended Private Functions
 121:Drivers/STM32F4xx_HAL_Driver/Src/stm32f4xx_hal_i2s_ex.c ****   * @{
 122:Drivers/STM32F4xx_HAL_Driver/Src/stm32f4xx_hal_i2s_ex.c ****   */
 123:Drivers/STM32F4xx_HAL_Driver/Src/stm32f4xx_hal_i2s_ex.c **** static void I2SEx_TxRxDMAHalfCplt(DMA_HandleTypeDef *hdma);
 124:Drivers/STM32F4xx_HAL_Driver/Src/stm32f4xx_hal_i2s_ex.c **** static void I2SEx_TxRxDMACplt(DMA_HandleTypeDef *hdma);
 125:Drivers/STM32F4xx_HAL_Driver/Src/stm32f4xx_hal_i2s_ex.c **** static void I2SEx_TxRxDMAError(DMA_HandleTypeDef *hdma);
 126:Drivers/STM32F4xx_HAL_Driver/Src/stm32f4xx_hal_i2s_ex.c **** static void I2SEx_RxISR_I2S(I2S_HandleTypeDef *hi2s);
 127:Drivers/STM32F4xx_HAL_Driver/Src/stm32f4xx_hal_i2s_ex.c **** static void I2SEx_RxISR_I2SExt(I2S_HandleTypeDef *hi2s);
 128:Drivers/STM32F4xx_HAL_Driver/Src/stm32f4xx_hal_i2s_ex.c **** static void I2SEx_TxISR_I2S(I2S_HandleTypeDef *hi2s);
 129:Drivers/STM32F4xx_HAL_Driver/Src/stm32f4xx_hal_i2s_ex.c **** static void I2SEx_TxISR_I2SExt(I2S_HandleTypeDef *hi2s);
 130:Drivers/STM32F4xx_HAL_Driver/Src/stm32f4xx_hal_i2s_ex.c **** static HAL_StatusTypeDef I2SEx_FullDuplexWaitFlagStateUntilTimeout(I2S_HandleTypeDef *hi2s,
 131:Drivers/STM32F4xx_HAL_Driver/Src/stm32f4xx_hal_i2s_ex.c ****                                                                    uint32_t Flag,
 132:Drivers/STM32F4xx_HAL_Driver/Src/stm32f4xx_hal_i2s_ex.c ****                                                                    uint32_t State,
 133:Drivers/STM32F4xx_HAL_Driver/Src/stm32f4xx_hal_i2s_ex.c ****                                                                    uint32_t Timeout,
 134:Drivers/STM32F4xx_HAL_Driver/Src/stm32f4xx_hal_i2s_ex.c ****                                                                    I2S_UseTypeDef i2sUsed);
 135:Drivers/STM32F4xx_HAL_Driver/Src/stm32f4xx_hal_i2s_ex.c **** /**
 136:Drivers/STM32F4xx_HAL_Driver/Src/stm32f4xx_hal_i2s_ex.c ****   * @}
 137:Drivers/STM32F4xx_HAL_Driver/Src/stm32f4xx_hal_i2s_ex.c ****   */
 138:Drivers/STM32F4xx_HAL_Driver/Src/stm32f4xx_hal_i2s_ex.c **** 
 139:Drivers/STM32F4xx_HAL_Driver/Src/stm32f4xx_hal_i2s_ex.c **** /**
 140:Drivers/STM32F4xx_HAL_Driver/Src/stm32f4xx_hal_i2s_ex.c ****   * @}
 141:Drivers/STM32F4xx_HAL_Driver/Src/stm32f4xx_hal_i2s_ex.c ****   */
 142:Drivers/STM32F4xx_HAL_Driver/Src/stm32f4xx_hal_i2s_ex.c **** 
 143:Drivers/STM32F4xx_HAL_Driver/Src/stm32f4xx_hal_i2s_ex.c **** /* Private functions ---------------------------------------------------------*/
 144:Drivers/STM32F4xx_HAL_Driver/Src/stm32f4xx_hal_i2s_ex.c **** /* Exported functions --------------------------------------------------------*/
ARM GAS  C:\Users\jonas\AppData\Local\Temp\ccyC9VxG.s 			page 4


 145:Drivers/STM32F4xx_HAL_Driver/Src/stm32f4xx_hal_i2s_ex.c **** 
 146:Drivers/STM32F4xx_HAL_Driver/Src/stm32f4xx_hal_i2s_ex.c **** /** @addtogroup I2SEx I2SEx
 147:Drivers/STM32F4xx_HAL_Driver/Src/stm32f4xx_hal_i2s_ex.c ****   * @{
 148:Drivers/STM32F4xx_HAL_Driver/Src/stm32f4xx_hal_i2s_ex.c ****   */
 149:Drivers/STM32F4xx_HAL_Driver/Src/stm32f4xx_hal_i2s_ex.c **** 
 150:Drivers/STM32F4xx_HAL_Driver/Src/stm32f4xx_hal_i2s_ex.c **** /** @addtogroup I2SEx_Exported_Functions I2S Extended Exported Functions
 151:Drivers/STM32F4xx_HAL_Driver/Src/stm32f4xx_hal_i2s_ex.c ****   * @{
 152:Drivers/STM32F4xx_HAL_Driver/Src/stm32f4xx_hal_i2s_ex.c ****   */
 153:Drivers/STM32F4xx_HAL_Driver/Src/stm32f4xx_hal_i2s_ex.c **** 
 154:Drivers/STM32F4xx_HAL_Driver/Src/stm32f4xx_hal_i2s_ex.c **** /** @defgroup I2SEx_Exported_Functions_Group1 I2S Extended IO operation functions
 155:Drivers/STM32F4xx_HAL_Driver/Src/stm32f4xx_hal_i2s_ex.c ****   *  @brief   I2SEx IO operation functions
 156:Drivers/STM32F4xx_HAL_Driver/Src/stm32f4xx_hal_i2s_ex.c ****   *
 157:Drivers/STM32F4xx_HAL_Driver/Src/stm32f4xx_hal_i2s_ex.c **** @verbatim
 158:Drivers/STM32F4xx_HAL_Driver/Src/stm32f4xx_hal_i2s_ex.c ****  ===============================================================================
 159:Drivers/STM32F4xx_HAL_Driver/Src/stm32f4xx_hal_i2s_ex.c ****                        ##### IO operation functions#####
 160:Drivers/STM32F4xx_HAL_Driver/Src/stm32f4xx_hal_i2s_ex.c ****  ===============================================================================
 161:Drivers/STM32F4xx_HAL_Driver/Src/stm32f4xx_hal_i2s_ex.c ****     [..]
 162:Drivers/STM32F4xx_HAL_Driver/Src/stm32f4xx_hal_i2s_ex.c ****     This subsection provides a set of functions allowing to manage the I2S data
 163:Drivers/STM32F4xx_HAL_Driver/Src/stm32f4xx_hal_i2s_ex.c ****     transfers.
 164:Drivers/STM32F4xx_HAL_Driver/Src/stm32f4xx_hal_i2s_ex.c **** 
 165:Drivers/STM32F4xx_HAL_Driver/Src/stm32f4xx_hal_i2s_ex.c ****     (#) There are two modes of transfer:
 166:Drivers/STM32F4xx_HAL_Driver/Src/stm32f4xx_hal_i2s_ex.c ****        (++) Blocking mode : The communication is performed in the polling mode.
 167:Drivers/STM32F4xx_HAL_Driver/Src/stm32f4xx_hal_i2s_ex.c ****             The status of all data processing is returned by the same function
 168:Drivers/STM32F4xx_HAL_Driver/Src/stm32f4xx_hal_i2s_ex.c ****             after finishing transfer.
 169:Drivers/STM32F4xx_HAL_Driver/Src/stm32f4xx_hal_i2s_ex.c ****        (++) No-Blocking mode : The communication is performed using Interrupts
 170:Drivers/STM32F4xx_HAL_Driver/Src/stm32f4xx_hal_i2s_ex.c ****             or DMA. These functions return the status of the transfer startup.
 171:Drivers/STM32F4xx_HAL_Driver/Src/stm32f4xx_hal_i2s_ex.c ****             The end of the data processing will be indicated through the
 172:Drivers/STM32F4xx_HAL_Driver/Src/stm32f4xx_hal_i2s_ex.c ****             dedicated I2S IRQ when using Interrupt mode or the DMA IRQ when
 173:Drivers/STM32F4xx_HAL_Driver/Src/stm32f4xx_hal_i2s_ex.c ****             using DMA mode.
 174:Drivers/STM32F4xx_HAL_Driver/Src/stm32f4xx_hal_i2s_ex.c **** 
 175:Drivers/STM32F4xx_HAL_Driver/Src/stm32f4xx_hal_i2s_ex.c ****     (#) Blocking mode functions are :
 176:Drivers/STM32F4xx_HAL_Driver/Src/stm32f4xx_hal_i2s_ex.c ****         (++) HAL_I2SEx_TransmitReceive()
 177:Drivers/STM32F4xx_HAL_Driver/Src/stm32f4xx_hal_i2s_ex.c **** 
 178:Drivers/STM32F4xx_HAL_Driver/Src/stm32f4xx_hal_i2s_ex.c ****     (#) No-Blocking mode functions with Interrupt are :
 179:Drivers/STM32F4xx_HAL_Driver/Src/stm32f4xx_hal_i2s_ex.c ****         (++) HAL_I2SEx_TransmitReceive_IT()
 180:Drivers/STM32F4xx_HAL_Driver/Src/stm32f4xx_hal_i2s_ex.c ****         (++) HAL_I2SEx_FullDuplex_IRQHandler()
 181:Drivers/STM32F4xx_HAL_Driver/Src/stm32f4xx_hal_i2s_ex.c **** 
 182:Drivers/STM32F4xx_HAL_Driver/Src/stm32f4xx_hal_i2s_ex.c ****     (#) No-Blocking mode functions with DMA are :
 183:Drivers/STM32F4xx_HAL_Driver/Src/stm32f4xx_hal_i2s_ex.c ****         (++) HAL_I2SEx_TransmitReceive_DMA()
 184:Drivers/STM32F4xx_HAL_Driver/Src/stm32f4xx_hal_i2s_ex.c **** 
 185:Drivers/STM32F4xx_HAL_Driver/Src/stm32f4xx_hal_i2s_ex.c ****     (#) A set of Transfer Complete Callback are provided in non Blocking mode:
 186:Drivers/STM32F4xx_HAL_Driver/Src/stm32f4xx_hal_i2s_ex.c ****         (++) HAL_I2SEx_TxRxCpltCallback()
 187:Drivers/STM32F4xx_HAL_Driver/Src/stm32f4xx_hal_i2s_ex.c **** @endverbatim
 188:Drivers/STM32F4xx_HAL_Driver/Src/stm32f4xx_hal_i2s_ex.c ****   * @{
 189:Drivers/STM32F4xx_HAL_Driver/Src/stm32f4xx_hal_i2s_ex.c ****   */
 190:Drivers/STM32F4xx_HAL_Driver/Src/stm32f4xx_hal_i2s_ex.c **** /**
 191:Drivers/STM32F4xx_HAL_Driver/Src/stm32f4xx_hal_i2s_ex.c ****   * @brief  Full-Duplex Transmit/Receive data in blocking mode.
 192:Drivers/STM32F4xx_HAL_Driver/Src/stm32f4xx_hal_i2s_ex.c ****   * @param  hi2s pointer to a I2S_HandleTypeDef structure that contains
 193:Drivers/STM32F4xx_HAL_Driver/Src/stm32f4xx_hal_i2s_ex.c ****   *         the configuration information for I2S module
 194:Drivers/STM32F4xx_HAL_Driver/Src/stm32f4xx_hal_i2s_ex.c ****   * @param  pTxData a 16-bit pointer to the Transmit data buffer.
 195:Drivers/STM32F4xx_HAL_Driver/Src/stm32f4xx_hal_i2s_ex.c ****   * @param  pRxData a 16-bit pointer to the Receive data buffer.
 196:Drivers/STM32F4xx_HAL_Driver/Src/stm32f4xx_hal_i2s_ex.c ****   * @param  Size number of data sample to be sent:
 197:Drivers/STM32F4xx_HAL_Driver/Src/stm32f4xx_hal_i2s_ex.c ****   * @note   When a 16-bit data frame or a 16-bit data frame extended is selected during the I2S
 198:Drivers/STM32F4xx_HAL_Driver/Src/stm32f4xx_hal_i2s_ex.c ****   *         configuration phase, the Size parameter means the number of 16-bit data length
 199:Drivers/STM32F4xx_HAL_Driver/Src/stm32f4xx_hal_i2s_ex.c ****   *         in the transaction and when a 24-bit data frame or a 32-bit data frame is selected
 200:Drivers/STM32F4xx_HAL_Driver/Src/stm32f4xx_hal_i2s_ex.c ****   *         the Size parameter means the number of 16-bit data length.
 201:Drivers/STM32F4xx_HAL_Driver/Src/stm32f4xx_hal_i2s_ex.c ****   * @param  Timeout Timeout duration
ARM GAS  C:\Users\jonas\AppData\Local\Temp\ccyC9VxG.s 			page 5


 202:Drivers/STM32F4xx_HAL_Driver/Src/stm32f4xx_hal_i2s_ex.c ****   * @note   The I2S is kept enabled at the end of transaction to avoid the clock de-synchronization
 203:Drivers/STM32F4xx_HAL_Driver/Src/stm32f4xx_hal_i2s_ex.c ****   *         between Master and Slave(example: audio streaming).
 204:Drivers/STM32F4xx_HAL_Driver/Src/stm32f4xx_hal_i2s_ex.c ****   * @retval HAL status
 205:Drivers/STM32F4xx_HAL_Driver/Src/stm32f4xx_hal_i2s_ex.c ****   */
 206:Drivers/STM32F4xx_HAL_Driver/Src/stm32f4xx_hal_i2s_ex.c **** HAL_StatusTypeDef HAL_I2SEx_TransmitReceive(I2S_HandleTypeDef *hi2s,
 207:Drivers/STM32F4xx_HAL_Driver/Src/stm32f4xx_hal_i2s_ex.c ****                                             uint16_t *pTxData,
 208:Drivers/STM32F4xx_HAL_Driver/Src/stm32f4xx_hal_i2s_ex.c ****                                             uint16_t *pRxData,
 209:Drivers/STM32F4xx_HAL_Driver/Src/stm32f4xx_hal_i2s_ex.c ****                                             uint16_t Size,
 210:Drivers/STM32F4xx_HAL_Driver/Src/stm32f4xx_hal_i2s_ex.c ****                                             uint32_t Timeout)
 211:Drivers/STM32F4xx_HAL_Driver/Src/stm32f4xx_hal_i2s_ex.c **** {
 212:Drivers/STM32F4xx_HAL_Driver/Src/stm32f4xx_hal_i2s_ex.c ****   uint32_t tmp1 = 0U;
 213:Drivers/STM32F4xx_HAL_Driver/Src/stm32f4xx_hal_i2s_ex.c ****   HAL_StatusTypeDef errorcode = HAL_OK;
 214:Drivers/STM32F4xx_HAL_Driver/Src/stm32f4xx_hal_i2s_ex.c **** 
 215:Drivers/STM32F4xx_HAL_Driver/Src/stm32f4xx_hal_i2s_ex.c ****   if (hi2s->State != HAL_I2S_STATE_READY)
 216:Drivers/STM32F4xx_HAL_Driver/Src/stm32f4xx_hal_i2s_ex.c ****   {
 217:Drivers/STM32F4xx_HAL_Driver/Src/stm32f4xx_hal_i2s_ex.c ****     errorcode = HAL_BUSY;
 218:Drivers/STM32F4xx_HAL_Driver/Src/stm32f4xx_hal_i2s_ex.c ****     goto error;
 219:Drivers/STM32F4xx_HAL_Driver/Src/stm32f4xx_hal_i2s_ex.c ****   }
 220:Drivers/STM32F4xx_HAL_Driver/Src/stm32f4xx_hal_i2s_ex.c **** 
 221:Drivers/STM32F4xx_HAL_Driver/Src/stm32f4xx_hal_i2s_ex.c ****   if ((pTxData == NULL) || (pRxData == NULL) || (Size == 0U))
 222:Drivers/STM32F4xx_HAL_Driver/Src/stm32f4xx_hal_i2s_ex.c ****   {
 223:Drivers/STM32F4xx_HAL_Driver/Src/stm32f4xx_hal_i2s_ex.c ****     return  HAL_ERROR;
 224:Drivers/STM32F4xx_HAL_Driver/Src/stm32f4xx_hal_i2s_ex.c ****   }
 225:Drivers/STM32F4xx_HAL_Driver/Src/stm32f4xx_hal_i2s_ex.c **** 
 226:Drivers/STM32F4xx_HAL_Driver/Src/stm32f4xx_hal_i2s_ex.c ****   /* Process Locked */
 227:Drivers/STM32F4xx_HAL_Driver/Src/stm32f4xx_hal_i2s_ex.c ****   __HAL_LOCK(hi2s);
 228:Drivers/STM32F4xx_HAL_Driver/Src/stm32f4xx_hal_i2s_ex.c **** 
 229:Drivers/STM32F4xx_HAL_Driver/Src/stm32f4xx_hal_i2s_ex.c ****   tmp1 = hi2s->Instance->I2SCFGR & (SPI_I2SCFGR_DATLEN | SPI_I2SCFGR_CHLEN);
 230:Drivers/STM32F4xx_HAL_Driver/Src/stm32f4xx_hal_i2s_ex.c ****   /* Check the Data format: When a 16-bit data frame or a 16-bit data frame extended
 231:Drivers/STM32F4xx_HAL_Driver/Src/stm32f4xx_hal_i2s_ex.c ****      is selected during the I2S configuration phase, the Size parameter means the number
 232:Drivers/STM32F4xx_HAL_Driver/Src/stm32f4xx_hal_i2s_ex.c ****      of 16-bit data length in the transaction and when a 24-bit data frame or a 32-bit data
 233:Drivers/STM32F4xx_HAL_Driver/Src/stm32f4xx_hal_i2s_ex.c ****      frame is selected the Size parameter means the number of 16-bit data length. */
 234:Drivers/STM32F4xx_HAL_Driver/Src/stm32f4xx_hal_i2s_ex.c ****   if ((tmp1 == I2S_DATAFORMAT_24B) || (tmp1 == I2S_DATAFORMAT_32B))
 235:Drivers/STM32F4xx_HAL_Driver/Src/stm32f4xx_hal_i2s_ex.c ****   {
 236:Drivers/STM32F4xx_HAL_Driver/Src/stm32f4xx_hal_i2s_ex.c ****     hi2s->TxXferSize  = (Size << 1U);
 237:Drivers/STM32F4xx_HAL_Driver/Src/stm32f4xx_hal_i2s_ex.c ****     hi2s->TxXferCount = (Size << 1U);
 238:Drivers/STM32F4xx_HAL_Driver/Src/stm32f4xx_hal_i2s_ex.c ****     hi2s->RxXferSize  = (Size << 1U);
 239:Drivers/STM32F4xx_HAL_Driver/Src/stm32f4xx_hal_i2s_ex.c ****     hi2s->RxXferCount = (Size << 1U);
 240:Drivers/STM32F4xx_HAL_Driver/Src/stm32f4xx_hal_i2s_ex.c ****   }
 241:Drivers/STM32F4xx_HAL_Driver/Src/stm32f4xx_hal_i2s_ex.c ****   else
 242:Drivers/STM32F4xx_HAL_Driver/Src/stm32f4xx_hal_i2s_ex.c ****   {
 243:Drivers/STM32F4xx_HAL_Driver/Src/stm32f4xx_hal_i2s_ex.c ****     hi2s->TxXferSize  = Size;
 244:Drivers/STM32F4xx_HAL_Driver/Src/stm32f4xx_hal_i2s_ex.c ****     hi2s->TxXferCount = Size;
 245:Drivers/STM32F4xx_HAL_Driver/Src/stm32f4xx_hal_i2s_ex.c ****     hi2s->RxXferSize  = Size;
 246:Drivers/STM32F4xx_HAL_Driver/Src/stm32f4xx_hal_i2s_ex.c ****     hi2s->RxXferCount = Size;
 247:Drivers/STM32F4xx_HAL_Driver/Src/stm32f4xx_hal_i2s_ex.c ****   }
 248:Drivers/STM32F4xx_HAL_Driver/Src/stm32f4xx_hal_i2s_ex.c **** 
 249:Drivers/STM32F4xx_HAL_Driver/Src/stm32f4xx_hal_i2s_ex.c ****   /* Set state and reset error code */
 250:Drivers/STM32F4xx_HAL_Driver/Src/stm32f4xx_hal_i2s_ex.c ****   hi2s->ErrorCode = HAL_I2S_ERROR_NONE;
 251:Drivers/STM32F4xx_HAL_Driver/Src/stm32f4xx_hal_i2s_ex.c ****   hi2s->State = HAL_I2S_STATE_BUSY_TX_RX;
 252:Drivers/STM32F4xx_HAL_Driver/Src/stm32f4xx_hal_i2s_ex.c **** 
 253:Drivers/STM32F4xx_HAL_Driver/Src/stm32f4xx_hal_i2s_ex.c ****   tmp1 = hi2s->Instance->I2SCFGR & SPI_I2SCFGR_I2SCFG;
 254:Drivers/STM32F4xx_HAL_Driver/Src/stm32f4xx_hal_i2s_ex.c ****   /* Check if the I2S_MODE_MASTER_TX or I2S_MODE_SLAVE_TX Mode is selected */
 255:Drivers/STM32F4xx_HAL_Driver/Src/stm32f4xx_hal_i2s_ex.c ****   if ((tmp1 == I2S_MODE_MASTER_TX) || (tmp1 == I2S_MODE_SLAVE_TX))
 256:Drivers/STM32F4xx_HAL_Driver/Src/stm32f4xx_hal_i2s_ex.c ****   {
 257:Drivers/STM32F4xx_HAL_Driver/Src/stm32f4xx_hal_i2s_ex.c ****     /* Prepare the First Data before enabling the I2S */
 258:Drivers/STM32F4xx_HAL_Driver/Src/stm32f4xx_hal_i2s_ex.c ****     hi2s->Instance->DR = (*pTxData++);
ARM GAS  C:\Users\jonas\AppData\Local\Temp\ccyC9VxG.s 			page 6


 259:Drivers/STM32F4xx_HAL_Driver/Src/stm32f4xx_hal_i2s_ex.c ****     hi2s->TxXferCount--;
 260:Drivers/STM32F4xx_HAL_Driver/Src/stm32f4xx_hal_i2s_ex.c **** 
 261:Drivers/STM32F4xx_HAL_Driver/Src/stm32f4xx_hal_i2s_ex.c ****     /* Enable I2Sext(receiver) before enabling I2Sx peripheral */
 262:Drivers/STM32F4xx_HAL_Driver/Src/stm32f4xx_hal_i2s_ex.c ****     __HAL_I2SEXT_ENABLE(hi2s);
 263:Drivers/STM32F4xx_HAL_Driver/Src/stm32f4xx_hal_i2s_ex.c **** 
 264:Drivers/STM32F4xx_HAL_Driver/Src/stm32f4xx_hal_i2s_ex.c ****     /* Enable I2Sx peripheral */
 265:Drivers/STM32F4xx_HAL_Driver/Src/stm32f4xx_hal_i2s_ex.c ****     __HAL_I2S_ENABLE(hi2s);
 266:Drivers/STM32F4xx_HAL_Driver/Src/stm32f4xx_hal_i2s_ex.c **** 
 267:Drivers/STM32F4xx_HAL_Driver/Src/stm32f4xx_hal_i2s_ex.c ****     /* Check if Master Receiver mode is selected */
 268:Drivers/STM32F4xx_HAL_Driver/Src/stm32f4xx_hal_i2s_ex.c ****     if ((hi2s->Instance->I2SCFGR & SPI_I2SCFGR_I2SCFG) == I2S_MODE_MASTER_TX)
 269:Drivers/STM32F4xx_HAL_Driver/Src/stm32f4xx_hal_i2s_ex.c ****     {
 270:Drivers/STM32F4xx_HAL_Driver/Src/stm32f4xx_hal_i2s_ex.c ****       /* Clear the Overrun Flag by a read operation on the SPI_DR register followed by a read
 271:Drivers/STM32F4xx_HAL_Driver/Src/stm32f4xx_hal_i2s_ex.c ****       access to the SPI_SR register. */
 272:Drivers/STM32F4xx_HAL_Driver/Src/stm32f4xx_hal_i2s_ex.c ****       __HAL_I2SEXT_CLEAR_OVRFLAG(hi2s);
 273:Drivers/STM32F4xx_HAL_Driver/Src/stm32f4xx_hal_i2s_ex.c ****     }
 274:Drivers/STM32F4xx_HAL_Driver/Src/stm32f4xx_hal_i2s_ex.c **** 
 275:Drivers/STM32F4xx_HAL_Driver/Src/stm32f4xx_hal_i2s_ex.c ****     while ((hi2s->RxXferCount > 0U) || (hi2s->TxXferCount > 0U))
 276:Drivers/STM32F4xx_HAL_Driver/Src/stm32f4xx_hal_i2s_ex.c ****     {
 277:Drivers/STM32F4xx_HAL_Driver/Src/stm32f4xx_hal_i2s_ex.c ****       if (hi2s->TxXferCount > 0U)
 278:Drivers/STM32F4xx_HAL_Driver/Src/stm32f4xx_hal_i2s_ex.c ****       {
 279:Drivers/STM32F4xx_HAL_Driver/Src/stm32f4xx_hal_i2s_ex.c ****         /* Wait until TXE flag is set */
 280:Drivers/STM32F4xx_HAL_Driver/Src/stm32f4xx_hal_i2s_ex.c ****         if (I2SEx_FullDuplexWaitFlagStateUntilTimeout(hi2s, I2S_FLAG_TXE, SET, Timeout, I2S_USE_I2S
 281:Drivers/STM32F4xx_HAL_Driver/Src/stm32f4xx_hal_i2s_ex.c ****         {
 282:Drivers/STM32F4xx_HAL_Driver/Src/stm32f4xx_hal_i2s_ex.c ****           /* Set the error code */
 283:Drivers/STM32F4xx_HAL_Driver/Src/stm32f4xx_hal_i2s_ex.c ****           SET_BIT(hi2s->ErrorCode, HAL_I2S_ERROR_TIMEOUT);
 284:Drivers/STM32F4xx_HAL_Driver/Src/stm32f4xx_hal_i2s_ex.c ****           errorcode = HAL_ERROR;
 285:Drivers/STM32F4xx_HAL_Driver/Src/stm32f4xx_hal_i2s_ex.c ****           goto error;
 286:Drivers/STM32F4xx_HAL_Driver/Src/stm32f4xx_hal_i2s_ex.c ****         }
 287:Drivers/STM32F4xx_HAL_Driver/Src/stm32f4xx_hal_i2s_ex.c ****         /* Write Data on DR register */
 288:Drivers/STM32F4xx_HAL_Driver/Src/stm32f4xx_hal_i2s_ex.c ****         hi2s->Instance->DR = (*pTxData++);
 289:Drivers/STM32F4xx_HAL_Driver/Src/stm32f4xx_hal_i2s_ex.c ****         hi2s->TxXferCount--;
 290:Drivers/STM32F4xx_HAL_Driver/Src/stm32f4xx_hal_i2s_ex.c **** 
 291:Drivers/STM32F4xx_HAL_Driver/Src/stm32f4xx_hal_i2s_ex.c ****         /* Check if an underrun occurs */
 292:Drivers/STM32F4xx_HAL_Driver/Src/stm32f4xx_hal_i2s_ex.c ****         if ((__HAL_I2S_GET_FLAG(hi2s, I2S_FLAG_UDR) == SET) && (tmp1 == I2S_MODE_SLAVE_TX))
 293:Drivers/STM32F4xx_HAL_Driver/Src/stm32f4xx_hal_i2s_ex.c ****         {
 294:Drivers/STM32F4xx_HAL_Driver/Src/stm32f4xx_hal_i2s_ex.c ****           /* Clear Underrun flag */
 295:Drivers/STM32F4xx_HAL_Driver/Src/stm32f4xx_hal_i2s_ex.c ****           __HAL_I2S_CLEAR_UDRFLAG(hi2s);
 296:Drivers/STM32F4xx_HAL_Driver/Src/stm32f4xx_hal_i2s_ex.c **** 
 297:Drivers/STM32F4xx_HAL_Driver/Src/stm32f4xx_hal_i2s_ex.c ****           /* Set the error code */
 298:Drivers/STM32F4xx_HAL_Driver/Src/stm32f4xx_hal_i2s_ex.c ****           SET_BIT(hi2s->ErrorCode, HAL_I2S_ERROR_UDR);
 299:Drivers/STM32F4xx_HAL_Driver/Src/stm32f4xx_hal_i2s_ex.c ****         }
 300:Drivers/STM32F4xx_HAL_Driver/Src/stm32f4xx_hal_i2s_ex.c ****       }
 301:Drivers/STM32F4xx_HAL_Driver/Src/stm32f4xx_hal_i2s_ex.c ****       if (hi2s->RxXferCount > 0U)
 302:Drivers/STM32F4xx_HAL_Driver/Src/stm32f4xx_hal_i2s_ex.c ****       {
 303:Drivers/STM32F4xx_HAL_Driver/Src/stm32f4xx_hal_i2s_ex.c ****         /* Wait until RXNE flag is set */
 304:Drivers/STM32F4xx_HAL_Driver/Src/stm32f4xx_hal_i2s_ex.c ****         if (I2SEx_FullDuplexWaitFlagStateUntilTimeout(hi2s, I2S_FLAG_RXNE, SET, Timeout, I2S_USE_I2
 305:Drivers/STM32F4xx_HAL_Driver/Src/stm32f4xx_hal_i2s_ex.c ****         {
 306:Drivers/STM32F4xx_HAL_Driver/Src/stm32f4xx_hal_i2s_ex.c ****           /* Set the error code */
 307:Drivers/STM32F4xx_HAL_Driver/Src/stm32f4xx_hal_i2s_ex.c ****           SET_BIT(hi2s->ErrorCode, HAL_I2S_ERROR_TIMEOUT);
 308:Drivers/STM32F4xx_HAL_Driver/Src/stm32f4xx_hal_i2s_ex.c ****           errorcode = HAL_ERROR;
 309:Drivers/STM32F4xx_HAL_Driver/Src/stm32f4xx_hal_i2s_ex.c ****           goto error;
 310:Drivers/STM32F4xx_HAL_Driver/Src/stm32f4xx_hal_i2s_ex.c ****         }
 311:Drivers/STM32F4xx_HAL_Driver/Src/stm32f4xx_hal_i2s_ex.c ****         /* Read Data from DR register */
 312:Drivers/STM32F4xx_HAL_Driver/Src/stm32f4xx_hal_i2s_ex.c ****         (*pRxData++) = I2SxEXT(hi2s->Instance)->DR;
 313:Drivers/STM32F4xx_HAL_Driver/Src/stm32f4xx_hal_i2s_ex.c ****         hi2s->RxXferCount--;
 314:Drivers/STM32F4xx_HAL_Driver/Src/stm32f4xx_hal_i2s_ex.c **** 
 315:Drivers/STM32F4xx_HAL_Driver/Src/stm32f4xx_hal_i2s_ex.c ****         /* Check if an overrun occurs */
ARM GAS  C:\Users\jonas\AppData\Local\Temp\ccyC9VxG.s 			page 7


 316:Drivers/STM32F4xx_HAL_Driver/Src/stm32f4xx_hal_i2s_ex.c ****         if (__HAL_I2SEXT_GET_FLAG(hi2s, I2S_FLAG_OVR) == SET)
 317:Drivers/STM32F4xx_HAL_Driver/Src/stm32f4xx_hal_i2s_ex.c ****         {
 318:Drivers/STM32F4xx_HAL_Driver/Src/stm32f4xx_hal_i2s_ex.c ****           /* Clear Overrun flag */
 319:Drivers/STM32F4xx_HAL_Driver/Src/stm32f4xx_hal_i2s_ex.c ****           __HAL_I2S_CLEAR_OVRFLAG(hi2s);
 320:Drivers/STM32F4xx_HAL_Driver/Src/stm32f4xx_hal_i2s_ex.c **** 
 321:Drivers/STM32F4xx_HAL_Driver/Src/stm32f4xx_hal_i2s_ex.c ****           /* Set the error code */
 322:Drivers/STM32F4xx_HAL_Driver/Src/stm32f4xx_hal_i2s_ex.c ****           SET_BIT(hi2s->ErrorCode, HAL_I2S_ERROR_OVR);
 323:Drivers/STM32F4xx_HAL_Driver/Src/stm32f4xx_hal_i2s_ex.c ****         }
 324:Drivers/STM32F4xx_HAL_Driver/Src/stm32f4xx_hal_i2s_ex.c ****       }
 325:Drivers/STM32F4xx_HAL_Driver/Src/stm32f4xx_hal_i2s_ex.c ****     }
 326:Drivers/STM32F4xx_HAL_Driver/Src/stm32f4xx_hal_i2s_ex.c ****   }
 327:Drivers/STM32F4xx_HAL_Driver/Src/stm32f4xx_hal_i2s_ex.c ****   /* The I2S_MODE_MASTER_RX or I2S_MODE_SLAVE_RX Mode is selected */
 328:Drivers/STM32F4xx_HAL_Driver/Src/stm32f4xx_hal_i2s_ex.c ****   else
 329:Drivers/STM32F4xx_HAL_Driver/Src/stm32f4xx_hal_i2s_ex.c ****   {
 330:Drivers/STM32F4xx_HAL_Driver/Src/stm32f4xx_hal_i2s_ex.c ****     /* Prepare the First Data before enabling the I2S */
 331:Drivers/STM32F4xx_HAL_Driver/Src/stm32f4xx_hal_i2s_ex.c ****     I2SxEXT(hi2s->Instance)->DR = (*pTxData++);
 332:Drivers/STM32F4xx_HAL_Driver/Src/stm32f4xx_hal_i2s_ex.c ****     hi2s->TxXferCount--;
 333:Drivers/STM32F4xx_HAL_Driver/Src/stm32f4xx_hal_i2s_ex.c **** 
 334:Drivers/STM32F4xx_HAL_Driver/Src/stm32f4xx_hal_i2s_ex.c ****     /* Enable I2Sext(transmitter) after enabling I2Sx peripheral */
 335:Drivers/STM32F4xx_HAL_Driver/Src/stm32f4xx_hal_i2s_ex.c ****     __HAL_I2SEXT_ENABLE(hi2s);
 336:Drivers/STM32F4xx_HAL_Driver/Src/stm32f4xx_hal_i2s_ex.c **** 
 337:Drivers/STM32F4xx_HAL_Driver/Src/stm32f4xx_hal_i2s_ex.c ****     /* Enable I2S peripheral before the I2Sext*/
 338:Drivers/STM32F4xx_HAL_Driver/Src/stm32f4xx_hal_i2s_ex.c ****     __HAL_I2S_ENABLE(hi2s);
 339:Drivers/STM32F4xx_HAL_Driver/Src/stm32f4xx_hal_i2s_ex.c **** 
 340:Drivers/STM32F4xx_HAL_Driver/Src/stm32f4xx_hal_i2s_ex.c ****     /* Check if Master Receiver mode is selected */
 341:Drivers/STM32F4xx_HAL_Driver/Src/stm32f4xx_hal_i2s_ex.c ****     if ((hi2s->Instance->I2SCFGR & SPI_I2SCFGR_I2SCFG) == I2S_MODE_MASTER_RX)
 342:Drivers/STM32F4xx_HAL_Driver/Src/stm32f4xx_hal_i2s_ex.c ****     {
 343:Drivers/STM32F4xx_HAL_Driver/Src/stm32f4xx_hal_i2s_ex.c ****       /* Clear the Overrun Flag by a read operation on the SPI_DR register followed by a read
 344:Drivers/STM32F4xx_HAL_Driver/Src/stm32f4xx_hal_i2s_ex.c ****       access to the SPI_SR register. */
 345:Drivers/STM32F4xx_HAL_Driver/Src/stm32f4xx_hal_i2s_ex.c ****       __HAL_I2S_CLEAR_OVRFLAG(hi2s);
 346:Drivers/STM32F4xx_HAL_Driver/Src/stm32f4xx_hal_i2s_ex.c ****     }
 347:Drivers/STM32F4xx_HAL_Driver/Src/stm32f4xx_hal_i2s_ex.c **** 
 348:Drivers/STM32F4xx_HAL_Driver/Src/stm32f4xx_hal_i2s_ex.c ****     while ((hi2s->RxXferCount > 0U) || (hi2s->TxXferCount > 0U))
 349:Drivers/STM32F4xx_HAL_Driver/Src/stm32f4xx_hal_i2s_ex.c ****     {
 350:Drivers/STM32F4xx_HAL_Driver/Src/stm32f4xx_hal_i2s_ex.c ****       if (hi2s->TxXferCount > 0U)
 351:Drivers/STM32F4xx_HAL_Driver/Src/stm32f4xx_hal_i2s_ex.c ****       {
 352:Drivers/STM32F4xx_HAL_Driver/Src/stm32f4xx_hal_i2s_ex.c ****         /* Wait until TXE flag is set */
 353:Drivers/STM32F4xx_HAL_Driver/Src/stm32f4xx_hal_i2s_ex.c ****         if (I2SEx_FullDuplexWaitFlagStateUntilTimeout(hi2s, I2S_FLAG_TXE, SET, Timeout, I2S_USE_I2S
 354:Drivers/STM32F4xx_HAL_Driver/Src/stm32f4xx_hal_i2s_ex.c ****         {
 355:Drivers/STM32F4xx_HAL_Driver/Src/stm32f4xx_hal_i2s_ex.c ****           /* Set the error code */
 356:Drivers/STM32F4xx_HAL_Driver/Src/stm32f4xx_hal_i2s_ex.c ****           SET_BIT(hi2s->ErrorCode, HAL_I2S_ERROR_TIMEOUT);
 357:Drivers/STM32F4xx_HAL_Driver/Src/stm32f4xx_hal_i2s_ex.c ****           errorcode = HAL_ERROR;
 358:Drivers/STM32F4xx_HAL_Driver/Src/stm32f4xx_hal_i2s_ex.c ****           goto error;
 359:Drivers/STM32F4xx_HAL_Driver/Src/stm32f4xx_hal_i2s_ex.c ****         }
 360:Drivers/STM32F4xx_HAL_Driver/Src/stm32f4xx_hal_i2s_ex.c ****         /* Write Data on DR register */
 361:Drivers/STM32F4xx_HAL_Driver/Src/stm32f4xx_hal_i2s_ex.c ****         I2SxEXT(hi2s->Instance)->DR = (*pTxData++);
 362:Drivers/STM32F4xx_HAL_Driver/Src/stm32f4xx_hal_i2s_ex.c ****         hi2s->TxXferCount--;
 363:Drivers/STM32F4xx_HAL_Driver/Src/stm32f4xx_hal_i2s_ex.c **** 
 364:Drivers/STM32F4xx_HAL_Driver/Src/stm32f4xx_hal_i2s_ex.c ****         /* Check if an underrun occurs */
 365:Drivers/STM32F4xx_HAL_Driver/Src/stm32f4xx_hal_i2s_ex.c ****         if ((__HAL_I2SEXT_GET_FLAG(hi2s, I2S_FLAG_UDR) == SET) && (tmp1 == I2S_MODE_SLAVE_RX))
 366:Drivers/STM32F4xx_HAL_Driver/Src/stm32f4xx_hal_i2s_ex.c ****         {
 367:Drivers/STM32F4xx_HAL_Driver/Src/stm32f4xx_hal_i2s_ex.c ****           /* Clear Underrun flag */
 368:Drivers/STM32F4xx_HAL_Driver/Src/stm32f4xx_hal_i2s_ex.c ****           __HAL_I2S_CLEAR_UDRFLAG(hi2s);
 369:Drivers/STM32F4xx_HAL_Driver/Src/stm32f4xx_hal_i2s_ex.c **** 
 370:Drivers/STM32F4xx_HAL_Driver/Src/stm32f4xx_hal_i2s_ex.c ****           /* Set the error code */
 371:Drivers/STM32F4xx_HAL_Driver/Src/stm32f4xx_hal_i2s_ex.c ****           SET_BIT(hi2s->ErrorCode, HAL_I2S_ERROR_UDR);
 372:Drivers/STM32F4xx_HAL_Driver/Src/stm32f4xx_hal_i2s_ex.c ****         }
ARM GAS  C:\Users\jonas\AppData\Local\Temp\ccyC9VxG.s 			page 8


 373:Drivers/STM32F4xx_HAL_Driver/Src/stm32f4xx_hal_i2s_ex.c ****       }
 374:Drivers/STM32F4xx_HAL_Driver/Src/stm32f4xx_hal_i2s_ex.c ****       if (hi2s->RxXferCount > 0U)
 375:Drivers/STM32F4xx_HAL_Driver/Src/stm32f4xx_hal_i2s_ex.c ****       {
 376:Drivers/STM32F4xx_HAL_Driver/Src/stm32f4xx_hal_i2s_ex.c ****         /* Wait until RXNE flag is set */
 377:Drivers/STM32F4xx_HAL_Driver/Src/stm32f4xx_hal_i2s_ex.c ****         if (I2SEx_FullDuplexWaitFlagStateUntilTimeout(hi2s, I2S_FLAG_RXNE, SET, Timeout, I2S_USE_I2
 378:Drivers/STM32F4xx_HAL_Driver/Src/stm32f4xx_hal_i2s_ex.c ****         {
 379:Drivers/STM32F4xx_HAL_Driver/Src/stm32f4xx_hal_i2s_ex.c ****           /* Set the error code */
 380:Drivers/STM32F4xx_HAL_Driver/Src/stm32f4xx_hal_i2s_ex.c ****           SET_BIT(hi2s->ErrorCode, HAL_I2S_ERROR_TIMEOUT);
 381:Drivers/STM32F4xx_HAL_Driver/Src/stm32f4xx_hal_i2s_ex.c ****           errorcode = HAL_ERROR;
 382:Drivers/STM32F4xx_HAL_Driver/Src/stm32f4xx_hal_i2s_ex.c ****           goto error;
 383:Drivers/STM32F4xx_HAL_Driver/Src/stm32f4xx_hal_i2s_ex.c ****         }
 384:Drivers/STM32F4xx_HAL_Driver/Src/stm32f4xx_hal_i2s_ex.c ****         /* Read Data from DR register */
 385:Drivers/STM32F4xx_HAL_Driver/Src/stm32f4xx_hal_i2s_ex.c ****         (*pRxData++) = hi2s->Instance->DR;
 386:Drivers/STM32F4xx_HAL_Driver/Src/stm32f4xx_hal_i2s_ex.c ****         hi2s->RxXferCount--;
 387:Drivers/STM32F4xx_HAL_Driver/Src/stm32f4xx_hal_i2s_ex.c **** 
 388:Drivers/STM32F4xx_HAL_Driver/Src/stm32f4xx_hal_i2s_ex.c ****         /* Check if an overrun occurs */
 389:Drivers/STM32F4xx_HAL_Driver/Src/stm32f4xx_hal_i2s_ex.c ****         if (__HAL_I2S_GET_FLAG(hi2s, I2S_FLAG_OVR) == SET)
 390:Drivers/STM32F4xx_HAL_Driver/Src/stm32f4xx_hal_i2s_ex.c ****         {
 391:Drivers/STM32F4xx_HAL_Driver/Src/stm32f4xx_hal_i2s_ex.c ****           /* Clear Overrun flag */
 392:Drivers/STM32F4xx_HAL_Driver/Src/stm32f4xx_hal_i2s_ex.c ****           __HAL_I2S_CLEAR_OVRFLAG(hi2s);
 393:Drivers/STM32F4xx_HAL_Driver/Src/stm32f4xx_hal_i2s_ex.c **** 
 394:Drivers/STM32F4xx_HAL_Driver/Src/stm32f4xx_hal_i2s_ex.c ****           /* Set the error code */
 395:Drivers/STM32F4xx_HAL_Driver/Src/stm32f4xx_hal_i2s_ex.c ****           SET_BIT(hi2s->ErrorCode, HAL_I2S_ERROR_OVR);
 396:Drivers/STM32F4xx_HAL_Driver/Src/stm32f4xx_hal_i2s_ex.c ****         }
 397:Drivers/STM32F4xx_HAL_Driver/Src/stm32f4xx_hal_i2s_ex.c ****       }
 398:Drivers/STM32F4xx_HAL_Driver/Src/stm32f4xx_hal_i2s_ex.c ****     }
 399:Drivers/STM32F4xx_HAL_Driver/Src/stm32f4xx_hal_i2s_ex.c ****   }
 400:Drivers/STM32F4xx_HAL_Driver/Src/stm32f4xx_hal_i2s_ex.c **** 
 401:Drivers/STM32F4xx_HAL_Driver/Src/stm32f4xx_hal_i2s_ex.c ****   if (hi2s->ErrorCode != HAL_I2S_ERROR_NONE)
 402:Drivers/STM32F4xx_HAL_Driver/Src/stm32f4xx_hal_i2s_ex.c ****   {
 403:Drivers/STM32F4xx_HAL_Driver/Src/stm32f4xx_hal_i2s_ex.c ****     errorcode = HAL_ERROR;
 404:Drivers/STM32F4xx_HAL_Driver/Src/stm32f4xx_hal_i2s_ex.c ****   }
 405:Drivers/STM32F4xx_HAL_Driver/Src/stm32f4xx_hal_i2s_ex.c **** 
 406:Drivers/STM32F4xx_HAL_Driver/Src/stm32f4xx_hal_i2s_ex.c **** error :
 407:Drivers/STM32F4xx_HAL_Driver/Src/stm32f4xx_hal_i2s_ex.c ****   hi2s->State = HAL_I2S_STATE_READY;
 408:Drivers/STM32F4xx_HAL_Driver/Src/stm32f4xx_hal_i2s_ex.c ****   __HAL_UNLOCK(hi2s);
 409:Drivers/STM32F4xx_HAL_Driver/Src/stm32f4xx_hal_i2s_ex.c ****   return errorcode;
 410:Drivers/STM32F4xx_HAL_Driver/Src/stm32f4xx_hal_i2s_ex.c **** }
 411:Drivers/STM32F4xx_HAL_Driver/Src/stm32f4xx_hal_i2s_ex.c **** 
 412:Drivers/STM32F4xx_HAL_Driver/Src/stm32f4xx_hal_i2s_ex.c **** /**
 413:Drivers/STM32F4xx_HAL_Driver/Src/stm32f4xx_hal_i2s_ex.c ****   * @brief  Full-Duplex Transmit/Receive data in non-blocking mode using Interrupt
 414:Drivers/STM32F4xx_HAL_Driver/Src/stm32f4xx_hal_i2s_ex.c ****   * @param  hi2s pointer to a I2S_HandleTypeDef structure that contains
 415:Drivers/STM32F4xx_HAL_Driver/Src/stm32f4xx_hal_i2s_ex.c ****   *         the configuration information for I2S module
 416:Drivers/STM32F4xx_HAL_Driver/Src/stm32f4xx_hal_i2s_ex.c ****   * @param  pTxData a 16-bit pointer to the Transmit data buffer.
 417:Drivers/STM32F4xx_HAL_Driver/Src/stm32f4xx_hal_i2s_ex.c ****   * @param  pRxData a 16-bit pointer to the Receive data buffer.
 418:Drivers/STM32F4xx_HAL_Driver/Src/stm32f4xx_hal_i2s_ex.c ****   * @param  Size number of data sample to be sent:
 419:Drivers/STM32F4xx_HAL_Driver/Src/stm32f4xx_hal_i2s_ex.c ****   * @note   When a 16-bit data frame or a 16-bit data frame extended is selected during the I2S
 420:Drivers/STM32F4xx_HAL_Driver/Src/stm32f4xx_hal_i2s_ex.c ****   *         configuration phase, the Size parameter means the number of 16-bit data length
 421:Drivers/STM32F4xx_HAL_Driver/Src/stm32f4xx_hal_i2s_ex.c ****   *         in the transaction and when a 24-bit data frame or a 32-bit data frame is selected
 422:Drivers/STM32F4xx_HAL_Driver/Src/stm32f4xx_hal_i2s_ex.c ****   *         the Size parameter means the number of 16-bit data length.
 423:Drivers/STM32F4xx_HAL_Driver/Src/stm32f4xx_hal_i2s_ex.c ****   * @note   The I2S is kept enabled at the end of transaction to avoid the clock de-synchronization
 424:Drivers/STM32F4xx_HAL_Driver/Src/stm32f4xx_hal_i2s_ex.c ****   *         between Master and Slave(example: audio streaming).
 425:Drivers/STM32F4xx_HAL_Driver/Src/stm32f4xx_hal_i2s_ex.c ****   * @retval HAL status
 426:Drivers/STM32F4xx_HAL_Driver/Src/stm32f4xx_hal_i2s_ex.c ****   */
 427:Drivers/STM32F4xx_HAL_Driver/Src/stm32f4xx_hal_i2s_ex.c **** HAL_StatusTypeDef HAL_I2SEx_TransmitReceive_IT(I2S_HandleTypeDef *hi2s,
 428:Drivers/STM32F4xx_HAL_Driver/Src/stm32f4xx_hal_i2s_ex.c ****                                                uint16_t *pTxData,
 429:Drivers/STM32F4xx_HAL_Driver/Src/stm32f4xx_hal_i2s_ex.c ****                                                uint16_t *pRxData,
ARM GAS  C:\Users\jonas\AppData\Local\Temp\ccyC9VxG.s 			page 9


 430:Drivers/STM32F4xx_HAL_Driver/Src/stm32f4xx_hal_i2s_ex.c ****                                                uint16_t Size)
 431:Drivers/STM32F4xx_HAL_Driver/Src/stm32f4xx_hal_i2s_ex.c **** {
 432:Drivers/STM32F4xx_HAL_Driver/Src/stm32f4xx_hal_i2s_ex.c ****   uint32_t tmp1 = 0U;
 433:Drivers/STM32F4xx_HAL_Driver/Src/stm32f4xx_hal_i2s_ex.c ****   HAL_StatusTypeDef errorcode = HAL_OK;
 434:Drivers/STM32F4xx_HAL_Driver/Src/stm32f4xx_hal_i2s_ex.c **** 
 435:Drivers/STM32F4xx_HAL_Driver/Src/stm32f4xx_hal_i2s_ex.c ****   if (hi2s->State != HAL_I2S_STATE_READY)
 436:Drivers/STM32F4xx_HAL_Driver/Src/stm32f4xx_hal_i2s_ex.c ****   {
 437:Drivers/STM32F4xx_HAL_Driver/Src/stm32f4xx_hal_i2s_ex.c ****     errorcode = HAL_BUSY;
 438:Drivers/STM32F4xx_HAL_Driver/Src/stm32f4xx_hal_i2s_ex.c ****     goto error;
 439:Drivers/STM32F4xx_HAL_Driver/Src/stm32f4xx_hal_i2s_ex.c ****   }
 440:Drivers/STM32F4xx_HAL_Driver/Src/stm32f4xx_hal_i2s_ex.c **** 
 441:Drivers/STM32F4xx_HAL_Driver/Src/stm32f4xx_hal_i2s_ex.c ****   if ((pTxData == NULL) || (pRxData == NULL) || (Size == 0U))
 442:Drivers/STM32F4xx_HAL_Driver/Src/stm32f4xx_hal_i2s_ex.c ****   {
 443:Drivers/STM32F4xx_HAL_Driver/Src/stm32f4xx_hal_i2s_ex.c ****     return  HAL_ERROR;
 444:Drivers/STM32F4xx_HAL_Driver/Src/stm32f4xx_hal_i2s_ex.c ****   }
 445:Drivers/STM32F4xx_HAL_Driver/Src/stm32f4xx_hal_i2s_ex.c **** 
 446:Drivers/STM32F4xx_HAL_Driver/Src/stm32f4xx_hal_i2s_ex.c ****   /* Process Locked */
 447:Drivers/STM32F4xx_HAL_Driver/Src/stm32f4xx_hal_i2s_ex.c ****   __HAL_LOCK(hi2s);
 448:Drivers/STM32F4xx_HAL_Driver/Src/stm32f4xx_hal_i2s_ex.c **** 
 449:Drivers/STM32F4xx_HAL_Driver/Src/stm32f4xx_hal_i2s_ex.c ****   hi2s->pTxBuffPtr = pTxData;
 450:Drivers/STM32F4xx_HAL_Driver/Src/stm32f4xx_hal_i2s_ex.c ****   hi2s->pRxBuffPtr = pRxData;
 451:Drivers/STM32F4xx_HAL_Driver/Src/stm32f4xx_hal_i2s_ex.c **** 
 452:Drivers/STM32F4xx_HAL_Driver/Src/stm32f4xx_hal_i2s_ex.c ****   tmp1 = hi2s->Instance->I2SCFGR & (SPI_I2SCFGR_DATLEN | SPI_I2SCFGR_CHLEN);
 453:Drivers/STM32F4xx_HAL_Driver/Src/stm32f4xx_hal_i2s_ex.c ****   /* Check the Data format: When a 16-bit data frame or a 16-bit data frame extended
 454:Drivers/STM32F4xx_HAL_Driver/Src/stm32f4xx_hal_i2s_ex.c ****   is selected during the I2S configuration phase, the Size parameter means the number
 455:Drivers/STM32F4xx_HAL_Driver/Src/stm32f4xx_hal_i2s_ex.c ****   of 16-bit data length in the transaction and when a 24-bit data frame or a 32-bit data
 456:Drivers/STM32F4xx_HAL_Driver/Src/stm32f4xx_hal_i2s_ex.c ****   frame is selected the Size parameter means the number of 16-bit data length. */
 457:Drivers/STM32F4xx_HAL_Driver/Src/stm32f4xx_hal_i2s_ex.c ****   if ((tmp1 == I2S_DATAFORMAT_24B) || (tmp1 == I2S_DATAFORMAT_32B))
 458:Drivers/STM32F4xx_HAL_Driver/Src/stm32f4xx_hal_i2s_ex.c ****   {
 459:Drivers/STM32F4xx_HAL_Driver/Src/stm32f4xx_hal_i2s_ex.c ****     hi2s->TxXferSize  = (Size << 1U);
 460:Drivers/STM32F4xx_HAL_Driver/Src/stm32f4xx_hal_i2s_ex.c ****     hi2s->TxXferCount = (Size << 1U);
 461:Drivers/STM32F4xx_HAL_Driver/Src/stm32f4xx_hal_i2s_ex.c ****     hi2s->RxXferSize  = (Size << 1U);
 462:Drivers/STM32F4xx_HAL_Driver/Src/stm32f4xx_hal_i2s_ex.c ****     hi2s->RxXferCount = (Size << 1U);
 463:Drivers/STM32F4xx_HAL_Driver/Src/stm32f4xx_hal_i2s_ex.c ****   }
 464:Drivers/STM32F4xx_HAL_Driver/Src/stm32f4xx_hal_i2s_ex.c ****   else
 465:Drivers/STM32F4xx_HAL_Driver/Src/stm32f4xx_hal_i2s_ex.c ****   {
 466:Drivers/STM32F4xx_HAL_Driver/Src/stm32f4xx_hal_i2s_ex.c ****     hi2s->TxXferSize  = Size;
 467:Drivers/STM32F4xx_HAL_Driver/Src/stm32f4xx_hal_i2s_ex.c ****     hi2s->TxXferCount = Size;
 468:Drivers/STM32F4xx_HAL_Driver/Src/stm32f4xx_hal_i2s_ex.c ****     hi2s->RxXferSize  = Size;
 469:Drivers/STM32F4xx_HAL_Driver/Src/stm32f4xx_hal_i2s_ex.c ****     hi2s->RxXferCount = Size;
 470:Drivers/STM32F4xx_HAL_Driver/Src/stm32f4xx_hal_i2s_ex.c ****   }
 471:Drivers/STM32F4xx_HAL_Driver/Src/stm32f4xx_hal_i2s_ex.c **** 
 472:Drivers/STM32F4xx_HAL_Driver/Src/stm32f4xx_hal_i2s_ex.c ****   hi2s->ErrorCode = HAL_I2S_ERROR_NONE;
 473:Drivers/STM32F4xx_HAL_Driver/Src/stm32f4xx_hal_i2s_ex.c ****   hi2s->State     = HAL_I2S_STATE_BUSY_TX_RX;
 474:Drivers/STM32F4xx_HAL_Driver/Src/stm32f4xx_hal_i2s_ex.c **** 
 475:Drivers/STM32F4xx_HAL_Driver/Src/stm32f4xx_hal_i2s_ex.c ****   /* Set the function for IT treatment */
 476:Drivers/STM32F4xx_HAL_Driver/Src/stm32f4xx_hal_i2s_ex.c ****   if ((hi2s->Init.Mode == I2S_MODE_MASTER_TX) || (hi2s->Init.Mode == I2S_MODE_SLAVE_TX))
 477:Drivers/STM32F4xx_HAL_Driver/Src/stm32f4xx_hal_i2s_ex.c ****   {
 478:Drivers/STM32F4xx_HAL_Driver/Src/stm32f4xx_hal_i2s_ex.c ****     /* Enable I2Sext RXNE and ERR interrupts */
 479:Drivers/STM32F4xx_HAL_Driver/Src/stm32f4xx_hal_i2s_ex.c ****     __HAL_I2SEXT_ENABLE_IT(hi2s, (I2S_IT_RXNE | I2S_IT_ERR));
 480:Drivers/STM32F4xx_HAL_Driver/Src/stm32f4xx_hal_i2s_ex.c **** 
 481:Drivers/STM32F4xx_HAL_Driver/Src/stm32f4xx_hal_i2s_ex.c ****     /* Enable I2Sx TXE and ERR interrupts */
 482:Drivers/STM32F4xx_HAL_Driver/Src/stm32f4xx_hal_i2s_ex.c ****     __HAL_I2S_ENABLE_IT(hi2s, (I2S_IT_TXE | I2S_IT_ERR));
 483:Drivers/STM32F4xx_HAL_Driver/Src/stm32f4xx_hal_i2s_ex.c **** 
 484:Drivers/STM32F4xx_HAL_Driver/Src/stm32f4xx_hal_i2s_ex.c ****     /* Transmit First data */
 485:Drivers/STM32F4xx_HAL_Driver/Src/stm32f4xx_hal_i2s_ex.c ****     hi2s->Instance->DR = (*hi2s->pTxBuffPtr++);
 486:Drivers/STM32F4xx_HAL_Driver/Src/stm32f4xx_hal_i2s_ex.c ****     hi2s->TxXferCount--;
ARM GAS  C:\Users\jonas\AppData\Local\Temp\ccyC9VxG.s 			page 10


 487:Drivers/STM32F4xx_HAL_Driver/Src/stm32f4xx_hal_i2s_ex.c **** 
 488:Drivers/STM32F4xx_HAL_Driver/Src/stm32f4xx_hal_i2s_ex.c ****     if (hi2s->TxXferCount == 0U)
 489:Drivers/STM32F4xx_HAL_Driver/Src/stm32f4xx_hal_i2s_ex.c ****     {
 490:Drivers/STM32F4xx_HAL_Driver/Src/stm32f4xx_hal_i2s_ex.c ****       /* Disable TXE and ERR interrupt */
 491:Drivers/STM32F4xx_HAL_Driver/Src/stm32f4xx_hal_i2s_ex.c ****       __HAL_I2S_DISABLE_IT(hi2s, (I2S_IT_TXE | I2S_IT_ERR));
 492:Drivers/STM32F4xx_HAL_Driver/Src/stm32f4xx_hal_i2s_ex.c ****     }
 493:Drivers/STM32F4xx_HAL_Driver/Src/stm32f4xx_hal_i2s_ex.c ****   }
 494:Drivers/STM32F4xx_HAL_Driver/Src/stm32f4xx_hal_i2s_ex.c ****   else  /* The I2S_MODE_MASTER_RX or I2S_MODE_SLAVE_RX Mode is selected */
 495:Drivers/STM32F4xx_HAL_Driver/Src/stm32f4xx_hal_i2s_ex.c ****   {
 496:Drivers/STM32F4xx_HAL_Driver/Src/stm32f4xx_hal_i2s_ex.c ****     /* Enable I2Sext TXE and ERR interrupts */
 497:Drivers/STM32F4xx_HAL_Driver/Src/stm32f4xx_hal_i2s_ex.c ****     __HAL_I2SEXT_ENABLE_IT(hi2s, (I2S_IT_TXE | I2S_IT_ERR));
 498:Drivers/STM32F4xx_HAL_Driver/Src/stm32f4xx_hal_i2s_ex.c **** 
 499:Drivers/STM32F4xx_HAL_Driver/Src/stm32f4xx_hal_i2s_ex.c ****     /* Enable I2Sext RXNE and ERR interrupts */
 500:Drivers/STM32F4xx_HAL_Driver/Src/stm32f4xx_hal_i2s_ex.c ****     __HAL_I2S_ENABLE_IT(hi2s, (I2S_IT_RXNE | I2S_IT_ERR));
 501:Drivers/STM32F4xx_HAL_Driver/Src/stm32f4xx_hal_i2s_ex.c **** 
 502:Drivers/STM32F4xx_HAL_Driver/Src/stm32f4xx_hal_i2s_ex.c ****     /* Transmit First data */
 503:Drivers/STM32F4xx_HAL_Driver/Src/stm32f4xx_hal_i2s_ex.c ****     I2SxEXT(hi2s->Instance)->DR = (*hi2s->pTxBuffPtr++);
 504:Drivers/STM32F4xx_HAL_Driver/Src/stm32f4xx_hal_i2s_ex.c ****     hi2s->TxXferCount--;
 505:Drivers/STM32F4xx_HAL_Driver/Src/stm32f4xx_hal_i2s_ex.c **** 
 506:Drivers/STM32F4xx_HAL_Driver/Src/stm32f4xx_hal_i2s_ex.c ****     if (hi2s->TxXferCount == 0U)
 507:Drivers/STM32F4xx_HAL_Driver/Src/stm32f4xx_hal_i2s_ex.c ****     {
 508:Drivers/STM32F4xx_HAL_Driver/Src/stm32f4xx_hal_i2s_ex.c ****       /* Disable I2Sext TXE and ERR interrupt */
 509:Drivers/STM32F4xx_HAL_Driver/Src/stm32f4xx_hal_i2s_ex.c ****       __HAL_I2SEXT_DISABLE_IT(hi2s, (I2S_IT_TXE | I2S_IT_ERR));
 510:Drivers/STM32F4xx_HAL_Driver/Src/stm32f4xx_hal_i2s_ex.c ****     }
 511:Drivers/STM32F4xx_HAL_Driver/Src/stm32f4xx_hal_i2s_ex.c ****   }
 512:Drivers/STM32F4xx_HAL_Driver/Src/stm32f4xx_hal_i2s_ex.c **** 
 513:Drivers/STM32F4xx_HAL_Driver/Src/stm32f4xx_hal_i2s_ex.c ****   /* Enable I2Sext peripheral */
 514:Drivers/STM32F4xx_HAL_Driver/Src/stm32f4xx_hal_i2s_ex.c ****   __HAL_I2SEXT_ENABLE(hi2s);
 515:Drivers/STM32F4xx_HAL_Driver/Src/stm32f4xx_hal_i2s_ex.c **** 
 516:Drivers/STM32F4xx_HAL_Driver/Src/stm32f4xx_hal_i2s_ex.c ****   /* Enable I2S peripheral */
 517:Drivers/STM32F4xx_HAL_Driver/Src/stm32f4xx_hal_i2s_ex.c ****   __HAL_I2S_ENABLE(hi2s);
 518:Drivers/STM32F4xx_HAL_Driver/Src/stm32f4xx_hal_i2s_ex.c **** 
 519:Drivers/STM32F4xx_HAL_Driver/Src/stm32f4xx_hal_i2s_ex.c **** error :
 520:Drivers/STM32F4xx_HAL_Driver/Src/stm32f4xx_hal_i2s_ex.c ****   __HAL_UNLOCK(hi2s);
 521:Drivers/STM32F4xx_HAL_Driver/Src/stm32f4xx_hal_i2s_ex.c ****   return errorcode;
 522:Drivers/STM32F4xx_HAL_Driver/Src/stm32f4xx_hal_i2s_ex.c **** }
 523:Drivers/STM32F4xx_HAL_Driver/Src/stm32f4xx_hal_i2s_ex.c **** 
 524:Drivers/STM32F4xx_HAL_Driver/Src/stm32f4xx_hal_i2s_ex.c **** /**
 525:Drivers/STM32F4xx_HAL_Driver/Src/stm32f4xx_hal_i2s_ex.c ****   * @brief  Full-Duplex Transmit/Receive data in non-blocking mode using DMA
 526:Drivers/STM32F4xx_HAL_Driver/Src/stm32f4xx_hal_i2s_ex.c ****   * @param  hi2s pointer to a I2S_HandleTypeDef structure that contains
 527:Drivers/STM32F4xx_HAL_Driver/Src/stm32f4xx_hal_i2s_ex.c ****   *         the configuration information for I2S module
 528:Drivers/STM32F4xx_HAL_Driver/Src/stm32f4xx_hal_i2s_ex.c ****   * @param  pTxData a 16-bit pointer to the Transmit data buffer.
 529:Drivers/STM32F4xx_HAL_Driver/Src/stm32f4xx_hal_i2s_ex.c ****   * @param  pRxData a 16-bit pointer to the Receive data buffer.
 530:Drivers/STM32F4xx_HAL_Driver/Src/stm32f4xx_hal_i2s_ex.c ****   * @param  Size number of data sample to be sent:
 531:Drivers/STM32F4xx_HAL_Driver/Src/stm32f4xx_hal_i2s_ex.c ****   * @note   When a 16-bit data frame or a 16-bit data frame extended is selected during the I2S
 532:Drivers/STM32F4xx_HAL_Driver/Src/stm32f4xx_hal_i2s_ex.c ****   *         configuration phase, the Size parameter means the number of 16-bit data length
 533:Drivers/STM32F4xx_HAL_Driver/Src/stm32f4xx_hal_i2s_ex.c ****   *         in the transaction and when a 24-bit data frame or a 32-bit data frame is selected
 534:Drivers/STM32F4xx_HAL_Driver/Src/stm32f4xx_hal_i2s_ex.c ****   *         the Size parameter means the number of 16-bit data length.
 535:Drivers/STM32F4xx_HAL_Driver/Src/stm32f4xx_hal_i2s_ex.c ****   * @note   The I2S is kept enabled at the end of transaction to avoid the clock de-synchronization
 536:Drivers/STM32F4xx_HAL_Driver/Src/stm32f4xx_hal_i2s_ex.c ****   *         between Master and Slave(example: audio streaming).
 537:Drivers/STM32F4xx_HAL_Driver/Src/stm32f4xx_hal_i2s_ex.c ****   * @retval HAL status
 538:Drivers/STM32F4xx_HAL_Driver/Src/stm32f4xx_hal_i2s_ex.c ****   */
 539:Drivers/STM32F4xx_HAL_Driver/Src/stm32f4xx_hal_i2s_ex.c **** HAL_StatusTypeDef HAL_I2SEx_TransmitReceive_DMA(I2S_HandleTypeDef *hi2s,
 540:Drivers/STM32F4xx_HAL_Driver/Src/stm32f4xx_hal_i2s_ex.c ****                                                 uint16_t *pTxData,
 541:Drivers/STM32F4xx_HAL_Driver/Src/stm32f4xx_hal_i2s_ex.c ****                                                 uint16_t *pRxData,
 542:Drivers/STM32F4xx_HAL_Driver/Src/stm32f4xx_hal_i2s_ex.c ****                                                 uint16_t Size)
 543:Drivers/STM32F4xx_HAL_Driver/Src/stm32f4xx_hal_i2s_ex.c **** {
ARM GAS  C:\Users\jonas\AppData\Local\Temp\ccyC9VxG.s 			page 11


 544:Drivers/STM32F4xx_HAL_Driver/Src/stm32f4xx_hal_i2s_ex.c ****   uint32_t *tmp = NULL;
 545:Drivers/STM32F4xx_HAL_Driver/Src/stm32f4xx_hal_i2s_ex.c ****   uint32_t tmp1 = 0U;
 546:Drivers/STM32F4xx_HAL_Driver/Src/stm32f4xx_hal_i2s_ex.c ****   HAL_StatusTypeDef errorcode = HAL_OK;
 547:Drivers/STM32F4xx_HAL_Driver/Src/stm32f4xx_hal_i2s_ex.c **** 
 548:Drivers/STM32F4xx_HAL_Driver/Src/stm32f4xx_hal_i2s_ex.c ****   if (hi2s->State != HAL_I2S_STATE_READY)
 549:Drivers/STM32F4xx_HAL_Driver/Src/stm32f4xx_hal_i2s_ex.c ****   {
 550:Drivers/STM32F4xx_HAL_Driver/Src/stm32f4xx_hal_i2s_ex.c ****     errorcode = HAL_BUSY;
 551:Drivers/STM32F4xx_HAL_Driver/Src/stm32f4xx_hal_i2s_ex.c ****     goto error;
 552:Drivers/STM32F4xx_HAL_Driver/Src/stm32f4xx_hal_i2s_ex.c ****   }
 553:Drivers/STM32F4xx_HAL_Driver/Src/stm32f4xx_hal_i2s_ex.c **** 
 554:Drivers/STM32F4xx_HAL_Driver/Src/stm32f4xx_hal_i2s_ex.c ****   if ((pTxData == NULL) || (pRxData == NULL) || (Size == 0U))
 555:Drivers/STM32F4xx_HAL_Driver/Src/stm32f4xx_hal_i2s_ex.c ****   {
 556:Drivers/STM32F4xx_HAL_Driver/Src/stm32f4xx_hal_i2s_ex.c ****     return  HAL_ERROR;
 557:Drivers/STM32F4xx_HAL_Driver/Src/stm32f4xx_hal_i2s_ex.c ****   }
 558:Drivers/STM32F4xx_HAL_Driver/Src/stm32f4xx_hal_i2s_ex.c **** 
 559:Drivers/STM32F4xx_HAL_Driver/Src/stm32f4xx_hal_i2s_ex.c ****   /* Process Locked */
 560:Drivers/STM32F4xx_HAL_Driver/Src/stm32f4xx_hal_i2s_ex.c ****   __HAL_LOCK(hi2s);
 561:Drivers/STM32F4xx_HAL_Driver/Src/stm32f4xx_hal_i2s_ex.c **** 
 562:Drivers/STM32F4xx_HAL_Driver/Src/stm32f4xx_hal_i2s_ex.c ****   hi2s->pTxBuffPtr = pTxData;
 563:Drivers/STM32F4xx_HAL_Driver/Src/stm32f4xx_hal_i2s_ex.c ****   hi2s->pRxBuffPtr = pRxData;
 564:Drivers/STM32F4xx_HAL_Driver/Src/stm32f4xx_hal_i2s_ex.c **** 
 565:Drivers/STM32F4xx_HAL_Driver/Src/stm32f4xx_hal_i2s_ex.c ****   tmp1 = hi2s->Instance->I2SCFGR & (SPI_I2SCFGR_DATLEN | SPI_I2SCFGR_CHLEN);
 566:Drivers/STM32F4xx_HAL_Driver/Src/stm32f4xx_hal_i2s_ex.c ****   /* Check the Data format: When a 16-bit data frame or a 16-bit data frame extended
 567:Drivers/STM32F4xx_HAL_Driver/Src/stm32f4xx_hal_i2s_ex.c ****   is selected during the I2S configuration phase, the Size parameter means the number
 568:Drivers/STM32F4xx_HAL_Driver/Src/stm32f4xx_hal_i2s_ex.c ****   of 16-bit data length in the transaction and when a 24-bit data frame or a 32-bit data
 569:Drivers/STM32F4xx_HAL_Driver/Src/stm32f4xx_hal_i2s_ex.c ****   frame is selected the Size parameter means the number of 16-bit data length. */
 570:Drivers/STM32F4xx_HAL_Driver/Src/stm32f4xx_hal_i2s_ex.c ****   if ((tmp1 == I2S_DATAFORMAT_24B) || (tmp1 == I2S_DATAFORMAT_32B))
 571:Drivers/STM32F4xx_HAL_Driver/Src/stm32f4xx_hal_i2s_ex.c ****   {
 572:Drivers/STM32F4xx_HAL_Driver/Src/stm32f4xx_hal_i2s_ex.c ****     hi2s->TxXferSize  = (Size << 1U);
 573:Drivers/STM32F4xx_HAL_Driver/Src/stm32f4xx_hal_i2s_ex.c ****     hi2s->TxXferCount = (Size << 1U);
 574:Drivers/STM32F4xx_HAL_Driver/Src/stm32f4xx_hal_i2s_ex.c ****     hi2s->RxXferSize  = (Size << 1U);
 575:Drivers/STM32F4xx_HAL_Driver/Src/stm32f4xx_hal_i2s_ex.c ****     hi2s->RxXferCount = (Size << 1U);
 576:Drivers/STM32F4xx_HAL_Driver/Src/stm32f4xx_hal_i2s_ex.c ****   }
 577:Drivers/STM32F4xx_HAL_Driver/Src/stm32f4xx_hal_i2s_ex.c ****   else
 578:Drivers/STM32F4xx_HAL_Driver/Src/stm32f4xx_hal_i2s_ex.c ****   {
 579:Drivers/STM32F4xx_HAL_Driver/Src/stm32f4xx_hal_i2s_ex.c ****     hi2s->TxXferSize  = Size;
 580:Drivers/STM32F4xx_HAL_Driver/Src/stm32f4xx_hal_i2s_ex.c ****     hi2s->TxXferCount = Size;
 581:Drivers/STM32F4xx_HAL_Driver/Src/stm32f4xx_hal_i2s_ex.c ****     hi2s->RxXferSize  = Size;
 582:Drivers/STM32F4xx_HAL_Driver/Src/stm32f4xx_hal_i2s_ex.c ****     hi2s->RxXferCount = Size;
 583:Drivers/STM32F4xx_HAL_Driver/Src/stm32f4xx_hal_i2s_ex.c ****   }
 584:Drivers/STM32F4xx_HAL_Driver/Src/stm32f4xx_hal_i2s_ex.c **** 
 585:Drivers/STM32F4xx_HAL_Driver/Src/stm32f4xx_hal_i2s_ex.c ****   hi2s->ErrorCode = HAL_I2S_ERROR_NONE;
 586:Drivers/STM32F4xx_HAL_Driver/Src/stm32f4xx_hal_i2s_ex.c ****   hi2s->State     = HAL_I2S_STATE_BUSY_TX_RX;
 587:Drivers/STM32F4xx_HAL_Driver/Src/stm32f4xx_hal_i2s_ex.c **** 
 588:Drivers/STM32F4xx_HAL_Driver/Src/stm32f4xx_hal_i2s_ex.c ****   /* Set the I2S Rx DMA Half transfer complete callback */
 589:Drivers/STM32F4xx_HAL_Driver/Src/stm32f4xx_hal_i2s_ex.c ****   hi2s->hdmarx->XferHalfCpltCallback = I2SEx_TxRxDMAHalfCplt;
 590:Drivers/STM32F4xx_HAL_Driver/Src/stm32f4xx_hal_i2s_ex.c **** 
 591:Drivers/STM32F4xx_HAL_Driver/Src/stm32f4xx_hal_i2s_ex.c ****   /* Set the I2S Rx DMA transfer complete callback */
 592:Drivers/STM32F4xx_HAL_Driver/Src/stm32f4xx_hal_i2s_ex.c ****   hi2s->hdmarx->XferCpltCallback  = I2SEx_TxRxDMACplt;
 593:Drivers/STM32F4xx_HAL_Driver/Src/stm32f4xx_hal_i2s_ex.c **** 
 594:Drivers/STM32F4xx_HAL_Driver/Src/stm32f4xx_hal_i2s_ex.c ****   /* Set the I2S Rx DMA error callback */
 595:Drivers/STM32F4xx_HAL_Driver/Src/stm32f4xx_hal_i2s_ex.c ****   hi2s->hdmarx->XferErrorCallback = I2SEx_TxRxDMAError;
 596:Drivers/STM32F4xx_HAL_Driver/Src/stm32f4xx_hal_i2s_ex.c **** 
 597:Drivers/STM32F4xx_HAL_Driver/Src/stm32f4xx_hal_i2s_ex.c ****   /* Set the I2S Tx DMA Half transfer complete callback as NULL */
 598:Drivers/STM32F4xx_HAL_Driver/Src/stm32f4xx_hal_i2s_ex.c ****   hi2s->hdmatx->XferHalfCpltCallback  = NULL;
 599:Drivers/STM32F4xx_HAL_Driver/Src/stm32f4xx_hal_i2s_ex.c **** 
 600:Drivers/STM32F4xx_HAL_Driver/Src/stm32f4xx_hal_i2s_ex.c ****   /* Set the I2S Tx DMA transfer complete callback as NULL */
ARM GAS  C:\Users\jonas\AppData\Local\Temp\ccyC9VxG.s 			page 12


 601:Drivers/STM32F4xx_HAL_Driver/Src/stm32f4xx_hal_i2s_ex.c ****   hi2s->hdmatx->XferCpltCallback  = NULL;
 602:Drivers/STM32F4xx_HAL_Driver/Src/stm32f4xx_hal_i2s_ex.c **** 
 603:Drivers/STM32F4xx_HAL_Driver/Src/stm32f4xx_hal_i2s_ex.c ****   /* Set the I2S Tx DMA error callback */
 604:Drivers/STM32F4xx_HAL_Driver/Src/stm32f4xx_hal_i2s_ex.c ****   hi2s->hdmatx->XferErrorCallback = I2SEx_TxRxDMAError;
 605:Drivers/STM32F4xx_HAL_Driver/Src/stm32f4xx_hal_i2s_ex.c **** 
 606:Drivers/STM32F4xx_HAL_Driver/Src/stm32f4xx_hal_i2s_ex.c ****   tmp1 = hi2s->Instance->I2SCFGR & SPI_I2SCFGR_I2SCFG;
 607:Drivers/STM32F4xx_HAL_Driver/Src/stm32f4xx_hal_i2s_ex.c ****   /* Check if the I2S_MODE_MASTER_TX or I2S_MODE_SLAVE_TX Mode is selected */
 608:Drivers/STM32F4xx_HAL_Driver/Src/stm32f4xx_hal_i2s_ex.c ****   if ((tmp1 == I2S_MODE_MASTER_TX) || (tmp1 == I2S_MODE_SLAVE_TX))
 609:Drivers/STM32F4xx_HAL_Driver/Src/stm32f4xx_hal_i2s_ex.c ****   {
 610:Drivers/STM32F4xx_HAL_Driver/Src/stm32f4xx_hal_i2s_ex.c ****     /* Enable the Rx DMA Stream */
 611:Drivers/STM32F4xx_HAL_Driver/Src/stm32f4xx_hal_i2s_ex.c ****     tmp = (uint32_t *)&pRxData;
 612:Drivers/STM32F4xx_HAL_Driver/Src/stm32f4xx_hal_i2s_ex.c ****     HAL_DMA_Start_IT(hi2s->hdmarx, (uint32_t)&I2SxEXT(hi2s->Instance)->DR, *(uint32_t *)tmp, hi2s->
 613:Drivers/STM32F4xx_HAL_Driver/Src/stm32f4xx_hal_i2s_ex.c **** 
 614:Drivers/STM32F4xx_HAL_Driver/Src/stm32f4xx_hal_i2s_ex.c ****     /* Enable Rx DMA Request */
 615:Drivers/STM32F4xx_HAL_Driver/Src/stm32f4xx_hal_i2s_ex.c ****     SET_BIT(I2SxEXT(hi2s->Instance)->CR2, SPI_CR2_RXDMAEN);
 616:Drivers/STM32F4xx_HAL_Driver/Src/stm32f4xx_hal_i2s_ex.c **** 
 617:Drivers/STM32F4xx_HAL_Driver/Src/stm32f4xx_hal_i2s_ex.c ****     /* Enable the Tx DMA Stream */
 618:Drivers/STM32F4xx_HAL_Driver/Src/stm32f4xx_hal_i2s_ex.c ****     tmp = (uint32_t *)&pTxData;
 619:Drivers/STM32F4xx_HAL_Driver/Src/stm32f4xx_hal_i2s_ex.c ****     HAL_DMA_Start_IT(hi2s->hdmatx, *(uint32_t *)tmp, (uint32_t)&hi2s->Instance->DR, hi2s->TxXferSiz
 620:Drivers/STM32F4xx_HAL_Driver/Src/stm32f4xx_hal_i2s_ex.c **** 
 621:Drivers/STM32F4xx_HAL_Driver/Src/stm32f4xx_hal_i2s_ex.c ****     /* Enable Tx DMA Request */
 622:Drivers/STM32F4xx_HAL_Driver/Src/stm32f4xx_hal_i2s_ex.c ****     SET_BIT(hi2s->Instance->CR2, SPI_CR2_TXDMAEN);
 623:Drivers/STM32F4xx_HAL_Driver/Src/stm32f4xx_hal_i2s_ex.c **** 
 624:Drivers/STM32F4xx_HAL_Driver/Src/stm32f4xx_hal_i2s_ex.c ****     /* Check if the I2S is already enabled */
 625:Drivers/STM32F4xx_HAL_Driver/Src/stm32f4xx_hal_i2s_ex.c ****     if ((hi2s->Instance->I2SCFGR & SPI_I2SCFGR_I2SE) != SPI_I2SCFGR_I2SE)
 626:Drivers/STM32F4xx_HAL_Driver/Src/stm32f4xx_hal_i2s_ex.c ****     {
 627:Drivers/STM32F4xx_HAL_Driver/Src/stm32f4xx_hal_i2s_ex.c ****       /* Enable I2Sext(receiver) before enabling I2Sx peripheral */
 628:Drivers/STM32F4xx_HAL_Driver/Src/stm32f4xx_hal_i2s_ex.c ****       __HAL_I2SEXT_ENABLE(hi2s);
 629:Drivers/STM32F4xx_HAL_Driver/Src/stm32f4xx_hal_i2s_ex.c **** 
 630:Drivers/STM32F4xx_HAL_Driver/Src/stm32f4xx_hal_i2s_ex.c ****       /* Enable I2S peripheral after the I2Sext */
 631:Drivers/STM32F4xx_HAL_Driver/Src/stm32f4xx_hal_i2s_ex.c ****       __HAL_I2S_ENABLE(hi2s);
 632:Drivers/STM32F4xx_HAL_Driver/Src/stm32f4xx_hal_i2s_ex.c ****     }
 633:Drivers/STM32F4xx_HAL_Driver/Src/stm32f4xx_hal_i2s_ex.c ****   }
 634:Drivers/STM32F4xx_HAL_Driver/Src/stm32f4xx_hal_i2s_ex.c ****   else
 635:Drivers/STM32F4xx_HAL_Driver/Src/stm32f4xx_hal_i2s_ex.c ****   {
 636:Drivers/STM32F4xx_HAL_Driver/Src/stm32f4xx_hal_i2s_ex.c ****     /* Check if Master Receiver mode is selected */
 637:Drivers/STM32F4xx_HAL_Driver/Src/stm32f4xx_hal_i2s_ex.c ****     if ((hi2s->Instance->I2SCFGR & SPI_I2SCFGR_I2SCFG) == I2S_MODE_MASTER_RX)
 638:Drivers/STM32F4xx_HAL_Driver/Src/stm32f4xx_hal_i2s_ex.c ****     {
 639:Drivers/STM32F4xx_HAL_Driver/Src/stm32f4xx_hal_i2s_ex.c ****       /* Clear the Overrun Flag by a read operation on the SPI_DR register followed by a read
 640:Drivers/STM32F4xx_HAL_Driver/Src/stm32f4xx_hal_i2s_ex.c ****       access to the SPI_SR register. */
 641:Drivers/STM32F4xx_HAL_Driver/Src/stm32f4xx_hal_i2s_ex.c ****       __HAL_I2S_CLEAR_OVRFLAG(hi2s);
 642:Drivers/STM32F4xx_HAL_Driver/Src/stm32f4xx_hal_i2s_ex.c ****     }
 643:Drivers/STM32F4xx_HAL_Driver/Src/stm32f4xx_hal_i2s_ex.c ****     /* Enable the Tx DMA Stream */
 644:Drivers/STM32F4xx_HAL_Driver/Src/stm32f4xx_hal_i2s_ex.c ****     tmp = (uint32_t *)&pTxData;
 645:Drivers/STM32F4xx_HAL_Driver/Src/stm32f4xx_hal_i2s_ex.c ****     HAL_DMA_Start_IT(hi2s->hdmatx, *(uint32_t *)tmp, (uint32_t)&I2SxEXT(hi2s->Instance)->DR, hi2s->
 646:Drivers/STM32F4xx_HAL_Driver/Src/stm32f4xx_hal_i2s_ex.c **** 
 647:Drivers/STM32F4xx_HAL_Driver/Src/stm32f4xx_hal_i2s_ex.c ****     /* Enable Tx DMA Request */
 648:Drivers/STM32F4xx_HAL_Driver/Src/stm32f4xx_hal_i2s_ex.c ****     SET_BIT(I2SxEXT(hi2s->Instance)->CR2, SPI_CR2_TXDMAEN);
 649:Drivers/STM32F4xx_HAL_Driver/Src/stm32f4xx_hal_i2s_ex.c **** 
 650:Drivers/STM32F4xx_HAL_Driver/Src/stm32f4xx_hal_i2s_ex.c ****     /* Enable the Rx DMA Stream */
 651:Drivers/STM32F4xx_HAL_Driver/Src/stm32f4xx_hal_i2s_ex.c ****     tmp = (uint32_t *)&pRxData;
 652:Drivers/STM32F4xx_HAL_Driver/Src/stm32f4xx_hal_i2s_ex.c ****     HAL_DMA_Start_IT(hi2s->hdmarx, (uint32_t)&hi2s->Instance->DR, *(uint32_t *)tmp, hi2s->RxXferSiz
 653:Drivers/STM32F4xx_HAL_Driver/Src/stm32f4xx_hal_i2s_ex.c **** 
 654:Drivers/STM32F4xx_HAL_Driver/Src/stm32f4xx_hal_i2s_ex.c ****     /* Enable Rx DMA Request */
 655:Drivers/STM32F4xx_HAL_Driver/Src/stm32f4xx_hal_i2s_ex.c ****     SET_BIT(hi2s->Instance->CR2, SPI_CR2_RXDMAEN);
 656:Drivers/STM32F4xx_HAL_Driver/Src/stm32f4xx_hal_i2s_ex.c **** 
 657:Drivers/STM32F4xx_HAL_Driver/Src/stm32f4xx_hal_i2s_ex.c ****     /* Check if the I2S is already enabled */
ARM GAS  C:\Users\jonas\AppData\Local\Temp\ccyC9VxG.s 			page 13


 658:Drivers/STM32F4xx_HAL_Driver/Src/stm32f4xx_hal_i2s_ex.c ****     if ((hi2s->Instance->I2SCFGR & SPI_I2SCFGR_I2SE) != SPI_I2SCFGR_I2SE)
 659:Drivers/STM32F4xx_HAL_Driver/Src/stm32f4xx_hal_i2s_ex.c ****     {
 660:Drivers/STM32F4xx_HAL_Driver/Src/stm32f4xx_hal_i2s_ex.c ****       /* Enable I2Sext(transmitter) before enabling I2Sx peripheral */
 661:Drivers/STM32F4xx_HAL_Driver/Src/stm32f4xx_hal_i2s_ex.c ****       __HAL_I2SEXT_ENABLE(hi2s);
 662:Drivers/STM32F4xx_HAL_Driver/Src/stm32f4xx_hal_i2s_ex.c ****       /* Enable I2S peripheral before the I2Sext */
 663:Drivers/STM32F4xx_HAL_Driver/Src/stm32f4xx_hal_i2s_ex.c ****       __HAL_I2S_ENABLE(hi2s);
 664:Drivers/STM32F4xx_HAL_Driver/Src/stm32f4xx_hal_i2s_ex.c ****     }
 665:Drivers/STM32F4xx_HAL_Driver/Src/stm32f4xx_hal_i2s_ex.c ****   }
 666:Drivers/STM32F4xx_HAL_Driver/Src/stm32f4xx_hal_i2s_ex.c **** 
 667:Drivers/STM32F4xx_HAL_Driver/Src/stm32f4xx_hal_i2s_ex.c **** error :
 668:Drivers/STM32F4xx_HAL_Driver/Src/stm32f4xx_hal_i2s_ex.c ****   __HAL_UNLOCK(hi2s);
 669:Drivers/STM32F4xx_HAL_Driver/Src/stm32f4xx_hal_i2s_ex.c ****   return errorcode;
 670:Drivers/STM32F4xx_HAL_Driver/Src/stm32f4xx_hal_i2s_ex.c **** }
 671:Drivers/STM32F4xx_HAL_Driver/Src/stm32f4xx_hal_i2s_ex.c **** 
 672:Drivers/STM32F4xx_HAL_Driver/Src/stm32f4xx_hal_i2s_ex.c **** /**
 673:Drivers/STM32F4xx_HAL_Driver/Src/stm32f4xx_hal_i2s_ex.c ****   * @brief  This function handles I2S/I2Sext interrupt requests in full-duplex mode.
 674:Drivers/STM32F4xx_HAL_Driver/Src/stm32f4xx_hal_i2s_ex.c ****   * @param  hi2s I2S handle
 675:Drivers/STM32F4xx_HAL_Driver/Src/stm32f4xx_hal_i2s_ex.c ****   * @retval HAL status
 676:Drivers/STM32F4xx_HAL_Driver/Src/stm32f4xx_hal_i2s_ex.c ****   */
 677:Drivers/STM32F4xx_HAL_Driver/Src/stm32f4xx_hal_i2s_ex.c **** void HAL_I2SEx_FullDuplex_IRQHandler(I2S_HandleTypeDef *hi2s)
 678:Drivers/STM32F4xx_HAL_Driver/Src/stm32f4xx_hal_i2s_ex.c **** {
 679:Drivers/STM32F4xx_HAL_Driver/Src/stm32f4xx_hal_i2s_ex.c ****   __IO uint32_t i2ssr     = hi2s->Instance->SR;
 680:Drivers/STM32F4xx_HAL_Driver/Src/stm32f4xx_hal_i2s_ex.c ****   __IO uint32_t i2sextsr  = I2SxEXT(hi2s->Instance)->SR;
 681:Drivers/STM32F4xx_HAL_Driver/Src/stm32f4xx_hal_i2s_ex.c ****   __IO uint32_t i2scr2    = hi2s->Instance->CR2;
 682:Drivers/STM32F4xx_HAL_Driver/Src/stm32f4xx_hal_i2s_ex.c ****   __IO uint32_t i2sextcr2 = I2SxEXT(hi2s->Instance)->CR2;
 683:Drivers/STM32F4xx_HAL_Driver/Src/stm32f4xx_hal_i2s_ex.c **** 
 684:Drivers/STM32F4xx_HAL_Driver/Src/stm32f4xx_hal_i2s_ex.c ****   /* Check if the I2S_MODE_MASTER_TX or I2S_MODE_SLAVE_TX Mode is selected */
 685:Drivers/STM32F4xx_HAL_Driver/Src/stm32f4xx_hal_i2s_ex.c ****   if ((hi2s->Init.Mode == I2S_MODE_MASTER_TX) || (hi2s->Init.Mode == I2S_MODE_SLAVE_TX))
 686:Drivers/STM32F4xx_HAL_Driver/Src/stm32f4xx_hal_i2s_ex.c ****   {
 687:Drivers/STM32F4xx_HAL_Driver/Src/stm32f4xx_hal_i2s_ex.c ****     /* I2S in mode Transmitter -------------------------------------------------*/
 688:Drivers/STM32F4xx_HAL_Driver/Src/stm32f4xx_hal_i2s_ex.c ****     if (((i2ssr & I2S_FLAG_TXE) == I2S_FLAG_TXE) && ((i2scr2 & I2S_IT_TXE) != RESET))
 689:Drivers/STM32F4xx_HAL_Driver/Src/stm32f4xx_hal_i2s_ex.c ****     {
 690:Drivers/STM32F4xx_HAL_Driver/Src/stm32f4xx_hal_i2s_ex.c ****       /* When the I2S mode is configured as I2S_MODE_MASTER_TX or I2S_MODE_SLAVE_TX,
 691:Drivers/STM32F4xx_HAL_Driver/Src/stm32f4xx_hal_i2s_ex.c ****       the I2S TXE interrupt will be generated to manage the full-duplex transmit phase. */
 692:Drivers/STM32F4xx_HAL_Driver/Src/stm32f4xx_hal_i2s_ex.c ****       I2SEx_TxISR_I2S(hi2s);
 693:Drivers/STM32F4xx_HAL_Driver/Src/stm32f4xx_hal_i2s_ex.c ****     }
 694:Drivers/STM32F4xx_HAL_Driver/Src/stm32f4xx_hal_i2s_ex.c **** 
 695:Drivers/STM32F4xx_HAL_Driver/Src/stm32f4xx_hal_i2s_ex.c ****     /* I2Sext in mode Receiver -----------------------------------------------*/
 696:Drivers/STM32F4xx_HAL_Driver/Src/stm32f4xx_hal_i2s_ex.c ****     if (((i2sextsr & I2S_FLAG_RXNE) == I2S_FLAG_RXNE) && ((i2sextcr2 & I2S_IT_RXNE) != RESET))
 697:Drivers/STM32F4xx_HAL_Driver/Src/stm32f4xx_hal_i2s_ex.c ****     {
 698:Drivers/STM32F4xx_HAL_Driver/Src/stm32f4xx_hal_i2s_ex.c ****       /* When the I2S mode is configured as I2S_MODE_MASTER_TX or I2S_MODE_SLAVE_TX,
 699:Drivers/STM32F4xx_HAL_Driver/Src/stm32f4xx_hal_i2s_ex.c ****       the I2Sext RXNE interrupt will be generated to manage the full-duplex receive phase. */
 700:Drivers/STM32F4xx_HAL_Driver/Src/stm32f4xx_hal_i2s_ex.c ****       I2SEx_RxISR_I2SExt(hi2s);
 701:Drivers/STM32F4xx_HAL_Driver/Src/stm32f4xx_hal_i2s_ex.c ****     }
 702:Drivers/STM32F4xx_HAL_Driver/Src/stm32f4xx_hal_i2s_ex.c **** 
 703:Drivers/STM32F4xx_HAL_Driver/Src/stm32f4xx_hal_i2s_ex.c ****     /* I2Sext Overrun error interrupt occurred --------------------------------*/
 704:Drivers/STM32F4xx_HAL_Driver/Src/stm32f4xx_hal_i2s_ex.c ****     if (((i2sextsr & I2S_FLAG_OVR) == I2S_FLAG_OVR) && ((i2sextcr2 & I2S_IT_ERR) != RESET))
 705:Drivers/STM32F4xx_HAL_Driver/Src/stm32f4xx_hal_i2s_ex.c ****     {
 706:Drivers/STM32F4xx_HAL_Driver/Src/stm32f4xx_hal_i2s_ex.c ****       /* Disable RXNE and ERR interrupt */
 707:Drivers/STM32F4xx_HAL_Driver/Src/stm32f4xx_hal_i2s_ex.c ****       __HAL_I2SEXT_DISABLE_IT(hi2s, (I2S_IT_RXNE | I2S_IT_ERR));
 708:Drivers/STM32F4xx_HAL_Driver/Src/stm32f4xx_hal_i2s_ex.c **** 
 709:Drivers/STM32F4xx_HAL_Driver/Src/stm32f4xx_hal_i2s_ex.c ****       /* Disable TXE and ERR interrupt */
 710:Drivers/STM32F4xx_HAL_Driver/Src/stm32f4xx_hal_i2s_ex.c ****       __HAL_I2S_DISABLE_IT(hi2s, (I2S_IT_TXE | I2S_IT_ERR));
 711:Drivers/STM32F4xx_HAL_Driver/Src/stm32f4xx_hal_i2s_ex.c **** 
 712:Drivers/STM32F4xx_HAL_Driver/Src/stm32f4xx_hal_i2s_ex.c ****       /* Clear Overrun flag */
 713:Drivers/STM32F4xx_HAL_Driver/Src/stm32f4xx_hal_i2s_ex.c ****       __HAL_I2S_CLEAR_OVRFLAG(hi2s);
 714:Drivers/STM32F4xx_HAL_Driver/Src/stm32f4xx_hal_i2s_ex.c **** 
ARM GAS  C:\Users\jonas\AppData\Local\Temp\ccyC9VxG.s 			page 14


 715:Drivers/STM32F4xx_HAL_Driver/Src/stm32f4xx_hal_i2s_ex.c ****       /* Set the I2S State ready */
 716:Drivers/STM32F4xx_HAL_Driver/Src/stm32f4xx_hal_i2s_ex.c ****       hi2s->State = HAL_I2S_STATE_READY;
 717:Drivers/STM32F4xx_HAL_Driver/Src/stm32f4xx_hal_i2s_ex.c **** 
 718:Drivers/STM32F4xx_HAL_Driver/Src/stm32f4xx_hal_i2s_ex.c ****       /* Set the error code and execute error callback*/
 719:Drivers/STM32F4xx_HAL_Driver/Src/stm32f4xx_hal_i2s_ex.c ****       SET_BIT(hi2s->ErrorCode, HAL_I2S_ERROR_OVR);
 720:Drivers/STM32F4xx_HAL_Driver/Src/stm32f4xx_hal_i2s_ex.c ****       /* Call user error callback */
 721:Drivers/STM32F4xx_HAL_Driver/Src/stm32f4xx_hal_i2s_ex.c **** #if (USE_HAL_I2S_REGISTER_CALLBACKS == 1U)
 722:Drivers/STM32F4xx_HAL_Driver/Src/stm32f4xx_hal_i2s_ex.c ****       hi2s->ErrorCallback(hi2s);
 723:Drivers/STM32F4xx_HAL_Driver/Src/stm32f4xx_hal_i2s_ex.c **** #else
 724:Drivers/STM32F4xx_HAL_Driver/Src/stm32f4xx_hal_i2s_ex.c ****       HAL_I2S_ErrorCallback(hi2s);
 725:Drivers/STM32F4xx_HAL_Driver/Src/stm32f4xx_hal_i2s_ex.c **** #endif /* USE_HAL_I2S_REGISTER_CALLBACKS */
 726:Drivers/STM32F4xx_HAL_Driver/Src/stm32f4xx_hal_i2s_ex.c ****     }
 727:Drivers/STM32F4xx_HAL_Driver/Src/stm32f4xx_hal_i2s_ex.c **** 
 728:Drivers/STM32F4xx_HAL_Driver/Src/stm32f4xx_hal_i2s_ex.c ****     /* I2S Underrun error interrupt occurred ----------------------------------*/
 729:Drivers/STM32F4xx_HAL_Driver/Src/stm32f4xx_hal_i2s_ex.c ****     if (((i2ssr & I2S_FLAG_UDR) == I2S_FLAG_UDR) && ((i2scr2 & I2S_IT_ERR) != RESET))
 730:Drivers/STM32F4xx_HAL_Driver/Src/stm32f4xx_hal_i2s_ex.c ****     {
 731:Drivers/STM32F4xx_HAL_Driver/Src/stm32f4xx_hal_i2s_ex.c ****       /* Disable TXE and ERR interrupt */
 732:Drivers/STM32F4xx_HAL_Driver/Src/stm32f4xx_hal_i2s_ex.c ****       __HAL_I2S_DISABLE_IT(hi2s, (I2S_IT_TXE | I2S_IT_ERR));
 733:Drivers/STM32F4xx_HAL_Driver/Src/stm32f4xx_hal_i2s_ex.c **** 
 734:Drivers/STM32F4xx_HAL_Driver/Src/stm32f4xx_hal_i2s_ex.c ****       /* Disable RXNE and ERR interrupt */
 735:Drivers/STM32F4xx_HAL_Driver/Src/stm32f4xx_hal_i2s_ex.c ****       __HAL_I2SEXT_DISABLE_IT(hi2s, (I2S_IT_RXNE | I2S_IT_ERR));
 736:Drivers/STM32F4xx_HAL_Driver/Src/stm32f4xx_hal_i2s_ex.c **** 
 737:Drivers/STM32F4xx_HAL_Driver/Src/stm32f4xx_hal_i2s_ex.c ****       /* Clear underrun flag */
 738:Drivers/STM32F4xx_HAL_Driver/Src/stm32f4xx_hal_i2s_ex.c ****       __HAL_I2S_CLEAR_UDRFLAG(hi2s);
 739:Drivers/STM32F4xx_HAL_Driver/Src/stm32f4xx_hal_i2s_ex.c **** 
 740:Drivers/STM32F4xx_HAL_Driver/Src/stm32f4xx_hal_i2s_ex.c ****       /* Set the I2S State ready */
 741:Drivers/STM32F4xx_HAL_Driver/Src/stm32f4xx_hal_i2s_ex.c ****       hi2s->State = HAL_I2S_STATE_READY;
 742:Drivers/STM32F4xx_HAL_Driver/Src/stm32f4xx_hal_i2s_ex.c **** 
 743:Drivers/STM32F4xx_HAL_Driver/Src/stm32f4xx_hal_i2s_ex.c ****       /* Set the error code and execute error callback*/
 744:Drivers/STM32F4xx_HAL_Driver/Src/stm32f4xx_hal_i2s_ex.c ****       SET_BIT(hi2s->ErrorCode, HAL_I2S_ERROR_UDR);
 745:Drivers/STM32F4xx_HAL_Driver/Src/stm32f4xx_hal_i2s_ex.c ****       /* Call user error callback */
 746:Drivers/STM32F4xx_HAL_Driver/Src/stm32f4xx_hal_i2s_ex.c **** #if (USE_HAL_I2S_REGISTER_CALLBACKS == 1U)
 747:Drivers/STM32F4xx_HAL_Driver/Src/stm32f4xx_hal_i2s_ex.c ****       hi2s->ErrorCallback(hi2s);
 748:Drivers/STM32F4xx_HAL_Driver/Src/stm32f4xx_hal_i2s_ex.c **** #else
 749:Drivers/STM32F4xx_HAL_Driver/Src/stm32f4xx_hal_i2s_ex.c ****       HAL_I2S_ErrorCallback(hi2s);
 750:Drivers/STM32F4xx_HAL_Driver/Src/stm32f4xx_hal_i2s_ex.c **** #endif /* USE_HAL_I2S_REGISTER_CALLBACKS */
 751:Drivers/STM32F4xx_HAL_Driver/Src/stm32f4xx_hal_i2s_ex.c ****     }
 752:Drivers/STM32F4xx_HAL_Driver/Src/stm32f4xx_hal_i2s_ex.c ****   }
 753:Drivers/STM32F4xx_HAL_Driver/Src/stm32f4xx_hal_i2s_ex.c ****   /* The I2S_MODE_MASTER_RX or I2S_MODE_SLAVE_RX Mode is selected */
 754:Drivers/STM32F4xx_HAL_Driver/Src/stm32f4xx_hal_i2s_ex.c ****   else
 755:Drivers/STM32F4xx_HAL_Driver/Src/stm32f4xx_hal_i2s_ex.c ****   {
 756:Drivers/STM32F4xx_HAL_Driver/Src/stm32f4xx_hal_i2s_ex.c ****     /* I2Sext in mode Transmitter ----------------------------------------------*/
 757:Drivers/STM32F4xx_HAL_Driver/Src/stm32f4xx_hal_i2s_ex.c ****     if (((i2sextsr & I2S_FLAG_TXE) == I2S_FLAG_TXE) && ((i2sextcr2 & I2S_IT_TXE) != RESET))
 758:Drivers/STM32F4xx_HAL_Driver/Src/stm32f4xx_hal_i2s_ex.c ****     {
 759:Drivers/STM32F4xx_HAL_Driver/Src/stm32f4xx_hal_i2s_ex.c ****       /* When the I2S mode is configured as I2S_MODE_MASTER_RX or I2S_MODE_SLAVE_RX,
 760:Drivers/STM32F4xx_HAL_Driver/Src/stm32f4xx_hal_i2s_ex.c ****       the I2Sext TXE interrupt will be generated to manage the full-duplex transmit phase. */
 761:Drivers/STM32F4xx_HAL_Driver/Src/stm32f4xx_hal_i2s_ex.c ****       I2SEx_TxISR_I2SExt(hi2s);
 762:Drivers/STM32F4xx_HAL_Driver/Src/stm32f4xx_hal_i2s_ex.c ****     }
 763:Drivers/STM32F4xx_HAL_Driver/Src/stm32f4xx_hal_i2s_ex.c **** 
 764:Drivers/STM32F4xx_HAL_Driver/Src/stm32f4xx_hal_i2s_ex.c ****     /* I2S in mode Receiver --------------------------------------------------*/
 765:Drivers/STM32F4xx_HAL_Driver/Src/stm32f4xx_hal_i2s_ex.c ****     if (((i2ssr & I2S_FLAG_RXNE) == I2S_FLAG_RXNE) && ((i2scr2 & I2S_IT_RXNE) != RESET))
 766:Drivers/STM32F4xx_HAL_Driver/Src/stm32f4xx_hal_i2s_ex.c ****     {
 767:Drivers/STM32F4xx_HAL_Driver/Src/stm32f4xx_hal_i2s_ex.c ****       /* When the I2S mode is configured as I2S_MODE_MASTER_RX or I2S_MODE_SLAVE_RX,
 768:Drivers/STM32F4xx_HAL_Driver/Src/stm32f4xx_hal_i2s_ex.c ****       the I2S RXNE interrupt will be generated to manage the full-duplex receive phase. */
 769:Drivers/STM32F4xx_HAL_Driver/Src/stm32f4xx_hal_i2s_ex.c ****       I2SEx_RxISR_I2S(hi2s);
 770:Drivers/STM32F4xx_HAL_Driver/Src/stm32f4xx_hal_i2s_ex.c ****     }
 771:Drivers/STM32F4xx_HAL_Driver/Src/stm32f4xx_hal_i2s_ex.c **** 
ARM GAS  C:\Users\jonas\AppData\Local\Temp\ccyC9VxG.s 			page 15


 772:Drivers/STM32F4xx_HAL_Driver/Src/stm32f4xx_hal_i2s_ex.c ****     /* I2S Overrun error interrupt occurred -------------------------------------*/
 773:Drivers/STM32F4xx_HAL_Driver/Src/stm32f4xx_hal_i2s_ex.c ****     if (((i2ssr & I2S_FLAG_OVR) == I2S_FLAG_OVR) && ((i2scr2 & I2S_IT_ERR) != RESET))
 774:Drivers/STM32F4xx_HAL_Driver/Src/stm32f4xx_hal_i2s_ex.c ****     {
 775:Drivers/STM32F4xx_HAL_Driver/Src/stm32f4xx_hal_i2s_ex.c ****       /* Disable RXNE and ERR interrupt */
 776:Drivers/STM32F4xx_HAL_Driver/Src/stm32f4xx_hal_i2s_ex.c ****       __HAL_I2S_DISABLE_IT(hi2s, (I2S_IT_RXNE | I2S_IT_ERR));
 777:Drivers/STM32F4xx_HAL_Driver/Src/stm32f4xx_hal_i2s_ex.c **** 
 778:Drivers/STM32F4xx_HAL_Driver/Src/stm32f4xx_hal_i2s_ex.c ****       /* Disable TXE and ERR interrupt */
 779:Drivers/STM32F4xx_HAL_Driver/Src/stm32f4xx_hal_i2s_ex.c ****       __HAL_I2SEXT_DISABLE_IT(hi2s, (I2S_IT_TXE | I2S_IT_ERR));
 780:Drivers/STM32F4xx_HAL_Driver/Src/stm32f4xx_hal_i2s_ex.c **** 
 781:Drivers/STM32F4xx_HAL_Driver/Src/stm32f4xx_hal_i2s_ex.c ****       /* Set the I2S State ready */
 782:Drivers/STM32F4xx_HAL_Driver/Src/stm32f4xx_hal_i2s_ex.c ****       hi2s->State = HAL_I2S_STATE_READY;
 783:Drivers/STM32F4xx_HAL_Driver/Src/stm32f4xx_hal_i2s_ex.c **** 
 784:Drivers/STM32F4xx_HAL_Driver/Src/stm32f4xx_hal_i2s_ex.c ****       /* Set the error code and execute error callback*/
 785:Drivers/STM32F4xx_HAL_Driver/Src/stm32f4xx_hal_i2s_ex.c ****       SET_BIT(hi2s->ErrorCode, HAL_I2S_ERROR_OVR);
 786:Drivers/STM32F4xx_HAL_Driver/Src/stm32f4xx_hal_i2s_ex.c ****       /* Call user error callback */
 787:Drivers/STM32F4xx_HAL_Driver/Src/stm32f4xx_hal_i2s_ex.c **** #if (USE_HAL_I2S_REGISTER_CALLBACKS == 1U)
 788:Drivers/STM32F4xx_HAL_Driver/Src/stm32f4xx_hal_i2s_ex.c ****       hi2s->ErrorCallback(hi2s);
 789:Drivers/STM32F4xx_HAL_Driver/Src/stm32f4xx_hal_i2s_ex.c **** #else
 790:Drivers/STM32F4xx_HAL_Driver/Src/stm32f4xx_hal_i2s_ex.c ****       HAL_I2S_ErrorCallback(hi2s);
 791:Drivers/STM32F4xx_HAL_Driver/Src/stm32f4xx_hal_i2s_ex.c **** #endif /* USE_HAL_I2S_REGISTER_CALLBACKS */
 792:Drivers/STM32F4xx_HAL_Driver/Src/stm32f4xx_hal_i2s_ex.c ****     }
 793:Drivers/STM32F4xx_HAL_Driver/Src/stm32f4xx_hal_i2s_ex.c **** 
 794:Drivers/STM32F4xx_HAL_Driver/Src/stm32f4xx_hal_i2s_ex.c ****     /* I2Sext Underrun error interrupt occurred -------------------------------*/
 795:Drivers/STM32F4xx_HAL_Driver/Src/stm32f4xx_hal_i2s_ex.c ****     if (((i2sextsr & I2S_FLAG_UDR) == I2S_FLAG_UDR) && ((i2sextcr2 & I2S_IT_ERR) != RESET))
 796:Drivers/STM32F4xx_HAL_Driver/Src/stm32f4xx_hal_i2s_ex.c ****     {
 797:Drivers/STM32F4xx_HAL_Driver/Src/stm32f4xx_hal_i2s_ex.c ****       /* Disable TXE and ERR interrupt */
 798:Drivers/STM32F4xx_HAL_Driver/Src/stm32f4xx_hal_i2s_ex.c ****       __HAL_I2SEXT_DISABLE_IT(hi2s, (I2S_IT_TXE | I2S_IT_ERR));
 799:Drivers/STM32F4xx_HAL_Driver/Src/stm32f4xx_hal_i2s_ex.c **** 
 800:Drivers/STM32F4xx_HAL_Driver/Src/stm32f4xx_hal_i2s_ex.c ****       /* Disable RXNE and ERR interrupt */
 801:Drivers/STM32F4xx_HAL_Driver/Src/stm32f4xx_hal_i2s_ex.c ****       __HAL_I2S_DISABLE_IT(hi2s, (I2S_IT_RXNE | I2S_IT_ERR));
 802:Drivers/STM32F4xx_HAL_Driver/Src/stm32f4xx_hal_i2s_ex.c **** 
 803:Drivers/STM32F4xx_HAL_Driver/Src/stm32f4xx_hal_i2s_ex.c ****       /* Set the I2S State ready */
 804:Drivers/STM32F4xx_HAL_Driver/Src/stm32f4xx_hal_i2s_ex.c ****       hi2s->State = HAL_I2S_STATE_READY;
 805:Drivers/STM32F4xx_HAL_Driver/Src/stm32f4xx_hal_i2s_ex.c **** 
 806:Drivers/STM32F4xx_HAL_Driver/Src/stm32f4xx_hal_i2s_ex.c ****       /* Set the error code and execute error callback*/
 807:Drivers/STM32F4xx_HAL_Driver/Src/stm32f4xx_hal_i2s_ex.c ****       SET_BIT(hi2s->ErrorCode, HAL_I2S_ERROR_UDR);
 808:Drivers/STM32F4xx_HAL_Driver/Src/stm32f4xx_hal_i2s_ex.c ****       /* Call user error callback */
 809:Drivers/STM32F4xx_HAL_Driver/Src/stm32f4xx_hal_i2s_ex.c **** #if (USE_HAL_I2S_REGISTER_CALLBACKS == 1U)
 810:Drivers/STM32F4xx_HAL_Driver/Src/stm32f4xx_hal_i2s_ex.c ****       hi2s->ErrorCallback(hi2s);
 811:Drivers/STM32F4xx_HAL_Driver/Src/stm32f4xx_hal_i2s_ex.c **** #else
 812:Drivers/STM32F4xx_HAL_Driver/Src/stm32f4xx_hal_i2s_ex.c ****       HAL_I2S_ErrorCallback(hi2s);
 813:Drivers/STM32F4xx_HAL_Driver/Src/stm32f4xx_hal_i2s_ex.c **** #endif /* USE_HAL_I2S_REGISTER_CALLBACKS */
 814:Drivers/STM32F4xx_HAL_Driver/Src/stm32f4xx_hal_i2s_ex.c ****     }
 815:Drivers/STM32F4xx_HAL_Driver/Src/stm32f4xx_hal_i2s_ex.c ****   }
 816:Drivers/STM32F4xx_HAL_Driver/Src/stm32f4xx_hal_i2s_ex.c **** }
 817:Drivers/STM32F4xx_HAL_Driver/Src/stm32f4xx_hal_i2s_ex.c **** 
 818:Drivers/STM32F4xx_HAL_Driver/Src/stm32f4xx_hal_i2s_ex.c **** /**
 819:Drivers/STM32F4xx_HAL_Driver/Src/stm32f4xx_hal_i2s_ex.c ****   * @brief  Tx and Rx Transfer half completed callback
 820:Drivers/STM32F4xx_HAL_Driver/Src/stm32f4xx_hal_i2s_ex.c ****   * @param  hi2s I2S handle
 821:Drivers/STM32F4xx_HAL_Driver/Src/stm32f4xx_hal_i2s_ex.c ****   * @retval None
 822:Drivers/STM32F4xx_HAL_Driver/Src/stm32f4xx_hal_i2s_ex.c ****   */
 823:Drivers/STM32F4xx_HAL_Driver/Src/stm32f4xx_hal_i2s_ex.c **** __weak void HAL_I2SEx_TxRxHalfCpltCallback(I2S_HandleTypeDef *hi2s)
 824:Drivers/STM32F4xx_HAL_Driver/Src/stm32f4xx_hal_i2s_ex.c **** {
 825:Drivers/STM32F4xx_HAL_Driver/Src/stm32f4xx_hal_i2s_ex.c ****   /* Prevent unused argument(s) compilation warning */
 826:Drivers/STM32F4xx_HAL_Driver/Src/stm32f4xx_hal_i2s_ex.c ****   UNUSED(hi2s);
 827:Drivers/STM32F4xx_HAL_Driver/Src/stm32f4xx_hal_i2s_ex.c **** 
 828:Drivers/STM32F4xx_HAL_Driver/Src/stm32f4xx_hal_i2s_ex.c ****   /* NOTE : This function Should not be modified, when the callback is needed,
ARM GAS  C:\Users\jonas\AppData\Local\Temp\ccyC9VxG.s 			page 16


 829:Drivers/STM32F4xx_HAL_Driver/Src/stm32f4xx_hal_i2s_ex.c ****             the HAL_I2SEx_TxRxHalfCpltCallback could be implemented in the user file
 830:Drivers/STM32F4xx_HAL_Driver/Src/stm32f4xx_hal_i2s_ex.c ****    */
 831:Drivers/STM32F4xx_HAL_Driver/Src/stm32f4xx_hal_i2s_ex.c **** }
 832:Drivers/STM32F4xx_HAL_Driver/Src/stm32f4xx_hal_i2s_ex.c **** 
 833:Drivers/STM32F4xx_HAL_Driver/Src/stm32f4xx_hal_i2s_ex.c **** /**
 834:Drivers/STM32F4xx_HAL_Driver/Src/stm32f4xx_hal_i2s_ex.c ****   * @brief  Tx and Rx Transfer completed callback
 835:Drivers/STM32F4xx_HAL_Driver/Src/stm32f4xx_hal_i2s_ex.c ****   * @param  hi2s I2S handle
 836:Drivers/STM32F4xx_HAL_Driver/Src/stm32f4xx_hal_i2s_ex.c ****   * @retval None
 837:Drivers/STM32F4xx_HAL_Driver/Src/stm32f4xx_hal_i2s_ex.c ****   */
 838:Drivers/STM32F4xx_HAL_Driver/Src/stm32f4xx_hal_i2s_ex.c **** __weak void HAL_I2SEx_TxRxCpltCallback(I2S_HandleTypeDef *hi2s)
 839:Drivers/STM32F4xx_HAL_Driver/Src/stm32f4xx_hal_i2s_ex.c **** {
 840:Drivers/STM32F4xx_HAL_Driver/Src/stm32f4xx_hal_i2s_ex.c ****   /* Prevent unused argument(s) compilation warning */
 841:Drivers/STM32F4xx_HAL_Driver/Src/stm32f4xx_hal_i2s_ex.c ****   UNUSED(hi2s);
 842:Drivers/STM32F4xx_HAL_Driver/Src/stm32f4xx_hal_i2s_ex.c **** 
 843:Drivers/STM32F4xx_HAL_Driver/Src/stm32f4xx_hal_i2s_ex.c ****   /* NOTE : This function should not be modified, when the callback is needed,
 844:Drivers/STM32F4xx_HAL_Driver/Src/stm32f4xx_hal_i2s_ex.c ****             the HAL_I2SEx_TxRxCpltCallback could be implemented in the user file
 845:Drivers/STM32F4xx_HAL_Driver/Src/stm32f4xx_hal_i2s_ex.c ****    */
 846:Drivers/STM32F4xx_HAL_Driver/Src/stm32f4xx_hal_i2s_ex.c **** }
 847:Drivers/STM32F4xx_HAL_Driver/Src/stm32f4xx_hal_i2s_ex.c **** 
 848:Drivers/STM32F4xx_HAL_Driver/Src/stm32f4xx_hal_i2s_ex.c **** /**
 849:Drivers/STM32F4xx_HAL_Driver/Src/stm32f4xx_hal_i2s_ex.c ****   * @}
 850:Drivers/STM32F4xx_HAL_Driver/Src/stm32f4xx_hal_i2s_ex.c ****   */
 851:Drivers/STM32F4xx_HAL_Driver/Src/stm32f4xx_hal_i2s_ex.c **** 
 852:Drivers/STM32F4xx_HAL_Driver/Src/stm32f4xx_hal_i2s_ex.c **** /**
 853:Drivers/STM32F4xx_HAL_Driver/Src/stm32f4xx_hal_i2s_ex.c ****   * @}
 854:Drivers/STM32F4xx_HAL_Driver/Src/stm32f4xx_hal_i2s_ex.c ****   */
 855:Drivers/STM32F4xx_HAL_Driver/Src/stm32f4xx_hal_i2s_ex.c **** 
 856:Drivers/STM32F4xx_HAL_Driver/Src/stm32f4xx_hal_i2s_ex.c **** /** @addtogroup I2SEx_Private_Functions I2S Extended Private Functions
 857:Drivers/STM32F4xx_HAL_Driver/Src/stm32f4xx_hal_i2s_ex.c ****   * @{
 858:Drivers/STM32F4xx_HAL_Driver/Src/stm32f4xx_hal_i2s_ex.c ****   */
 859:Drivers/STM32F4xx_HAL_Driver/Src/stm32f4xx_hal_i2s_ex.c **** 
 860:Drivers/STM32F4xx_HAL_Driver/Src/stm32f4xx_hal_i2s_ex.c **** /**
 861:Drivers/STM32F4xx_HAL_Driver/Src/stm32f4xx_hal_i2s_ex.c ****   * @brief  DMA I2S transmit receive process half complete callback
 862:Drivers/STM32F4xx_HAL_Driver/Src/stm32f4xx_hal_i2s_ex.c ****   * @param  hdma pointer to a DMA_HandleTypeDef structure that contains
 863:Drivers/STM32F4xx_HAL_Driver/Src/stm32f4xx_hal_i2s_ex.c ****   *               the configuration information for the specified DMA module.
 864:Drivers/STM32F4xx_HAL_Driver/Src/stm32f4xx_hal_i2s_ex.c ****   * @retval None
 865:Drivers/STM32F4xx_HAL_Driver/Src/stm32f4xx_hal_i2s_ex.c ****   */
 866:Drivers/STM32F4xx_HAL_Driver/Src/stm32f4xx_hal_i2s_ex.c **** static void I2SEx_TxRxDMAHalfCplt(DMA_HandleTypeDef *hdma)
 867:Drivers/STM32F4xx_HAL_Driver/Src/stm32f4xx_hal_i2s_ex.c **** {
  29              		.loc 1 867 1 view -0
  30              		.cfi_startproc
  31              		@ args = 0, pretend = 0, frame = 0
  32              		@ frame_needed = 0, uses_anonymous_args = 0
  33              		.loc 1 867 1 is_stmt 0 view .LVU1
  34 0000 08B5     		push	{r3, lr}
  35              		.cfi_def_cfa_offset 8
  36              		.cfi_offset 3, -8
  37              		.cfi_offset 14, -4
 868:Drivers/STM32F4xx_HAL_Driver/Src/stm32f4xx_hal_i2s_ex.c ****   I2S_HandleTypeDef *hi2s = (I2S_HandleTypeDef *)((DMA_HandleTypeDef *)hdma)->Parent;
  38              		.loc 1 868 3 is_stmt 1 view .LVU2
  39              		.loc 1 868 22 is_stmt 0 view .LVU3
  40 0002 806B     		ldr	r0, [r0, #56]
  41              	.LVL1:
 869:Drivers/STM32F4xx_HAL_Driver/Src/stm32f4xx_hal_i2s_ex.c **** 
 870:Drivers/STM32F4xx_HAL_Driver/Src/stm32f4xx_hal_i2s_ex.c ****   /* Call user TxRx Half complete callback */
 871:Drivers/STM32F4xx_HAL_Driver/Src/stm32f4xx_hal_i2s_ex.c **** #if (USE_HAL_I2S_REGISTER_CALLBACKS == 1U)
 872:Drivers/STM32F4xx_HAL_Driver/Src/stm32f4xx_hal_i2s_ex.c ****   hi2s->TxRxHalfCpltCallback(hi2s);
ARM GAS  C:\Users\jonas\AppData\Local\Temp\ccyC9VxG.s 			page 17


  42              		.loc 1 872 3 is_stmt 1 view .LVU4
  43              		.loc 1 872 7 is_stmt 0 view .LVU5
  44 0004 C36D     		ldr	r3, [r0, #92]
  45              		.loc 1 872 3 view .LVU6
  46 0006 9847     		blx	r3
  47              	.LVL2:
 873:Drivers/STM32F4xx_HAL_Driver/Src/stm32f4xx_hal_i2s_ex.c **** #else
 874:Drivers/STM32F4xx_HAL_Driver/Src/stm32f4xx_hal_i2s_ex.c ****   HAL_I2SEx_TxRxHalfCpltCallback(hi2s);
 875:Drivers/STM32F4xx_HAL_Driver/Src/stm32f4xx_hal_i2s_ex.c **** #endif /* USE_HAL_I2S_REGISTER_CALLBACKS */
 876:Drivers/STM32F4xx_HAL_Driver/Src/stm32f4xx_hal_i2s_ex.c **** }
  48              		.loc 1 876 1 view .LVU7
  49 0008 08BD     		pop	{r3, pc}
  50              		.cfi_endproc
  51              	.LFE140:
  53              		.section	.text.I2SEx_TxRxDMACplt,"ax",%progbits
  54              		.align	1
  55              		.syntax unified
  56              		.thumb
  57              		.thumb_func
  59              	I2SEx_TxRxDMACplt:
  60              	.LVL3:
  61              	.LFB141:
 877:Drivers/STM32F4xx_HAL_Driver/Src/stm32f4xx_hal_i2s_ex.c **** 
 878:Drivers/STM32F4xx_HAL_Driver/Src/stm32f4xx_hal_i2s_ex.c **** /**
 879:Drivers/STM32F4xx_HAL_Driver/Src/stm32f4xx_hal_i2s_ex.c ****   * @brief  DMA I2S transmit receive process complete callback
 880:Drivers/STM32F4xx_HAL_Driver/Src/stm32f4xx_hal_i2s_ex.c ****   * @param  hdma pointer to a DMA_HandleTypeDef structure that contains
 881:Drivers/STM32F4xx_HAL_Driver/Src/stm32f4xx_hal_i2s_ex.c ****   *               the configuration information for the specified DMA module.
 882:Drivers/STM32F4xx_HAL_Driver/Src/stm32f4xx_hal_i2s_ex.c ****   * @retval None
 883:Drivers/STM32F4xx_HAL_Driver/Src/stm32f4xx_hal_i2s_ex.c ****   */
 884:Drivers/STM32F4xx_HAL_Driver/Src/stm32f4xx_hal_i2s_ex.c **** static void I2SEx_TxRxDMACplt(DMA_HandleTypeDef *hdma)
 885:Drivers/STM32F4xx_HAL_Driver/Src/stm32f4xx_hal_i2s_ex.c **** {
  62              		.loc 1 885 1 is_stmt 1 view -0
  63              		.cfi_startproc
  64              		@ args = 0, pretend = 0, frame = 0
  65              		@ frame_needed = 0, uses_anonymous_args = 0
  66              		.loc 1 885 1 is_stmt 0 view .LVU9
  67 0000 08B5     		push	{r3, lr}
  68              		.cfi_def_cfa_offset 8
  69              		.cfi_offset 3, -8
  70              		.cfi_offset 14, -4
  71 0002 0346     		mov	r3, r0
 886:Drivers/STM32F4xx_HAL_Driver/Src/stm32f4xx_hal_i2s_ex.c ****   I2S_HandleTypeDef *hi2s = (I2S_HandleTypeDef *)((DMA_HandleTypeDef *)hdma)->Parent;
  72              		.loc 1 886 3 is_stmt 1 view .LVU10
  73              		.loc 1 886 22 is_stmt 0 view .LVU11
  74 0004 806B     		ldr	r0, [r0, #56]
  75              	.LVL4:
 887:Drivers/STM32F4xx_HAL_Driver/Src/stm32f4xx_hal_i2s_ex.c **** 
 888:Drivers/STM32F4xx_HAL_Driver/Src/stm32f4xx_hal_i2s_ex.c ****   /* If DMA is configured in DMA_NORMAL mode */
 889:Drivers/STM32F4xx_HAL_Driver/Src/stm32f4xx_hal_i2s_ex.c ****   if (hdma->Init.Mode == DMA_NORMAL)
  76              		.loc 1 889 3 is_stmt 1 view .LVU12
  77              		.loc 1 889 17 is_stmt 0 view .LVU13
  78 0006 DB69     		ldr	r3, [r3, #28]
  79              	.LVL5:
  80              		.loc 1 889 6 view .LVU14
  81 0008 F3B9     		cbnz	r3, .L4
 890:Drivers/STM32F4xx_HAL_Driver/Src/stm32f4xx_hal_i2s_ex.c ****   {
 891:Drivers/STM32F4xx_HAL_Driver/Src/stm32f4xx_hal_i2s_ex.c ****     if (((hi2s->Instance->I2SCFGR & SPI_I2SCFGR_I2SCFG) == I2S_MODE_MASTER_TX) || \
ARM GAS  C:\Users\jonas\AppData\Local\Temp\ccyC9VxG.s 			page 18


  82              		.loc 1 891 5 is_stmt 1 view .LVU15
  83              		.loc 1 891 15 is_stmt 0 view .LVU16
  84 000a 0268     		ldr	r2, [r0]
  85              		.loc 1 891 25 view .LVU17
  86 000c D369     		ldr	r3, [r2, #28]
  87              		.loc 1 891 35 view .LVU18
  88 000e 03F44073 		and	r3, r3, #768
  89              		.loc 1 891 8 view .LVU19
  90 0012 B3F5007F 		cmp	r3, #512
  91 0016 03D0     		beq	.L5
 892:Drivers/STM32F4xx_HAL_Driver/Src/stm32f4xx_hal_i2s_ex.c ****         ((hi2s->Instance->I2SCFGR & SPI_I2SCFGR_I2SCFG) == I2S_MODE_SLAVE_TX))
  92              		.loc 1 892 25 view .LVU20
  93 0018 D369     		ldr	r3, [r2, #28]
 891:Drivers/STM32F4xx_HAL_Driver/Src/stm32f4xx_hal_i2s_ex.c ****         ((hi2s->Instance->I2SCFGR & SPI_I2SCFGR_I2SCFG) == I2S_MODE_SLAVE_TX))
  94              		.loc 1 891 80 discriminator 1 view .LVU21
  95 001a 13F4407F 		tst	r3, #768
  96 001e 18D1     		bne	.L6
  97              	.L5:
 893:Drivers/STM32F4xx_HAL_Driver/Src/stm32f4xx_hal_i2s_ex.c ****     /* Disable Tx & Rx DMA Requests */
 894:Drivers/STM32F4xx_HAL_Driver/Src/stm32f4xx_hal_i2s_ex.c ****     {
 895:Drivers/STM32F4xx_HAL_Driver/Src/stm32f4xx_hal_i2s_ex.c ****       CLEAR_BIT(I2SxEXT(hi2s->Instance)->CR2, SPI_CR2_RXDMAEN);
  98              		.loc 1 895 7 is_stmt 1 view .LVU22
  99 0020 144B     		ldr	r3, .L15
 100 0022 9A42     		cmp	r2, r3
 101 0024 13D0     		beq	.L13
 102              		.loc 1 895 7 is_stmt 0 discriminator 2 view .LVU23
 103 0026 4FF04022 		mov	r2, #1073758208
 104              	.L7:
 105              		.loc 1 895 7 discriminator 4 view .LVU24
 106 002a 5368     		ldr	r3, [r2, #4]
 107              		.loc 1 895 7 discriminator 8 view .LVU25
 108 002c 23F00103 		bic	r3, r3, #1
 109 0030 5360     		str	r3, [r2, #4]
 896:Drivers/STM32F4xx_HAL_Driver/Src/stm32f4xx_hal_i2s_ex.c ****       CLEAR_BIT(hi2s->Instance->CR2, SPI_CR2_TXDMAEN);
 110              		.loc 1 896 7 is_stmt 1 view .LVU26
 111 0032 0268     		ldr	r2, [r0]
 112 0034 5368     		ldr	r3, [r2, #4]
 113 0036 23F00203 		bic	r3, r3, #2
 114 003a 5360     		str	r3, [r2, #4]
 115              	.L8:
 897:Drivers/STM32F4xx_HAL_Driver/Src/stm32f4xx_hal_i2s_ex.c ****     }
 898:Drivers/STM32F4xx_HAL_Driver/Src/stm32f4xx_hal_i2s_ex.c ****     else
 899:Drivers/STM32F4xx_HAL_Driver/Src/stm32f4xx_hal_i2s_ex.c ****     {
 900:Drivers/STM32F4xx_HAL_Driver/Src/stm32f4xx_hal_i2s_ex.c ****       CLEAR_BIT(hi2s->Instance->CR2, SPI_CR2_RXDMAEN);
 901:Drivers/STM32F4xx_HAL_Driver/Src/stm32f4xx_hal_i2s_ex.c ****       CLEAR_BIT(I2SxEXT(hi2s->Instance)->CR2, SPI_CR2_TXDMAEN);
 902:Drivers/STM32F4xx_HAL_Driver/Src/stm32f4xx_hal_i2s_ex.c ****     }
 903:Drivers/STM32F4xx_HAL_Driver/Src/stm32f4xx_hal_i2s_ex.c **** 
 904:Drivers/STM32F4xx_HAL_Driver/Src/stm32f4xx_hal_i2s_ex.c ****     hi2s->RxXferCount = 0U;
 116              		.loc 1 904 5 view .LVU27
 117              		.loc 1 904 23 is_stmt 0 view .LVU28
 118 003c 0023     		movs	r3, #0
 119 003e 4386     		strh	r3, [r0, #50]	@ movhi
 905:Drivers/STM32F4xx_HAL_Driver/Src/stm32f4xx_hal_i2s_ex.c ****     hi2s->TxXferCount = 0U;
 120              		.loc 1 905 5 is_stmt 1 view .LVU29
 121              		.loc 1 905 23 is_stmt 0 view .LVU30
 122 0040 4385     		strh	r3, [r0, #42]	@ movhi
 906:Drivers/STM32F4xx_HAL_Driver/Src/stm32f4xx_hal_i2s_ex.c **** 
ARM GAS  C:\Users\jonas\AppData\Local\Temp\ccyC9VxG.s 			page 19


 907:Drivers/STM32F4xx_HAL_Driver/Src/stm32f4xx_hal_i2s_ex.c ****     hi2s->State = HAL_I2S_STATE_READY;
 123              		.loc 1 907 5 is_stmt 1 view .LVU31
 124              		.loc 1 907 17 is_stmt 0 view .LVU32
 125 0042 0123     		movs	r3, #1
 126 0044 80F84130 		strb	r3, [r0, #65]
 127              	.L4:
 908:Drivers/STM32F4xx_HAL_Driver/Src/stm32f4xx_hal_i2s_ex.c ****   }
 909:Drivers/STM32F4xx_HAL_Driver/Src/stm32f4xx_hal_i2s_ex.c **** 
 910:Drivers/STM32F4xx_HAL_Driver/Src/stm32f4xx_hal_i2s_ex.c ****   /* Call user TxRx complete callback */
 911:Drivers/STM32F4xx_HAL_Driver/Src/stm32f4xx_hal_i2s_ex.c **** #if (USE_HAL_I2S_REGISTER_CALLBACKS == 1U)
 912:Drivers/STM32F4xx_HAL_Driver/Src/stm32f4xx_hal_i2s_ex.c ****   hi2s->TxRxCpltCallback(hi2s);
 128              		.loc 1 912 3 is_stmt 1 view .LVU33
 129              		.loc 1 912 7 is_stmt 0 view .LVU34
 130 0048 036D     		ldr	r3, [r0, #80]
 131              		.loc 1 912 3 view .LVU35
 132 004a 9847     		blx	r3
 133              	.LVL6:
 913:Drivers/STM32F4xx_HAL_Driver/Src/stm32f4xx_hal_i2s_ex.c **** #else
 914:Drivers/STM32F4xx_HAL_Driver/Src/stm32f4xx_hal_i2s_ex.c ****   HAL_I2SEx_TxRxCpltCallback(hi2s);
 915:Drivers/STM32F4xx_HAL_Driver/Src/stm32f4xx_hal_i2s_ex.c **** #endif /* USE_HAL_I2S_REGISTER_CALLBACKS */
 916:Drivers/STM32F4xx_HAL_Driver/Src/stm32f4xx_hal_i2s_ex.c **** }
 134              		.loc 1 916 1 view .LVU36
 135 004c 08BD     		pop	{r3, pc}
 136              	.LVL7:
 137              	.L13:
 895:Drivers/STM32F4xx_HAL_Driver/Src/stm32f4xx_hal_i2s_ex.c ****       CLEAR_BIT(hi2s->Instance->CR2, SPI_CR2_TXDMAEN);
 138              		.loc 1 895 7 discriminator 1 view .LVU37
 139 004e 0A4A     		ldr	r2, .L15+4
 140 0050 EBE7     		b	.L7
 141              	.L6:
 900:Drivers/STM32F4xx_HAL_Driver/Src/stm32f4xx_hal_i2s_ex.c ****       CLEAR_BIT(I2SxEXT(hi2s->Instance)->CR2, SPI_CR2_TXDMAEN);
 142              		.loc 1 900 7 is_stmt 1 view .LVU38
 143 0052 5368     		ldr	r3, [r2, #4]
 144 0054 23F00103 		bic	r3, r3, #1
 145 0058 5360     		str	r3, [r2, #4]
 901:Drivers/STM32F4xx_HAL_Driver/Src/stm32f4xx_hal_i2s_ex.c ****     }
 146              		.loc 1 901 7 view .LVU39
 147 005a 0268     		ldr	r2, [r0]
 148 005c 054B     		ldr	r3, .L15
 149 005e 9A42     		cmp	r2, r3
 150 0060 06D0     		beq	.L14
 901:Drivers/STM32F4xx_HAL_Driver/Src/stm32f4xx_hal_i2s_ex.c ****     }
 151              		.loc 1 901 7 is_stmt 0 discriminator 2 view .LVU40
 152 0062 4FF04022 		mov	r2, #1073758208
 153              	.L9:
 901:Drivers/STM32F4xx_HAL_Driver/Src/stm32f4xx_hal_i2s_ex.c ****     }
 154              		.loc 1 901 7 discriminator 4 view .LVU41
 155 0066 5368     		ldr	r3, [r2, #4]
 901:Drivers/STM32F4xx_HAL_Driver/Src/stm32f4xx_hal_i2s_ex.c ****     }
 156              		.loc 1 901 7 discriminator 8 view .LVU42
 157 0068 23F00203 		bic	r3, r3, #2
 158 006c 5360     		str	r3, [r2, #4]
 159 006e E5E7     		b	.L8
 160              	.L14:
 901:Drivers/STM32F4xx_HAL_Driver/Src/stm32f4xx_hal_i2s_ex.c ****     }
 161              		.loc 1 901 7 discriminator 1 view .LVU43
 162 0070 014A     		ldr	r2, .L15+4
ARM GAS  C:\Users\jonas\AppData\Local\Temp\ccyC9VxG.s 			page 20


 163 0072 F8E7     		b	.L9
 164              	.L16:
 165              		.align	2
 166              	.L15:
 167 0074 00380040 		.word	1073756160
 168 0078 00340040 		.word	1073755136
 169              		.cfi_endproc
 170              	.LFE141:
 172              		.section	.text.I2SEx_TxRxDMAError,"ax",%progbits
 173              		.align	1
 174              		.syntax unified
 175              		.thumb
 176              		.thumb_func
 178              	I2SEx_TxRxDMAError:
 179              	.LVL8:
 180              	.LFB142:
 917:Drivers/STM32F4xx_HAL_Driver/Src/stm32f4xx_hal_i2s_ex.c **** 
 918:Drivers/STM32F4xx_HAL_Driver/Src/stm32f4xx_hal_i2s_ex.c **** /**
 919:Drivers/STM32F4xx_HAL_Driver/Src/stm32f4xx_hal_i2s_ex.c ****   * @brief  DMA I2S communication error callback
 920:Drivers/STM32F4xx_HAL_Driver/Src/stm32f4xx_hal_i2s_ex.c ****   * @param  hdma DMA handle
 921:Drivers/STM32F4xx_HAL_Driver/Src/stm32f4xx_hal_i2s_ex.c ****   * @retval None
 922:Drivers/STM32F4xx_HAL_Driver/Src/stm32f4xx_hal_i2s_ex.c ****   */
 923:Drivers/STM32F4xx_HAL_Driver/Src/stm32f4xx_hal_i2s_ex.c **** static void I2SEx_TxRxDMAError(DMA_HandleTypeDef *hdma)
 924:Drivers/STM32F4xx_HAL_Driver/Src/stm32f4xx_hal_i2s_ex.c **** {
 181              		.loc 1 924 1 is_stmt 1 view -0
 182              		.cfi_startproc
 183              		@ args = 0, pretend = 0, frame = 0
 184              		@ frame_needed = 0, uses_anonymous_args = 0
 185              		.loc 1 924 1 is_stmt 0 view .LVU45
 186 0000 08B5     		push	{r3, lr}
 187              		.cfi_def_cfa_offset 8
 188              		.cfi_offset 3, -8
 189              		.cfi_offset 14, -4
 925:Drivers/STM32F4xx_HAL_Driver/Src/stm32f4xx_hal_i2s_ex.c ****   I2S_HandleTypeDef *hi2s = (I2S_HandleTypeDef *)((DMA_HandleTypeDef *)hdma)->Parent;
 190              		.loc 1 925 3 is_stmt 1 view .LVU46
 191              		.loc 1 925 22 is_stmt 0 view .LVU47
 192 0002 806B     		ldr	r0, [r0, #56]
 193              	.LVL9:
 926:Drivers/STM32F4xx_HAL_Driver/Src/stm32f4xx_hal_i2s_ex.c **** 
 927:Drivers/STM32F4xx_HAL_Driver/Src/stm32f4xx_hal_i2s_ex.c ****   /* Disable Rx and Tx DMA Request */
 928:Drivers/STM32F4xx_HAL_Driver/Src/stm32f4xx_hal_i2s_ex.c ****   CLEAR_BIT(hi2s->Instance->CR2, (SPI_CR2_RXDMAEN | SPI_CR2_TXDMAEN));
 194              		.loc 1 928 3 is_stmt 1 view .LVU48
 195 0004 0268     		ldr	r2, [r0]
 196 0006 5368     		ldr	r3, [r2, #4]
 197 0008 23F00303 		bic	r3, r3, #3
 198 000c 5360     		str	r3, [r2, #4]
 929:Drivers/STM32F4xx_HAL_Driver/Src/stm32f4xx_hal_i2s_ex.c ****   CLEAR_BIT(I2SxEXT(hi2s->Instance)->CR2, (SPI_CR2_RXDMAEN | SPI_CR2_TXDMAEN));
 199              		.loc 1 929 3 view .LVU49
 200 000e 0268     		ldr	r2, [r0]
 201 0010 0B4B     		ldr	r3, .L22
 202 0012 9A42     		cmp	r2, r3
 203 0014 12D0     		beq	.L21
 204              		.loc 1 929 3 is_stmt 0 discriminator 2 view .LVU50
 205 0016 4FF04022 		mov	r2, #1073758208
 206              	.L18:
 207              		.loc 1 929 3 discriminator 4 view .LVU51
 208 001a 5368     		ldr	r3, [r2, #4]
ARM GAS  C:\Users\jonas\AppData\Local\Temp\ccyC9VxG.s 			page 21


 209              		.loc 1 929 3 discriminator 8 view .LVU52
 210 001c 23F00303 		bic	r3, r3, #3
 211 0020 5360     		str	r3, [r2, #4]
 930:Drivers/STM32F4xx_HAL_Driver/Src/stm32f4xx_hal_i2s_ex.c **** 
 931:Drivers/STM32F4xx_HAL_Driver/Src/stm32f4xx_hal_i2s_ex.c ****   hi2s->TxXferCount = 0U;
 212              		.loc 1 931 3 is_stmt 1 view .LVU53
 213              		.loc 1 931 21 is_stmt 0 view .LVU54
 214 0022 0023     		movs	r3, #0
 215 0024 4385     		strh	r3, [r0, #42]	@ movhi
 932:Drivers/STM32F4xx_HAL_Driver/Src/stm32f4xx_hal_i2s_ex.c ****   hi2s->RxXferCount = 0U;
 216              		.loc 1 932 3 is_stmt 1 view .LVU55
 217              		.loc 1 932 21 is_stmt 0 view .LVU56
 218 0026 4386     		strh	r3, [r0, #50]	@ movhi
 933:Drivers/STM32F4xx_HAL_Driver/Src/stm32f4xx_hal_i2s_ex.c **** 
 934:Drivers/STM32F4xx_HAL_Driver/Src/stm32f4xx_hal_i2s_ex.c ****   hi2s->State = HAL_I2S_STATE_READY;
 219              		.loc 1 934 3 is_stmt 1 view .LVU57
 220              		.loc 1 934 15 is_stmt 0 view .LVU58
 221 0028 0123     		movs	r3, #1
 222 002a 80F84130 		strb	r3, [r0, #65]
 935:Drivers/STM32F4xx_HAL_Driver/Src/stm32f4xx_hal_i2s_ex.c **** 
 936:Drivers/STM32F4xx_HAL_Driver/Src/stm32f4xx_hal_i2s_ex.c ****   /* Set the error code and execute error callback*/
 937:Drivers/STM32F4xx_HAL_Driver/Src/stm32f4xx_hal_i2s_ex.c ****   SET_BIT(hi2s->ErrorCode, HAL_I2S_ERROR_DMA);
 223              		.loc 1 937 3 is_stmt 1 view .LVU59
 224 002e 436C     		ldr	r3, [r0, #68]
 225 0030 43F00803 		orr	r3, r3, #8
 226 0034 4364     		str	r3, [r0, #68]
 938:Drivers/STM32F4xx_HAL_Driver/Src/stm32f4xx_hal_i2s_ex.c ****   /* Call user error callback */
 939:Drivers/STM32F4xx_HAL_Driver/Src/stm32f4xx_hal_i2s_ex.c **** #if (USE_HAL_I2S_REGISTER_CALLBACKS == 1U)
 940:Drivers/STM32F4xx_HAL_Driver/Src/stm32f4xx_hal_i2s_ex.c ****   hi2s->ErrorCallback(hi2s);
 227              		.loc 1 940 3 view .LVU60
 228              		.loc 1 940 7 is_stmt 0 view .LVU61
 229 0036 036E     		ldr	r3, [r0, #96]
 230              		.loc 1 940 3 view .LVU62
 231 0038 9847     		blx	r3
 232              	.LVL10:
 941:Drivers/STM32F4xx_HAL_Driver/Src/stm32f4xx_hal_i2s_ex.c **** #else
 942:Drivers/STM32F4xx_HAL_Driver/Src/stm32f4xx_hal_i2s_ex.c ****   HAL_I2S_ErrorCallback(hi2s);
 943:Drivers/STM32F4xx_HAL_Driver/Src/stm32f4xx_hal_i2s_ex.c **** #endif /* USE_HAL_I2S_REGISTER_CALLBACKS */
 944:Drivers/STM32F4xx_HAL_Driver/Src/stm32f4xx_hal_i2s_ex.c **** }
 233              		.loc 1 944 1 view .LVU63
 234 003a 08BD     		pop	{r3, pc}
 235              	.LVL11:
 236              	.L21:
 929:Drivers/STM32F4xx_HAL_Driver/Src/stm32f4xx_hal_i2s_ex.c **** 
 237              		.loc 1 929 3 discriminator 1 view .LVU64
 238 003c 014A     		ldr	r2, .L22+4
 239 003e ECE7     		b	.L18
 240              	.L23:
 241              		.align	2
 242              	.L22:
 243 0040 00380040 		.word	1073756160
 244 0044 00340040 		.word	1073755136
 245              		.cfi_endproc
 246              	.LFE142:
 248              		.section	.text.I2SEx_TxISR_I2S,"ax",%progbits
 249              		.align	1
 250              		.syntax unified
ARM GAS  C:\Users\jonas\AppData\Local\Temp\ccyC9VxG.s 			page 22


 251              		.thumb
 252              		.thumb_func
 254              	I2SEx_TxISR_I2S:
 255              	.LVL12:
 256              	.LFB143:
 945:Drivers/STM32F4xx_HAL_Driver/Src/stm32f4xx_hal_i2s_ex.c **** 
 946:Drivers/STM32F4xx_HAL_Driver/Src/stm32f4xx_hal_i2s_ex.c **** /**
 947:Drivers/STM32F4xx_HAL_Driver/Src/stm32f4xx_hal_i2s_ex.c ****   * @brief  I2S Full-Duplex IT handler transmit function
 948:Drivers/STM32F4xx_HAL_Driver/Src/stm32f4xx_hal_i2s_ex.c ****   * @param  hi2s I2S handle
 949:Drivers/STM32F4xx_HAL_Driver/Src/stm32f4xx_hal_i2s_ex.c ****   * @retval None
 950:Drivers/STM32F4xx_HAL_Driver/Src/stm32f4xx_hal_i2s_ex.c ****   */
 951:Drivers/STM32F4xx_HAL_Driver/Src/stm32f4xx_hal_i2s_ex.c **** static void I2SEx_TxISR_I2S(I2S_HandleTypeDef *hi2s)
 952:Drivers/STM32F4xx_HAL_Driver/Src/stm32f4xx_hal_i2s_ex.c **** {
 257              		.loc 1 952 1 is_stmt 1 view -0
 258              		.cfi_startproc
 259              		@ args = 0, pretend = 0, frame = 0
 260              		@ frame_needed = 0, uses_anonymous_args = 0
 261              		.loc 1 952 1 is_stmt 0 view .LVU66
 262 0000 08B5     		push	{r3, lr}
 263              		.cfi_def_cfa_offset 8
 264              		.cfi_offset 3, -8
 265              		.cfi_offset 14, -4
 953:Drivers/STM32F4xx_HAL_Driver/Src/stm32f4xx_hal_i2s_ex.c ****   /* Write Data on DR register */
 954:Drivers/STM32F4xx_HAL_Driver/Src/stm32f4xx_hal_i2s_ex.c ****   hi2s->Instance->DR = (*hi2s->pTxBuffPtr++);
 266              		.loc 1 954 3 is_stmt 1 view .LVU67
 267              		.loc 1 954 30 is_stmt 0 view .LVU68
 268 0002 436A     		ldr	r3, [r0, #36]
 269              		.loc 1 954 42 view .LVU69
 270 0004 9A1C     		adds	r2, r3, #2
 271 0006 4262     		str	r2, [r0, #36]
 272              		.loc 1 954 7 view .LVU70
 273 0008 0268     		ldr	r2, [r0]
 274              		.loc 1 954 25 view .LVU71
 275 000a 1B88     		ldrh	r3, [r3]
 276              		.loc 1 954 22 view .LVU72
 277 000c D360     		str	r3, [r2, #12]
 955:Drivers/STM32F4xx_HAL_Driver/Src/stm32f4xx_hal_i2s_ex.c ****   hi2s->TxXferCount--;
 278              		.loc 1 955 3 is_stmt 1 view .LVU73
 279              		.loc 1 955 7 is_stmt 0 view .LVU74
 280 000e 438D     		ldrh	r3, [r0, #42]
 281 0010 9BB2     		uxth	r3, r3
 282              		.loc 1 955 20 view .LVU75
 283 0012 013B     		subs	r3, r3, #1
 284 0014 9BB2     		uxth	r3, r3
 285 0016 4385     		strh	r3, [r0, #42]	@ movhi
 956:Drivers/STM32F4xx_HAL_Driver/Src/stm32f4xx_hal_i2s_ex.c **** 
 957:Drivers/STM32F4xx_HAL_Driver/Src/stm32f4xx_hal_i2s_ex.c ****   if (hi2s->TxXferCount == 0U)
 286              		.loc 1 957 3 is_stmt 1 view .LVU76
 287              		.loc 1 957 11 is_stmt 0 view .LVU77
 288 0018 438D     		ldrh	r3, [r0, #42]
 289 001a 9BB2     		uxth	r3, r3
 290              		.loc 1 957 6 view .LVU78
 291 001c 63B9     		cbnz	r3, .L24
 958:Drivers/STM32F4xx_HAL_Driver/Src/stm32f4xx_hal_i2s_ex.c ****   {
 959:Drivers/STM32F4xx_HAL_Driver/Src/stm32f4xx_hal_i2s_ex.c ****     /* Disable TXE and ERR interrupt */
 960:Drivers/STM32F4xx_HAL_Driver/Src/stm32f4xx_hal_i2s_ex.c ****     __HAL_I2S_DISABLE_IT(hi2s, (I2S_IT_TXE | I2S_IT_ERR));
 292              		.loc 1 960 5 is_stmt 1 view .LVU79
ARM GAS  C:\Users\jonas\AppData\Local\Temp\ccyC9VxG.s 			page 23


 293 001e 0268     		ldr	r2, [r0]
 294 0020 5368     		ldr	r3, [r2, #4]
 295 0022 23F0A003 		bic	r3, r3, #160
 296 0026 5360     		str	r3, [r2, #4]
 961:Drivers/STM32F4xx_HAL_Driver/Src/stm32f4xx_hal_i2s_ex.c **** 
 962:Drivers/STM32F4xx_HAL_Driver/Src/stm32f4xx_hal_i2s_ex.c ****     if (hi2s->RxXferCount == 0U)
 297              		.loc 1 962 5 view .LVU80
 298              		.loc 1 962 13 is_stmt 0 view .LVU81
 299 0028 438E     		ldrh	r3, [r0, #50]
 300 002a 9BB2     		uxth	r3, r3
 301              		.loc 1 962 8 view .LVU82
 302 002c 23B9     		cbnz	r3, .L24
 963:Drivers/STM32F4xx_HAL_Driver/Src/stm32f4xx_hal_i2s_ex.c ****     {
 964:Drivers/STM32F4xx_HAL_Driver/Src/stm32f4xx_hal_i2s_ex.c ****       hi2s->State = HAL_I2S_STATE_READY;
 303              		.loc 1 964 7 is_stmt 1 view .LVU83
 304              		.loc 1 964 19 is_stmt 0 view .LVU84
 305 002e 0123     		movs	r3, #1
 306 0030 80F84130 		strb	r3, [r0, #65]
 965:Drivers/STM32F4xx_HAL_Driver/Src/stm32f4xx_hal_i2s_ex.c ****       /* Call user TxRx complete callback */
 966:Drivers/STM32F4xx_HAL_Driver/Src/stm32f4xx_hal_i2s_ex.c **** #if (USE_HAL_I2S_REGISTER_CALLBACKS == 1U)
 967:Drivers/STM32F4xx_HAL_Driver/Src/stm32f4xx_hal_i2s_ex.c ****       hi2s->TxRxCpltCallback(hi2s);
 307              		.loc 1 967 7 is_stmt 1 view .LVU85
 308              		.loc 1 967 11 is_stmt 0 view .LVU86
 309 0034 036D     		ldr	r3, [r0, #80]
 310              		.loc 1 967 7 view .LVU87
 311 0036 9847     		blx	r3
 312              	.LVL13:
 313              	.L24:
 968:Drivers/STM32F4xx_HAL_Driver/Src/stm32f4xx_hal_i2s_ex.c **** #else
 969:Drivers/STM32F4xx_HAL_Driver/Src/stm32f4xx_hal_i2s_ex.c ****       HAL_I2SEx_TxRxCpltCallback(hi2s);
 970:Drivers/STM32F4xx_HAL_Driver/Src/stm32f4xx_hal_i2s_ex.c **** #endif /* USE_HAL_I2S_REGISTER_CALLBACKS */
 971:Drivers/STM32F4xx_HAL_Driver/Src/stm32f4xx_hal_i2s_ex.c ****     }
 972:Drivers/STM32F4xx_HAL_Driver/Src/stm32f4xx_hal_i2s_ex.c ****   }
 973:Drivers/STM32F4xx_HAL_Driver/Src/stm32f4xx_hal_i2s_ex.c **** }
 314              		.loc 1 973 1 view .LVU88
 315 0038 08BD     		pop	{r3, pc}
 316              		.cfi_endproc
 317              	.LFE143:
 319              		.section	.text.I2SEx_TxISR_I2SExt,"ax",%progbits
 320              		.align	1
 321              		.syntax unified
 322              		.thumb
 323              		.thumb_func
 325              	I2SEx_TxISR_I2SExt:
 326              	.LVL14:
 327              	.LFB144:
 974:Drivers/STM32F4xx_HAL_Driver/Src/stm32f4xx_hal_i2s_ex.c **** 
 975:Drivers/STM32F4xx_HAL_Driver/Src/stm32f4xx_hal_i2s_ex.c **** /**
 976:Drivers/STM32F4xx_HAL_Driver/Src/stm32f4xx_hal_i2s_ex.c ****   * @brief  I2SExt Full-Duplex IT handler transmit function
 977:Drivers/STM32F4xx_HAL_Driver/Src/stm32f4xx_hal_i2s_ex.c ****   * @param  hi2s I2S handle
 978:Drivers/STM32F4xx_HAL_Driver/Src/stm32f4xx_hal_i2s_ex.c ****   * @retval None
 979:Drivers/STM32F4xx_HAL_Driver/Src/stm32f4xx_hal_i2s_ex.c ****   */
 980:Drivers/STM32F4xx_HAL_Driver/Src/stm32f4xx_hal_i2s_ex.c **** static void I2SEx_TxISR_I2SExt(I2S_HandleTypeDef *hi2s)
 981:Drivers/STM32F4xx_HAL_Driver/Src/stm32f4xx_hal_i2s_ex.c **** {
 328              		.loc 1 981 1 is_stmt 1 view -0
 329              		.cfi_startproc
 330              		@ args = 0, pretend = 0, frame = 0
ARM GAS  C:\Users\jonas\AppData\Local\Temp\ccyC9VxG.s 			page 24


 331              		@ frame_needed = 0, uses_anonymous_args = 0
 332              		.loc 1 981 1 is_stmt 0 view .LVU90
 333 0000 08B5     		push	{r3, lr}
 334              		.cfi_def_cfa_offset 8
 335              		.cfi_offset 3, -8
 336              		.cfi_offset 14, -4
 982:Drivers/STM32F4xx_HAL_Driver/Src/stm32f4xx_hal_i2s_ex.c ****   /* Write Data on DR register */
 983:Drivers/STM32F4xx_HAL_Driver/Src/stm32f4xx_hal_i2s_ex.c ****   I2SxEXT(hi2s->Instance)->DR = (*hi2s->pTxBuffPtr++);
 337              		.loc 1 983 3 is_stmt 1 view .LVU91
 338              		.loc 1 983 39 is_stmt 0 view .LVU92
 339 0002 436A     		ldr	r3, [r0, #36]
 340              		.loc 1 983 51 view .LVU93
 341 0004 9A1C     		adds	r2, r3, #2
 342 0006 4262     		str	r2, [r0, #36]
 343              		.loc 1 983 34 view .LVU94
 344 0008 1A88     		ldrh	r2, [r3]
 345              		.loc 1 983 3 view .LVU95
 346 000a 0168     		ldr	r1, [r0]
 347 000c 124B     		ldr	r3, .L36
 348 000e 9942     		cmp	r1, r3
 349 0010 1DD0     		beq	.L34
 350              		.loc 1 983 3 discriminator 2 view .LVU96
 351 0012 4FF04023 		mov	r3, #1073758208
 352              	.L28:
 353              		.loc 1 983 31 discriminator 4 view .LVU97
 354 0016 DA60     		str	r2, [r3, #12]
 984:Drivers/STM32F4xx_HAL_Driver/Src/stm32f4xx_hal_i2s_ex.c ****   hi2s->TxXferCount--;
 355              		.loc 1 984 3 is_stmt 1 view .LVU98
 356              		.loc 1 984 7 is_stmt 0 view .LVU99
 357 0018 438D     		ldrh	r3, [r0, #42]
 358 001a 9BB2     		uxth	r3, r3
 359              		.loc 1 984 20 view .LVU100
 360 001c 013B     		subs	r3, r3, #1
 361 001e 9BB2     		uxth	r3, r3
 362 0020 4385     		strh	r3, [r0, #42]	@ movhi
 985:Drivers/STM32F4xx_HAL_Driver/Src/stm32f4xx_hal_i2s_ex.c **** 
 986:Drivers/STM32F4xx_HAL_Driver/Src/stm32f4xx_hal_i2s_ex.c ****   if (hi2s->TxXferCount == 0U)
 363              		.loc 1 986 3 is_stmt 1 view .LVU101
 364              		.loc 1 986 11 is_stmt 0 view .LVU102
 365 0022 438D     		ldrh	r3, [r0, #42]
 366 0024 9BB2     		uxth	r3, r3
 367              		.loc 1 986 6 view .LVU103
 368 0026 8BB9     		cbnz	r3, .L27
 987:Drivers/STM32F4xx_HAL_Driver/Src/stm32f4xx_hal_i2s_ex.c ****   {
 988:Drivers/STM32F4xx_HAL_Driver/Src/stm32f4xx_hal_i2s_ex.c ****     /* Disable I2Sext TXE and ERR interrupt */
 989:Drivers/STM32F4xx_HAL_Driver/Src/stm32f4xx_hal_i2s_ex.c ****     __HAL_I2SEXT_DISABLE_IT(hi2s, (I2S_IT_TXE | I2S_IT_ERR));
 369              		.loc 1 989 5 is_stmt 1 view .LVU104
 370 0028 0268     		ldr	r2, [r0]
 371 002a 0B4B     		ldr	r3, .L36
 372 002c 9A42     		cmp	r2, r3
 373 002e 11D0     		beq	.L35
 374              		.loc 1 989 5 is_stmt 0 discriminator 2 view .LVU105
 375 0030 4FF04022 		mov	r2, #1073758208
 376              	.L30:
 377              		.loc 1 989 5 discriminator 4 view .LVU106
 378 0034 5368     		ldr	r3, [r2, #4]
 379              		.loc 1 989 5 discriminator 8 view .LVU107
ARM GAS  C:\Users\jonas\AppData\Local\Temp\ccyC9VxG.s 			page 25


 380 0036 23F0A003 		bic	r3, r3, #160
 381 003a 5360     		str	r3, [r2, #4]
 990:Drivers/STM32F4xx_HAL_Driver/Src/stm32f4xx_hal_i2s_ex.c **** 
 991:Drivers/STM32F4xx_HAL_Driver/Src/stm32f4xx_hal_i2s_ex.c ****     if (hi2s->RxXferCount == 0U)
 382              		.loc 1 991 5 is_stmt 1 view .LVU108
 383              		.loc 1 991 13 is_stmt 0 view .LVU109
 384 003c 438E     		ldrh	r3, [r0, #50]
 385 003e 9BB2     		uxth	r3, r3
 386              		.loc 1 991 8 view .LVU110
 387 0040 23B9     		cbnz	r3, .L27
 992:Drivers/STM32F4xx_HAL_Driver/Src/stm32f4xx_hal_i2s_ex.c ****     {
 993:Drivers/STM32F4xx_HAL_Driver/Src/stm32f4xx_hal_i2s_ex.c ****       hi2s->State = HAL_I2S_STATE_READY;
 388              		.loc 1 993 7 is_stmt 1 view .LVU111
 389              		.loc 1 993 19 is_stmt 0 view .LVU112
 390 0042 0123     		movs	r3, #1
 391 0044 80F84130 		strb	r3, [r0, #65]
 994:Drivers/STM32F4xx_HAL_Driver/Src/stm32f4xx_hal_i2s_ex.c ****       /* Call user TxRx complete callback */
 995:Drivers/STM32F4xx_HAL_Driver/Src/stm32f4xx_hal_i2s_ex.c **** #if (USE_HAL_I2S_REGISTER_CALLBACKS == 1U)
 996:Drivers/STM32F4xx_HAL_Driver/Src/stm32f4xx_hal_i2s_ex.c ****       hi2s->TxRxCpltCallback(hi2s);
 392              		.loc 1 996 7 is_stmt 1 view .LVU113
 393              		.loc 1 996 11 is_stmt 0 view .LVU114
 394 0048 036D     		ldr	r3, [r0, #80]
 395              		.loc 1 996 7 view .LVU115
 396 004a 9847     		blx	r3
 397              	.LVL15:
 398              	.L27:
 997:Drivers/STM32F4xx_HAL_Driver/Src/stm32f4xx_hal_i2s_ex.c **** #else
 998:Drivers/STM32F4xx_HAL_Driver/Src/stm32f4xx_hal_i2s_ex.c ****       HAL_I2SEx_TxRxCpltCallback(hi2s);
 999:Drivers/STM32F4xx_HAL_Driver/Src/stm32f4xx_hal_i2s_ex.c **** #endif /* USE_HAL_I2S_REGISTER_CALLBACKS */
1000:Drivers/STM32F4xx_HAL_Driver/Src/stm32f4xx_hal_i2s_ex.c ****     }
1001:Drivers/STM32F4xx_HAL_Driver/Src/stm32f4xx_hal_i2s_ex.c ****   }
1002:Drivers/STM32F4xx_HAL_Driver/Src/stm32f4xx_hal_i2s_ex.c **** }
 399              		.loc 1 1002 1 view .LVU116
 400 004c 08BD     		pop	{r3, pc}
 401              	.LVL16:
 402              	.L34:
 983:Drivers/STM32F4xx_HAL_Driver/Src/stm32f4xx_hal_i2s_ex.c ****   hi2s->TxXferCount--;
 403              		.loc 1 983 3 discriminator 1 view .LVU117
 404 004e A3F58063 		sub	r3, r3, #1024
 405 0052 E0E7     		b	.L28
 406              	.L35:
 989:Drivers/STM32F4xx_HAL_Driver/Src/stm32f4xx_hal_i2s_ex.c **** 
 407              		.loc 1 989 5 discriminator 1 view .LVU118
 408 0054 014A     		ldr	r2, .L36+4
 409 0056 EDE7     		b	.L30
 410              	.L37:
 411              		.align	2
 412              	.L36:
 413 0058 00380040 		.word	1073756160
 414 005c 00340040 		.word	1073755136
 415              		.cfi_endproc
 416              	.LFE144:
 418              		.section	.text.I2SEx_RxISR_I2S,"ax",%progbits
 419              		.align	1
 420              		.syntax unified
 421              		.thumb
 422              		.thumb_func
ARM GAS  C:\Users\jonas\AppData\Local\Temp\ccyC9VxG.s 			page 26


 424              	I2SEx_RxISR_I2S:
 425              	.LVL17:
 426              	.LFB145:
1003:Drivers/STM32F4xx_HAL_Driver/Src/stm32f4xx_hal_i2s_ex.c **** 
1004:Drivers/STM32F4xx_HAL_Driver/Src/stm32f4xx_hal_i2s_ex.c **** /**
1005:Drivers/STM32F4xx_HAL_Driver/Src/stm32f4xx_hal_i2s_ex.c ****   * @brief  I2S Full-Duplex IT handler receive function
1006:Drivers/STM32F4xx_HAL_Driver/Src/stm32f4xx_hal_i2s_ex.c ****   * @param  hi2s I2S handle
1007:Drivers/STM32F4xx_HAL_Driver/Src/stm32f4xx_hal_i2s_ex.c ****   * @retval None
1008:Drivers/STM32F4xx_HAL_Driver/Src/stm32f4xx_hal_i2s_ex.c ****   */
1009:Drivers/STM32F4xx_HAL_Driver/Src/stm32f4xx_hal_i2s_ex.c **** static void I2SEx_RxISR_I2S(I2S_HandleTypeDef *hi2s)
1010:Drivers/STM32F4xx_HAL_Driver/Src/stm32f4xx_hal_i2s_ex.c **** {
 427              		.loc 1 1010 1 is_stmt 1 view -0
 428              		.cfi_startproc
 429              		@ args = 0, pretend = 0, frame = 0
 430              		@ frame_needed = 0, uses_anonymous_args = 0
 431              		.loc 1 1010 1 is_stmt 0 view .LVU120
 432 0000 08B5     		push	{r3, lr}
 433              		.cfi_def_cfa_offset 8
 434              		.cfi_offset 3, -8
 435              		.cfi_offset 14, -4
1011:Drivers/STM32F4xx_HAL_Driver/Src/stm32f4xx_hal_i2s_ex.c ****   /* Read Data from DR register */
1012:Drivers/STM32F4xx_HAL_Driver/Src/stm32f4xx_hal_i2s_ex.c ****   (*hi2s->pRxBuffPtr++) = hi2s->Instance->DR;
 436              		.loc 1 1012 3 is_stmt 1 view .LVU121
 437              		.loc 1 1012 31 is_stmt 0 view .LVU122
 438 0002 0368     		ldr	r3, [r0]
 439              		.loc 1 1012 41 view .LVU123
 440 0004 DA68     		ldr	r2, [r3, #12]
 441              		.loc 1 1012 9 view .LVU124
 442 0006 C36A     		ldr	r3, [r0, #44]
 443              		.loc 1 1012 21 view .LVU125
 444 0008 991C     		adds	r1, r3, #2
 445 000a C162     		str	r1, [r0, #44]
 446              		.loc 1 1012 25 view .LVU126
 447 000c 1A80     		strh	r2, [r3]	@ movhi
1013:Drivers/STM32F4xx_HAL_Driver/Src/stm32f4xx_hal_i2s_ex.c ****   hi2s->RxXferCount--;
 448              		.loc 1 1013 3 is_stmt 1 view .LVU127
 449              		.loc 1 1013 7 is_stmt 0 view .LVU128
 450 000e 438E     		ldrh	r3, [r0, #50]
 451 0010 9BB2     		uxth	r3, r3
 452              		.loc 1 1013 20 view .LVU129
 453 0012 013B     		subs	r3, r3, #1
 454 0014 9BB2     		uxth	r3, r3
 455 0016 4386     		strh	r3, [r0, #50]	@ movhi
1014:Drivers/STM32F4xx_HAL_Driver/Src/stm32f4xx_hal_i2s_ex.c **** 
1015:Drivers/STM32F4xx_HAL_Driver/Src/stm32f4xx_hal_i2s_ex.c ****   if (hi2s->RxXferCount == 0U)
 456              		.loc 1 1015 3 is_stmt 1 view .LVU130
 457              		.loc 1 1015 11 is_stmt 0 view .LVU131
 458 0018 438E     		ldrh	r3, [r0, #50]
 459 001a 9BB2     		uxth	r3, r3
 460              		.loc 1 1015 6 view .LVU132
 461 001c 63B9     		cbnz	r3, .L38
1016:Drivers/STM32F4xx_HAL_Driver/Src/stm32f4xx_hal_i2s_ex.c ****   {
1017:Drivers/STM32F4xx_HAL_Driver/Src/stm32f4xx_hal_i2s_ex.c ****     /* Disable RXNE and ERR interrupt */
1018:Drivers/STM32F4xx_HAL_Driver/Src/stm32f4xx_hal_i2s_ex.c ****     __HAL_I2S_DISABLE_IT(hi2s, (I2S_IT_RXNE | I2S_IT_ERR));
 462              		.loc 1 1018 5 is_stmt 1 view .LVU133
 463 001e 0268     		ldr	r2, [r0]
 464 0020 5368     		ldr	r3, [r2, #4]
ARM GAS  C:\Users\jonas\AppData\Local\Temp\ccyC9VxG.s 			page 27


 465 0022 23F06003 		bic	r3, r3, #96
 466 0026 5360     		str	r3, [r2, #4]
1019:Drivers/STM32F4xx_HAL_Driver/Src/stm32f4xx_hal_i2s_ex.c **** 
1020:Drivers/STM32F4xx_HAL_Driver/Src/stm32f4xx_hal_i2s_ex.c ****     if (hi2s->TxXferCount == 0U)
 467              		.loc 1 1020 5 view .LVU134
 468              		.loc 1 1020 13 is_stmt 0 view .LVU135
 469 0028 438D     		ldrh	r3, [r0, #42]
 470 002a 9BB2     		uxth	r3, r3
 471              		.loc 1 1020 8 view .LVU136
 472 002c 23B9     		cbnz	r3, .L38
1021:Drivers/STM32F4xx_HAL_Driver/Src/stm32f4xx_hal_i2s_ex.c ****     {
1022:Drivers/STM32F4xx_HAL_Driver/Src/stm32f4xx_hal_i2s_ex.c ****       hi2s->State = HAL_I2S_STATE_READY;
 473              		.loc 1 1022 7 is_stmt 1 view .LVU137
 474              		.loc 1 1022 19 is_stmt 0 view .LVU138
 475 002e 0123     		movs	r3, #1
 476 0030 80F84130 		strb	r3, [r0, #65]
1023:Drivers/STM32F4xx_HAL_Driver/Src/stm32f4xx_hal_i2s_ex.c ****       /* Call user TxRx complete callback */
1024:Drivers/STM32F4xx_HAL_Driver/Src/stm32f4xx_hal_i2s_ex.c **** #if (USE_HAL_I2S_REGISTER_CALLBACKS == 1U)
1025:Drivers/STM32F4xx_HAL_Driver/Src/stm32f4xx_hal_i2s_ex.c ****       hi2s->TxRxCpltCallback(hi2s);
 477              		.loc 1 1025 7 is_stmt 1 view .LVU139
 478              		.loc 1 1025 11 is_stmt 0 view .LVU140
 479 0034 036D     		ldr	r3, [r0, #80]
 480              		.loc 1 1025 7 view .LVU141
 481 0036 9847     		blx	r3
 482              	.LVL18:
 483              	.L38:
1026:Drivers/STM32F4xx_HAL_Driver/Src/stm32f4xx_hal_i2s_ex.c **** #else
1027:Drivers/STM32F4xx_HAL_Driver/Src/stm32f4xx_hal_i2s_ex.c ****       HAL_I2SEx_TxRxCpltCallback(hi2s);
1028:Drivers/STM32F4xx_HAL_Driver/Src/stm32f4xx_hal_i2s_ex.c **** #endif /* USE_HAL_I2S_REGISTER_CALLBACKS */
1029:Drivers/STM32F4xx_HAL_Driver/Src/stm32f4xx_hal_i2s_ex.c ****     }
1030:Drivers/STM32F4xx_HAL_Driver/Src/stm32f4xx_hal_i2s_ex.c ****   }
1031:Drivers/STM32F4xx_HAL_Driver/Src/stm32f4xx_hal_i2s_ex.c **** }
 484              		.loc 1 1031 1 view .LVU142
 485 0038 08BD     		pop	{r3, pc}
 486              		.cfi_endproc
 487              	.LFE145:
 489              		.section	.text.I2SEx_RxISR_I2SExt,"ax",%progbits
 490              		.align	1
 491              		.syntax unified
 492              		.thumb
 493              		.thumb_func
 495              	I2SEx_RxISR_I2SExt:
 496              	.LVL19:
 497              	.LFB146:
1032:Drivers/STM32F4xx_HAL_Driver/Src/stm32f4xx_hal_i2s_ex.c **** 
1033:Drivers/STM32F4xx_HAL_Driver/Src/stm32f4xx_hal_i2s_ex.c **** /**
1034:Drivers/STM32F4xx_HAL_Driver/Src/stm32f4xx_hal_i2s_ex.c ****   * @brief  I2SExt Full-Duplex IT handler receive function
1035:Drivers/STM32F4xx_HAL_Driver/Src/stm32f4xx_hal_i2s_ex.c ****   * @param  hi2s I2S handle
1036:Drivers/STM32F4xx_HAL_Driver/Src/stm32f4xx_hal_i2s_ex.c ****   * @retval None
1037:Drivers/STM32F4xx_HAL_Driver/Src/stm32f4xx_hal_i2s_ex.c ****   */
1038:Drivers/STM32F4xx_HAL_Driver/Src/stm32f4xx_hal_i2s_ex.c **** static void I2SEx_RxISR_I2SExt(I2S_HandleTypeDef *hi2s)
1039:Drivers/STM32F4xx_HAL_Driver/Src/stm32f4xx_hal_i2s_ex.c **** {
 498              		.loc 1 1039 1 is_stmt 1 view -0
 499              		.cfi_startproc
 500              		@ args = 0, pretend = 0, frame = 0
 501              		@ frame_needed = 0, uses_anonymous_args = 0
 502              		.loc 1 1039 1 is_stmt 0 view .LVU144
ARM GAS  C:\Users\jonas\AppData\Local\Temp\ccyC9VxG.s 			page 28


 503 0000 08B5     		push	{r3, lr}
 504              		.cfi_def_cfa_offset 8
 505              		.cfi_offset 3, -8
 506              		.cfi_offset 14, -4
1040:Drivers/STM32F4xx_HAL_Driver/Src/stm32f4xx_hal_i2s_ex.c ****   /* Read Data from DR register */
1041:Drivers/STM32F4xx_HAL_Driver/Src/stm32f4xx_hal_i2s_ex.c ****   (*hi2s->pRxBuffPtr++) = I2SxEXT(hi2s->Instance)->DR;
 507              		.loc 1 1041 3 is_stmt 1 view .LVU145
 508              		.loc 1 1041 27 is_stmt 0 view .LVU146
 509 0002 0268     		ldr	r2, [r0]
 510 0004 144B     		ldr	r3, .L50
 511 0006 9A42     		cmp	r2, r3
 512 0008 21D0     		beq	.L48
 513              		.loc 1 1041 27 discriminator 2 view .LVU147
 514 000a 4FF04023 		mov	r3, #1073758208
 515              	.L42:
 516              		.loc 1 1041 50 discriminator 4 view .LVU148
 517 000e DA68     		ldr	r2, [r3, #12]
 518              		.loc 1 1041 9 discriminator 4 view .LVU149
 519 0010 C36A     		ldr	r3, [r0, #44]
 520              		.loc 1 1041 21 discriminator 4 view .LVU150
 521 0012 991C     		adds	r1, r3, #2
 522 0014 C162     		str	r1, [r0, #44]
 523              		.loc 1 1041 25 discriminator 4 view .LVU151
 524 0016 1A80     		strh	r2, [r3]	@ movhi
1042:Drivers/STM32F4xx_HAL_Driver/Src/stm32f4xx_hal_i2s_ex.c ****   hi2s->RxXferCount--;
 525              		.loc 1 1042 3 is_stmt 1 view .LVU152
 526              		.loc 1 1042 7 is_stmt 0 view .LVU153
 527 0018 438E     		ldrh	r3, [r0, #50]
 528 001a 9BB2     		uxth	r3, r3
 529              		.loc 1 1042 20 view .LVU154
 530 001c 013B     		subs	r3, r3, #1
 531 001e 9BB2     		uxth	r3, r3
 532 0020 4386     		strh	r3, [r0, #50]	@ movhi
1043:Drivers/STM32F4xx_HAL_Driver/Src/stm32f4xx_hal_i2s_ex.c **** 
1044:Drivers/STM32F4xx_HAL_Driver/Src/stm32f4xx_hal_i2s_ex.c ****   if (hi2s->RxXferCount == 0U)
 533              		.loc 1 1044 3 is_stmt 1 view .LVU155
 534              		.loc 1 1044 11 is_stmt 0 view .LVU156
 535 0022 438E     		ldrh	r3, [r0, #50]
 536 0024 9BB2     		uxth	r3, r3
 537              		.loc 1 1044 6 view .LVU157
 538 0026 8BB9     		cbnz	r3, .L41
1045:Drivers/STM32F4xx_HAL_Driver/Src/stm32f4xx_hal_i2s_ex.c ****   {
1046:Drivers/STM32F4xx_HAL_Driver/Src/stm32f4xx_hal_i2s_ex.c ****     /* Disable I2Sext RXNE and ERR interrupt */
1047:Drivers/STM32F4xx_HAL_Driver/Src/stm32f4xx_hal_i2s_ex.c ****     __HAL_I2SEXT_DISABLE_IT(hi2s, (I2S_IT_RXNE | I2S_IT_ERR));
 539              		.loc 1 1047 5 is_stmt 1 view .LVU158
 540 0028 0268     		ldr	r2, [r0]
 541 002a 0B4B     		ldr	r3, .L50
 542 002c 9A42     		cmp	r2, r3
 543 002e 11D0     		beq	.L49
 544              		.loc 1 1047 5 is_stmt 0 discriminator 2 view .LVU159
 545 0030 4FF04022 		mov	r2, #1073758208
 546              	.L44:
 547              		.loc 1 1047 5 discriminator 4 view .LVU160
 548 0034 5368     		ldr	r3, [r2, #4]
 549              		.loc 1 1047 5 discriminator 8 view .LVU161
 550 0036 23F06003 		bic	r3, r3, #96
 551 003a 5360     		str	r3, [r2, #4]
ARM GAS  C:\Users\jonas\AppData\Local\Temp\ccyC9VxG.s 			page 29


1048:Drivers/STM32F4xx_HAL_Driver/Src/stm32f4xx_hal_i2s_ex.c **** 
1049:Drivers/STM32F4xx_HAL_Driver/Src/stm32f4xx_hal_i2s_ex.c ****     if (hi2s->TxXferCount == 0U)
 552              		.loc 1 1049 5 is_stmt 1 view .LVU162
 553              		.loc 1 1049 13 is_stmt 0 view .LVU163
 554 003c 438D     		ldrh	r3, [r0, #42]
 555 003e 9BB2     		uxth	r3, r3
 556              		.loc 1 1049 8 view .LVU164
 557 0040 23B9     		cbnz	r3, .L41
1050:Drivers/STM32F4xx_HAL_Driver/Src/stm32f4xx_hal_i2s_ex.c ****     {
1051:Drivers/STM32F4xx_HAL_Driver/Src/stm32f4xx_hal_i2s_ex.c ****       hi2s->State = HAL_I2S_STATE_READY;
 558              		.loc 1 1051 7 is_stmt 1 view .LVU165
 559              		.loc 1 1051 19 is_stmt 0 view .LVU166
 560 0042 0123     		movs	r3, #1
 561 0044 80F84130 		strb	r3, [r0, #65]
1052:Drivers/STM32F4xx_HAL_Driver/Src/stm32f4xx_hal_i2s_ex.c ****       /* Call user TxRx complete callback */
1053:Drivers/STM32F4xx_HAL_Driver/Src/stm32f4xx_hal_i2s_ex.c **** #if (USE_HAL_I2S_REGISTER_CALLBACKS == 1U)
1054:Drivers/STM32F4xx_HAL_Driver/Src/stm32f4xx_hal_i2s_ex.c ****       hi2s->TxRxCpltCallback(hi2s);
 562              		.loc 1 1054 7 is_stmt 1 view .LVU167
 563              		.loc 1 1054 11 is_stmt 0 view .LVU168
 564 0048 036D     		ldr	r3, [r0, #80]
 565              		.loc 1 1054 7 view .LVU169
 566 004a 9847     		blx	r3
 567              	.LVL20:
 568              	.L41:
1055:Drivers/STM32F4xx_HAL_Driver/Src/stm32f4xx_hal_i2s_ex.c **** #else
1056:Drivers/STM32F4xx_HAL_Driver/Src/stm32f4xx_hal_i2s_ex.c ****       HAL_I2SEx_TxRxCpltCallback(hi2s);
1057:Drivers/STM32F4xx_HAL_Driver/Src/stm32f4xx_hal_i2s_ex.c **** #endif /* USE_HAL_I2S_REGISTER_CALLBACKS */
1058:Drivers/STM32F4xx_HAL_Driver/Src/stm32f4xx_hal_i2s_ex.c ****     }
1059:Drivers/STM32F4xx_HAL_Driver/Src/stm32f4xx_hal_i2s_ex.c ****   }
1060:Drivers/STM32F4xx_HAL_Driver/Src/stm32f4xx_hal_i2s_ex.c **** }
 569              		.loc 1 1060 1 view .LVU170
 570 004c 08BD     		pop	{r3, pc}
 571              	.LVL21:
 572              	.L48:
1041:Drivers/STM32F4xx_HAL_Driver/Src/stm32f4xx_hal_i2s_ex.c ****   hi2s->RxXferCount--;
 573              		.loc 1 1041 27 discriminator 1 view .LVU171
 574 004e A3F58063 		sub	r3, r3, #1024
 575 0052 DCE7     		b	.L42
 576              	.L49:
1047:Drivers/STM32F4xx_HAL_Driver/Src/stm32f4xx_hal_i2s_ex.c **** 
 577              		.loc 1 1047 5 discriminator 1 view .LVU172
 578 0054 014A     		ldr	r2, .L50+4
 579 0056 EDE7     		b	.L44
 580              	.L51:
 581              		.align	2
 582              	.L50:
 583 0058 00380040 		.word	1073756160
 584 005c 00340040 		.word	1073755136
 585              		.cfi_endproc
 586              	.LFE146:
 588              		.section	.text.I2SEx_FullDuplexWaitFlagStateUntilTimeout,"ax",%progbits
 589              		.align	1
 590              		.syntax unified
 591              		.thumb
 592              		.thumb_func
 594              	I2SEx_FullDuplexWaitFlagStateUntilTimeout:
 595              	.LVL22:
ARM GAS  C:\Users\jonas\AppData\Local\Temp\ccyC9VxG.s 			page 30


 596              	.LFB147:
1061:Drivers/STM32F4xx_HAL_Driver/Src/stm32f4xx_hal_i2s_ex.c **** 
1062:Drivers/STM32F4xx_HAL_Driver/Src/stm32f4xx_hal_i2s_ex.c **** /**
1063:Drivers/STM32F4xx_HAL_Driver/Src/stm32f4xx_hal_i2s_ex.c ****   * @brief This function handles I2S Communication Timeout.
1064:Drivers/STM32F4xx_HAL_Driver/Src/stm32f4xx_hal_i2s_ex.c ****   * @param hi2s I2S handle
1065:Drivers/STM32F4xx_HAL_Driver/Src/stm32f4xx_hal_i2s_ex.c ****   * @param Flag Flag checked
1066:Drivers/STM32F4xx_HAL_Driver/Src/stm32f4xx_hal_i2s_ex.c ****   * @param State Value of the flag expected
1067:Drivers/STM32F4xx_HAL_Driver/Src/stm32f4xx_hal_i2s_ex.c ****   * @param Timeout Duration of the timeout
1068:Drivers/STM32F4xx_HAL_Driver/Src/stm32f4xx_hal_i2s_ex.c ****   * @param i2sUsed I2S instance reference
1069:Drivers/STM32F4xx_HAL_Driver/Src/stm32f4xx_hal_i2s_ex.c ****   * @retval HAL status
1070:Drivers/STM32F4xx_HAL_Driver/Src/stm32f4xx_hal_i2s_ex.c ****   */
1071:Drivers/STM32F4xx_HAL_Driver/Src/stm32f4xx_hal_i2s_ex.c **** static HAL_StatusTypeDef I2SEx_FullDuplexWaitFlagStateUntilTimeout(I2S_HandleTypeDef *hi2s,
1072:Drivers/STM32F4xx_HAL_Driver/Src/stm32f4xx_hal_i2s_ex.c ****                                                                    uint32_t Flag,
1073:Drivers/STM32F4xx_HAL_Driver/Src/stm32f4xx_hal_i2s_ex.c ****                                                                    uint32_t State,
1074:Drivers/STM32F4xx_HAL_Driver/Src/stm32f4xx_hal_i2s_ex.c ****                                                                    uint32_t Timeout,
1075:Drivers/STM32F4xx_HAL_Driver/Src/stm32f4xx_hal_i2s_ex.c ****                                                                    I2S_UseTypeDef i2sUsed)
1076:Drivers/STM32F4xx_HAL_Driver/Src/stm32f4xx_hal_i2s_ex.c **** {
 597              		.loc 1 1076 1 is_stmt 1 view -0
 598              		.cfi_startproc
 599              		@ args = 4, pretend = 0, frame = 0
 600              		@ frame_needed = 0, uses_anonymous_args = 0
 601              		.loc 1 1076 1 is_stmt 0 view .LVU174
 602 0000 2DE9F047 		push	{r4, r5, r6, r7, r8, r9, r10, lr}
 603              		.cfi_def_cfa_offset 32
 604              		.cfi_offset 4, -32
 605              		.cfi_offset 5, -28
 606              		.cfi_offset 6, -24
 607              		.cfi_offset 7, -20
 608              		.cfi_offset 8, -16
 609              		.cfi_offset 9, -12
 610              		.cfi_offset 10, -8
 611              		.cfi_offset 14, -4
 612 0004 0646     		mov	r6, r0
 613 0006 0F46     		mov	r7, r1
 614 0008 9046     		mov	r8, r2
 615 000a 1D46     		mov	r5, r3
 616 000c 9DF820A0 		ldrb	r10, [sp, #32]	@ zero_extendqisi2
1077:Drivers/STM32F4xx_HAL_Driver/Src/stm32f4xx_hal_i2s_ex.c ****   uint32_t tickstart = HAL_GetTick();
 617              		.loc 1 1077 3 is_stmt 1 view .LVU175
 618              		.loc 1 1077 24 is_stmt 0 view .LVU176
 619 0010 FFF7FEFF 		bl	HAL_GetTick
 620              	.LVL23:
 621              		.loc 1 1077 24 view .LVU177
 622 0014 8146     		mov	r9, r0
 623              	.LVL24:
1078:Drivers/STM32F4xx_HAL_Driver/Src/stm32f4xx_hal_i2s_ex.c **** 
1079:Drivers/STM32F4xx_HAL_Driver/Src/stm32f4xx_hal_i2s_ex.c ****   if (i2sUsed == I2S_USE_I2S)
 624              		.loc 1 1079 3 is_stmt 1 view .LVU178
 625              		.loc 1 1079 6 is_stmt 0 view .LVU179
 626 0016 BAF1000F 		cmp	r10, #0
 627 001a 15D0     		beq	.L55
 628 001c 36E0     		b	.L60
 629              	.LVL25:
 630              	.L70:
1080:Drivers/STM32F4xx_HAL_Driver/Src/stm32f4xx_hal_i2s_ex.c ****   {
1081:Drivers/STM32F4xx_HAL_Driver/Src/stm32f4xx_hal_i2s_ex.c ****     /* Wait until flag is reset */
1082:Drivers/STM32F4xx_HAL_Driver/Src/stm32f4xx_hal_i2s_ex.c ****     while (((__HAL_I2S_GET_FLAG(hi2s, Flag)) ? SET : RESET) != State)
ARM GAS  C:\Users\jonas\AppData\Local\Temp\ccyC9VxG.s 			page 31


1083:Drivers/STM32F4xx_HAL_Driver/Src/stm32f4xx_hal_i2s_ex.c ****     {
1084:Drivers/STM32F4xx_HAL_Driver/Src/stm32f4xx_hal_i2s_ex.c ****       if (Timeout != HAL_MAX_DELAY)
1085:Drivers/STM32F4xx_HAL_Driver/Src/stm32f4xx_hal_i2s_ex.c ****       {
1086:Drivers/STM32F4xx_HAL_Driver/Src/stm32f4xx_hal_i2s_ex.c ****         if ((Timeout == 0U) || ((HAL_GetTick() - tickstart) > Timeout))
 631              		.loc 1 1086 9 is_stmt 1 view .LVU180
 632              		.loc 1 1086 12 is_stmt 0 view .LVU181
 633 001e 2DB1     		cbz	r5, .L56
 634              		.loc 1 1086 34 discriminator 1 view .LVU182
 635 0020 FFF7FEFF 		bl	HAL_GetTick
 636              	.LVL26:
 637              		.loc 1 1086 48 discriminator 1 view .LVU183
 638 0024 A0EB0900 		sub	r0, r0, r9
 639              		.loc 1 1086 29 discriminator 1 view .LVU184
 640 0028 A842     		cmp	r0, r5
 641 002a 0DD9     		bls	.L55
 642              	.L56:
1087:Drivers/STM32F4xx_HAL_Driver/Src/stm32f4xx_hal_i2s_ex.c ****         {
1088:Drivers/STM32F4xx_HAL_Driver/Src/stm32f4xx_hal_i2s_ex.c ****           /* Set the I2S State ready */
1089:Drivers/STM32F4xx_HAL_Driver/Src/stm32f4xx_hal_i2s_ex.c ****           hi2s->State = HAL_I2S_STATE_READY;
 643              		.loc 1 1089 11 is_stmt 1 view .LVU185
 644              		.loc 1 1089 23 is_stmt 0 view .LVU186
 645 002c 0123     		movs	r3, #1
 646 002e 86F84130 		strb	r3, [r6, #65]
1090:Drivers/STM32F4xx_HAL_Driver/Src/stm32f4xx_hal_i2s_ex.c **** 
1091:Drivers/STM32F4xx_HAL_Driver/Src/stm32f4xx_hal_i2s_ex.c ****           /* Process Unlocked */
1092:Drivers/STM32F4xx_HAL_Driver/Src/stm32f4xx_hal_i2s_ex.c ****           __HAL_UNLOCK(hi2s);
 647              		.loc 1 1092 11 is_stmt 1 view .LVU187
 648              		.loc 1 1092 11 view .LVU188
 649 0032 0023     		movs	r3, #0
 650 0034 86F84030 		strb	r3, [r6, #64]
 651              		.loc 1 1092 11 view .LVU189
1093:Drivers/STM32F4xx_HAL_Driver/Src/stm32f4xx_hal_i2s_ex.c **** 
1094:Drivers/STM32F4xx_HAL_Driver/Src/stm32f4xx_hal_i2s_ex.c ****           return HAL_TIMEOUT;
 652              		.loc 1 1094 11 view .LVU190
 653              		.loc 1 1094 18 is_stmt 0 view .LVU191
 654 0038 0320     		movs	r0, #3
 655 003a 0DE0     		b	.L57
 656              	.L71:
1082:Drivers/STM32F4xx_HAL_Driver/Src/stm32f4xx_hal_i2s_ex.c ****     {
 657              		.loc 1 1082 52 discriminator 1 view .LVU192
 658 003c 0123     		movs	r3, #1
 659              	.L58:
1082:Drivers/STM32F4xx_HAL_Driver/Src/stm32f4xx_hal_i2s_ex.c ****     {
 660              		.loc 1 1082 61 discriminator 4 view .LVU193
 661 003e 4345     		cmp	r3, r8
 662 0040 09D0     		beq	.L69
1084:Drivers/STM32F4xx_HAL_Driver/Src/stm32f4xx_hal_i2s_ex.c ****       {
 663              		.loc 1 1084 7 is_stmt 1 view .LVU194
1084:Drivers/STM32F4xx_HAL_Driver/Src/stm32f4xx_hal_i2s_ex.c ****       {
 664              		.loc 1 1084 10 is_stmt 0 view .LVU195
 665 0042 B5F1FF3F 		cmp	r5, #-1
 666 0046 EAD1     		bne	.L70
 667              	.L55:
1082:Drivers/STM32F4xx_HAL_Driver/Src/stm32f4xx_hal_i2s_ex.c ****     {
 668              		.loc 1 1082 61 is_stmt 1 view .LVU196
1082:Drivers/STM32F4xx_HAL_Driver/Src/stm32f4xx_hal_i2s_ex.c ****     {
 669              		.loc 1 1082 14 is_stmt 0 view .LVU197
ARM GAS  C:\Users\jonas\AppData\Local\Temp\ccyC9VxG.s 			page 32


 670 0048 3368     		ldr	r3, [r6]
 671 004a 9C68     		ldr	r4, [r3, #8]
1082:Drivers/STM32F4xx_HAL_Driver/Src/stm32f4xx_hal_i2s_ex.c ****     {
 672              		.loc 1 1082 52 view .LVU198
 673 004c 37EA0404 		bics	r4, r7, r4
 674 0050 F4D0     		beq	.L71
1082:Drivers/STM32F4xx_HAL_Driver/Src/stm32f4xx_hal_i2s_ex.c ****     {
 675              		.loc 1 1082 52 discriminator 2 view .LVU199
 676 0052 0023     		movs	r3, #0
 677 0054 F3E7     		b	.L58
 678              	.L69:
1095:Drivers/STM32F4xx_HAL_Driver/Src/stm32f4xx_hal_i2s_ex.c ****         }
1096:Drivers/STM32F4xx_HAL_Driver/Src/stm32f4xx_hal_i2s_ex.c ****       }
1097:Drivers/STM32F4xx_HAL_Driver/Src/stm32f4xx_hal_i2s_ex.c ****     }
1098:Drivers/STM32F4xx_HAL_Driver/Src/stm32f4xx_hal_i2s_ex.c ****   }
1099:Drivers/STM32F4xx_HAL_Driver/Src/stm32f4xx_hal_i2s_ex.c ****   else /* i2sUsed == I2S_USE_I2SEXT */
1100:Drivers/STM32F4xx_HAL_Driver/Src/stm32f4xx_hal_i2s_ex.c ****   {
1101:Drivers/STM32F4xx_HAL_Driver/Src/stm32f4xx_hal_i2s_ex.c ****     /* Wait until flag is reset */
1102:Drivers/STM32F4xx_HAL_Driver/Src/stm32f4xx_hal_i2s_ex.c ****     while (((__HAL_I2SEXT_GET_FLAG(hi2s, Flag)) ? SET : RESET) != State)
1103:Drivers/STM32F4xx_HAL_Driver/Src/stm32f4xx_hal_i2s_ex.c ****     {
1104:Drivers/STM32F4xx_HAL_Driver/Src/stm32f4xx_hal_i2s_ex.c ****       if (Timeout != HAL_MAX_DELAY)
1105:Drivers/STM32F4xx_HAL_Driver/Src/stm32f4xx_hal_i2s_ex.c ****       {
1106:Drivers/STM32F4xx_HAL_Driver/Src/stm32f4xx_hal_i2s_ex.c ****         if ((Timeout == 0U) || ((HAL_GetTick() - tickstart) > Timeout))
1107:Drivers/STM32F4xx_HAL_Driver/Src/stm32f4xx_hal_i2s_ex.c ****         {
1108:Drivers/STM32F4xx_HAL_Driver/Src/stm32f4xx_hal_i2s_ex.c ****           /* Set the I2S State ready */
1109:Drivers/STM32F4xx_HAL_Driver/Src/stm32f4xx_hal_i2s_ex.c ****           hi2s->State = HAL_I2S_STATE_READY;
1110:Drivers/STM32F4xx_HAL_Driver/Src/stm32f4xx_hal_i2s_ex.c **** 
1111:Drivers/STM32F4xx_HAL_Driver/Src/stm32f4xx_hal_i2s_ex.c ****           /* Process Unlocked */
1112:Drivers/STM32F4xx_HAL_Driver/Src/stm32f4xx_hal_i2s_ex.c ****           __HAL_UNLOCK(hi2s);
1113:Drivers/STM32F4xx_HAL_Driver/Src/stm32f4xx_hal_i2s_ex.c **** 
1114:Drivers/STM32F4xx_HAL_Driver/Src/stm32f4xx_hal_i2s_ex.c ****           return HAL_TIMEOUT;
1115:Drivers/STM32F4xx_HAL_Driver/Src/stm32f4xx_hal_i2s_ex.c ****         }
1116:Drivers/STM32F4xx_HAL_Driver/Src/stm32f4xx_hal_i2s_ex.c ****       }
1117:Drivers/STM32F4xx_HAL_Driver/Src/stm32f4xx_hal_i2s_ex.c ****     }
1118:Drivers/STM32F4xx_HAL_Driver/Src/stm32f4xx_hal_i2s_ex.c ****   }
1119:Drivers/STM32F4xx_HAL_Driver/Src/stm32f4xx_hal_i2s_ex.c ****   return HAL_OK;
 679              		.loc 1 1119 10 view .LVU200
 680 0056 5046     		mov	r0, r10
 681              	.L57:
1120:Drivers/STM32F4xx_HAL_Driver/Src/stm32f4xx_hal_i2s_ex.c **** }
 682              		.loc 1 1120 1 view .LVU201
 683 0058 BDE8F087 		pop	{r4, r5, r6, r7, r8, r9, r10, pc}
 684              	.LVL27:
 685              	.L73:
1106:Drivers/STM32F4xx_HAL_Driver/Src/stm32f4xx_hal_i2s_ex.c ****         {
 686              		.loc 1 1106 9 is_stmt 1 view .LVU202
1106:Drivers/STM32F4xx_HAL_Driver/Src/stm32f4xx_hal_i2s_ex.c ****         {
 687              		.loc 1 1106 12 is_stmt 0 view .LVU203
 688 005c 2DB1     		cbz	r5, .L61
1106:Drivers/STM32F4xx_HAL_Driver/Src/stm32f4xx_hal_i2s_ex.c ****         {
 689              		.loc 1 1106 34 discriminator 1 view .LVU204
 690 005e FFF7FEFF 		bl	HAL_GetTick
 691              	.LVL28:
1106:Drivers/STM32F4xx_HAL_Driver/Src/stm32f4xx_hal_i2s_ex.c ****         {
 692              		.loc 1 1106 48 discriminator 1 view .LVU205
 693 0062 A0EB0900 		sub	r0, r0, r9
1106:Drivers/STM32F4xx_HAL_Driver/Src/stm32f4xx_hal_i2s_ex.c ****         {
ARM GAS  C:\Users\jonas\AppData\Local\Temp\ccyC9VxG.s 			page 33


 694              		.loc 1 1106 29 discriminator 1 view .LVU206
 695 0066 A842     		cmp	r0, r5
 696 0068 10D9     		bls	.L60
 697              	.L61:
1109:Drivers/STM32F4xx_HAL_Driver/Src/stm32f4xx_hal_i2s_ex.c **** 
 698              		.loc 1 1109 11 is_stmt 1 view .LVU207
1109:Drivers/STM32F4xx_HAL_Driver/Src/stm32f4xx_hal_i2s_ex.c **** 
 699              		.loc 1 1109 23 is_stmt 0 view .LVU208
 700 006a 0123     		movs	r3, #1
 701 006c 86F84130 		strb	r3, [r6, #65]
1112:Drivers/STM32F4xx_HAL_Driver/Src/stm32f4xx_hal_i2s_ex.c **** 
 702              		.loc 1 1112 11 is_stmt 1 view .LVU209
1112:Drivers/STM32F4xx_HAL_Driver/Src/stm32f4xx_hal_i2s_ex.c **** 
 703              		.loc 1 1112 11 view .LVU210
 704 0070 0023     		movs	r3, #0
 705 0072 86F84030 		strb	r3, [r6, #64]
1112:Drivers/STM32F4xx_HAL_Driver/Src/stm32f4xx_hal_i2s_ex.c **** 
 706              		.loc 1 1112 11 view .LVU211
1114:Drivers/STM32F4xx_HAL_Driver/Src/stm32f4xx_hal_i2s_ex.c ****         }
 707              		.loc 1 1114 11 view .LVU212
1114:Drivers/STM32F4xx_HAL_Driver/Src/stm32f4xx_hal_i2s_ex.c ****         }
 708              		.loc 1 1114 18 is_stmt 0 view .LVU213
 709 0076 0320     		movs	r0, #3
 710 0078 EEE7     		b	.L57
 711              	.L74:
1102:Drivers/STM32F4xx_HAL_Driver/Src/stm32f4xx_hal_i2s_ex.c ****     {
 712              		.loc 1 1102 14 discriminator 1 view .LVU214
 713 007a A3F58063 		sub	r3, r3, #1024
 714 007e 0BE0     		b	.L62
 715              	.L75:
1102:Drivers/STM32F4xx_HAL_Driver/Src/stm32f4xx_hal_i2s_ex.c ****     {
 716              		.loc 1 1102 55 discriminator 5 view .LVU215
 717 0080 0123     		movs	r3, #1
 718              	.L63:
1102:Drivers/STM32F4xx_HAL_Driver/Src/stm32f4xx_hal_i2s_ex.c ****     {
 719              		.loc 1 1102 64 discriminator 8 view .LVU216
 720 0082 4345     		cmp	r3, r8
 721 0084 0ED0     		beq	.L72
1104:Drivers/STM32F4xx_HAL_Driver/Src/stm32f4xx_hal_i2s_ex.c ****       {
 722              		.loc 1 1104 7 is_stmt 1 view .LVU217
1104:Drivers/STM32F4xx_HAL_Driver/Src/stm32f4xx_hal_i2s_ex.c ****       {
 723              		.loc 1 1104 10 is_stmt 0 view .LVU218
 724 0086 B5F1FF3F 		cmp	r5, #-1
 725 008a E7D1     		bne	.L73
 726              	.L60:
1102:Drivers/STM32F4xx_HAL_Driver/Src/stm32f4xx_hal_i2s_ex.c ****     {
 727              		.loc 1 1102 64 is_stmt 1 view .LVU219
1102:Drivers/STM32F4xx_HAL_Driver/Src/stm32f4xx_hal_i2s_ex.c ****     {
 728              		.loc 1 1102 14 is_stmt 0 view .LVU220
 729 008c 3268     		ldr	r2, [r6]
 730 008e 064B     		ldr	r3, .L76
 731 0090 9A42     		cmp	r2, r3
 732 0092 F2D0     		beq	.L74
1102:Drivers/STM32F4xx_HAL_Driver/Src/stm32f4xx_hal_i2s_ex.c ****     {
 733              		.loc 1 1102 14 discriminator 2 view .LVU221
 734 0094 4FF04023 		mov	r3, #1073758208
 735              	.L62:
ARM GAS  C:\Users\jonas\AppData\Local\Temp\ccyC9VxG.s 			page 34


1102:Drivers/STM32F4xx_HAL_Driver/Src/stm32f4xx_hal_i2s_ex.c ****     {
 736              		.loc 1 1102 14 discriminator 4 view .LVU222
 737 0098 9C68     		ldr	r4, [r3, #8]
1102:Drivers/STM32F4xx_HAL_Driver/Src/stm32f4xx_hal_i2s_ex.c ****     {
 738              		.loc 1 1102 55 discriminator 4 view .LVU223
 739 009a 37EA0404 		bics	r4, r7, r4
 740 009e EFD0     		beq	.L75
1102:Drivers/STM32F4xx_HAL_Driver/Src/stm32f4xx_hal_i2s_ex.c ****     {
 741              		.loc 1 1102 55 discriminator 6 view .LVU224
 742 00a0 0023     		movs	r3, #0
 743 00a2 EEE7     		b	.L63
 744              	.L72:
1119:Drivers/STM32F4xx_HAL_Driver/Src/stm32f4xx_hal_i2s_ex.c **** }
 745              		.loc 1 1119 10 view .LVU225
 746 00a4 0020     		movs	r0, #0
 747 00a6 D7E7     		b	.L57
 748              	.L77:
 749              		.align	2
 750              	.L76:
 751 00a8 00380040 		.word	1073756160
 752              		.cfi_endproc
 753              	.LFE147:
 755              		.section	.text.HAL_I2SEx_TransmitReceive,"ax",%progbits
 756              		.align	1
 757              		.global	HAL_I2SEx_TransmitReceive
 758              		.syntax unified
 759              		.thumb
 760              		.thumb_func
 762              	HAL_I2SEx_TransmitReceive:
 763              	.LVL29:
 764              	.LFB134:
 211:Drivers/STM32F4xx_HAL_Driver/Src/stm32f4xx_hal_i2s_ex.c ****   uint32_t tmp1 = 0U;
 765              		.loc 1 211 1 is_stmt 1 view -0
 766              		.cfi_startproc
 767              		@ args = 4, pretend = 0, frame = 24
 768              		@ frame_needed = 0, uses_anonymous_args = 0
 211:Drivers/STM32F4xx_HAL_Driver/Src/stm32f4xx_hal_i2s_ex.c ****   uint32_t tmp1 = 0U;
 769              		.loc 1 211 1 is_stmt 0 view .LVU227
 770 0000 2DE9F043 		push	{r4, r5, r6, r7, r8, r9, lr}
 771              		.cfi_def_cfa_offset 28
 772              		.cfi_offset 4, -28
 773              		.cfi_offset 5, -24
 774              		.cfi_offset 6, -20
 775              		.cfi_offset 7, -16
 776              		.cfi_offset 8, -12
 777              		.cfi_offset 9, -8
 778              		.cfi_offset 14, -4
 779 0004 89B0     		sub	sp, sp, #36
 780              		.cfi_def_cfa_offset 64
 781 0006 0446     		mov	r4, r0
 782 0008 DDF84080 		ldr	r8, [sp, #64]
 212:Drivers/STM32F4xx_HAL_Driver/Src/stm32f4xx_hal_i2s_ex.c ****   HAL_StatusTypeDef errorcode = HAL_OK;
 783              		.loc 1 212 3 is_stmt 1 view .LVU228
 784              	.LVL30:
 213:Drivers/STM32F4xx_HAL_Driver/Src/stm32f4xx_hal_i2s_ex.c **** 
 785              		.loc 1 213 3 view .LVU229
 215:Drivers/STM32F4xx_HAL_Driver/Src/stm32f4xx_hal_i2s_ex.c ****   {
ARM GAS  C:\Users\jonas\AppData\Local\Temp\ccyC9VxG.s 			page 35


 786              		.loc 1 215 3 view .LVU230
 215:Drivers/STM32F4xx_HAL_Driver/Src/stm32f4xx_hal_i2s_ex.c ****   {
 787              		.loc 1 215 11 is_stmt 0 view .LVU231
 788 000c 90F84170 		ldrb	r7, [r0, #65]	@ zero_extendqisi2
 789 0010 FFB2     		uxtb	r7, r7
 215:Drivers/STM32F4xx_HAL_Driver/Src/stm32f4xx_hal_i2s_ex.c ****   {
 790              		.loc 1 215 6 view .LVU232
 791 0012 012F     		cmp	r7, #1
 792 0014 40F08081 		bne	.L109
 793 0018 1646     		mov	r6, r2
 221:Drivers/STM32F4xx_HAL_Driver/Src/stm32f4xx_hal_i2s_ex.c ****   {
 794              		.loc 1 221 3 is_stmt 1 view .LVU233
 221:Drivers/STM32F4xx_HAL_Driver/Src/stm32f4xx_hal_i2s_ex.c ****   {
 795              		.loc 1 221 6 is_stmt 0 view .LVU234
 796 001a 0029     		cmp	r1, #0
 797 001c 00F08381 		beq	.L80
 221:Drivers/STM32F4xx_HAL_Driver/Src/stm32f4xx_hal_i2s_ex.c ****   {
 798              		.loc 1 221 25 discriminator 1 view .LVU235
 799 0020 002A     		cmp	r2, #0
 800 0022 00F08081 		beq	.L80
 221:Drivers/STM32F4xx_HAL_Driver/Src/stm32f4xx_hal_i2s_ex.c ****   {
 801              		.loc 1 221 46 discriminator 2 view .LVU236
 802 0026 002B     		cmp	r3, #0
 803 0028 00F07D81 		beq	.L80
 227:Drivers/STM32F4xx_HAL_Driver/Src/stm32f4xx_hal_i2s_ex.c **** 
 804              		.loc 1 227 3 is_stmt 1 view .LVU237
 227:Drivers/STM32F4xx_HAL_Driver/Src/stm32f4xx_hal_i2s_ex.c **** 
 805              		.loc 1 227 3 view .LVU238
 806 002c 90F84020 		ldrb	r2, [r0, #64]	@ zero_extendqisi2
 807              	.LVL31:
 227:Drivers/STM32F4xx_HAL_Driver/Src/stm32f4xx_hal_i2s_ex.c **** 
 808              		.loc 1 227 3 is_stmt 0 view .LVU239
 809 0030 D2B2     		uxtb	r2, r2
 810 0032 012A     		cmp	r2, #1
 811 0034 00F07B81 		beq	.L110
 227:Drivers/STM32F4xx_HAL_Driver/Src/stm32f4xx_hal_i2s_ex.c **** 
 812              		.loc 1 227 3 is_stmt 1 discriminator 2 view .LVU240
 813 0038 0122     		movs	r2, #1
 814 003a 80F84020 		strb	r2, [r0, #64]
 227:Drivers/STM32F4xx_HAL_Driver/Src/stm32f4xx_hal_i2s_ex.c **** 
 815              		.loc 1 227 3 discriminator 2 view .LVU241
 229:Drivers/STM32F4xx_HAL_Driver/Src/stm32f4xx_hal_i2s_ex.c ****   /* Check the Data format: When a 16-bit data frame or a 16-bit data frame extended
 816              		.loc 1 229 3 view .LVU242
 229:Drivers/STM32F4xx_HAL_Driver/Src/stm32f4xx_hal_i2s_ex.c ****   /* Check the Data format: When a 16-bit data frame or a 16-bit data frame extended
 817              		.loc 1 229 14 is_stmt 0 view .LVU243
 818 003e 0068     		ldr	r0, [r0]
 819              	.LVL32:
 229:Drivers/STM32F4xx_HAL_Driver/Src/stm32f4xx_hal_i2s_ex.c ****   /* Check the Data format: When a 16-bit data frame or a 16-bit data frame extended
 820              		.loc 1 229 24 view .LVU244
 821 0040 C269     		ldr	r2, [r0, #28]
 229:Drivers/STM32F4xx_HAL_Driver/Src/stm32f4xx_hal_i2s_ex.c ****   /* Check the Data format: When a 16-bit data frame or a 16-bit data frame extended
 822              		.loc 1 229 8 view .LVU245
 823 0042 02F00702 		and	r2, r2, #7
 824              	.LVL33:
 234:Drivers/STM32F4xx_HAL_Driver/Src/stm32f4xx_hal_i2s_ex.c ****   {
 825              		.loc 1 234 3 is_stmt 1 view .LVU246
 234:Drivers/STM32F4xx_HAL_Driver/Src/stm32f4xx_hal_i2s_ex.c ****   {
ARM GAS  C:\Users\jonas\AppData\Local\Temp\ccyC9VxG.s 			page 36


 826              		.loc 1 234 6 is_stmt 0 view .LVU247
 827 0046 032A     		cmp	r2, #3
 828 0048 06D0     		beq	.L81
 234:Drivers/STM32F4xx_HAL_Driver/Src/stm32f4xx_hal_i2s_ex.c ****   {
 829              		.loc 1 234 36 discriminator 1 view .LVU248
 830 004a 052A     		cmp	r2, #5
 831 004c 04D0     		beq	.L81
 243:Drivers/STM32F4xx_HAL_Driver/Src/stm32f4xx_hal_i2s_ex.c ****     hi2s->TxXferCount = Size;
 832              		.loc 1 243 5 is_stmt 1 view .LVU249
 243:Drivers/STM32F4xx_HAL_Driver/Src/stm32f4xx_hal_i2s_ex.c ****     hi2s->TxXferCount = Size;
 833              		.loc 1 243 23 is_stmt 0 view .LVU250
 834 004e 2385     		strh	r3, [r4, #40]	@ movhi
 244:Drivers/STM32F4xx_HAL_Driver/Src/stm32f4xx_hal_i2s_ex.c ****     hi2s->RxXferSize  = Size;
 835              		.loc 1 244 5 is_stmt 1 view .LVU251
 244:Drivers/STM32F4xx_HAL_Driver/Src/stm32f4xx_hal_i2s_ex.c ****     hi2s->RxXferSize  = Size;
 836              		.loc 1 244 23 is_stmt 0 view .LVU252
 837 0050 6385     		strh	r3, [r4, #42]	@ movhi
 245:Drivers/STM32F4xx_HAL_Driver/Src/stm32f4xx_hal_i2s_ex.c ****     hi2s->RxXferCount = Size;
 838              		.loc 1 245 5 is_stmt 1 view .LVU253
 245:Drivers/STM32F4xx_HAL_Driver/Src/stm32f4xx_hal_i2s_ex.c ****     hi2s->RxXferCount = Size;
 839              		.loc 1 245 23 is_stmt 0 view .LVU254
 840 0052 2386     		strh	r3, [r4, #48]	@ movhi
 246:Drivers/STM32F4xx_HAL_Driver/Src/stm32f4xx_hal_i2s_ex.c ****   }
 841              		.loc 1 246 5 is_stmt 1 view .LVU255
 246:Drivers/STM32F4xx_HAL_Driver/Src/stm32f4xx_hal_i2s_ex.c ****   }
 842              		.loc 1 246 23 is_stmt 0 view .LVU256
 843 0054 6386     		strh	r3, [r4, #50]	@ movhi
 844 0056 05E0     		b	.L83
 845              	.L81:
 236:Drivers/STM32F4xx_HAL_Driver/Src/stm32f4xx_hal_i2s_ex.c ****     hi2s->TxXferCount = (Size << 1U);
 846              		.loc 1 236 5 is_stmt 1 view .LVU257
 236:Drivers/STM32F4xx_HAL_Driver/Src/stm32f4xx_hal_i2s_ex.c ****     hi2s->TxXferCount = (Size << 1U);
 847              		.loc 1 236 31 is_stmt 0 view .LVU258
 848 0058 5B00     		lsls	r3, r3, #1
 849              	.LVL34:
 236:Drivers/STM32F4xx_HAL_Driver/Src/stm32f4xx_hal_i2s_ex.c ****     hi2s->TxXferCount = (Size << 1U);
 850              		.loc 1 236 31 view .LVU259
 851 005a 9BB2     		uxth	r3, r3
 236:Drivers/STM32F4xx_HAL_Driver/Src/stm32f4xx_hal_i2s_ex.c ****     hi2s->TxXferCount = (Size << 1U);
 852              		.loc 1 236 23 view .LVU260
 853 005c 2385     		strh	r3, [r4, #40]	@ movhi
 237:Drivers/STM32F4xx_HAL_Driver/Src/stm32f4xx_hal_i2s_ex.c ****     hi2s->RxXferSize  = (Size << 1U);
 854              		.loc 1 237 5 is_stmt 1 view .LVU261
 237:Drivers/STM32F4xx_HAL_Driver/Src/stm32f4xx_hal_i2s_ex.c ****     hi2s->RxXferSize  = (Size << 1U);
 855              		.loc 1 237 23 is_stmt 0 view .LVU262
 856 005e 6385     		strh	r3, [r4, #42]	@ movhi
 238:Drivers/STM32F4xx_HAL_Driver/Src/stm32f4xx_hal_i2s_ex.c ****     hi2s->RxXferCount = (Size << 1U);
 857              		.loc 1 238 5 is_stmt 1 view .LVU263
 238:Drivers/STM32F4xx_HAL_Driver/Src/stm32f4xx_hal_i2s_ex.c ****     hi2s->RxXferCount = (Size << 1U);
 858              		.loc 1 238 23 is_stmt 0 view .LVU264
 859 0060 2386     		strh	r3, [r4, #48]	@ movhi
 239:Drivers/STM32F4xx_HAL_Driver/Src/stm32f4xx_hal_i2s_ex.c ****   }
 860              		.loc 1 239 5 is_stmt 1 view .LVU265
 239:Drivers/STM32F4xx_HAL_Driver/Src/stm32f4xx_hal_i2s_ex.c ****   }
 861              		.loc 1 239 23 is_stmt 0 view .LVU266
 862 0062 6386     		strh	r3, [r4, #50]	@ movhi
 863              	.L83:
ARM GAS  C:\Users\jonas\AppData\Local\Temp\ccyC9VxG.s 			page 37


 250:Drivers/STM32F4xx_HAL_Driver/Src/stm32f4xx_hal_i2s_ex.c ****   hi2s->State = HAL_I2S_STATE_BUSY_TX_RX;
 864              		.loc 1 250 3 is_stmt 1 view .LVU267
 250:Drivers/STM32F4xx_HAL_Driver/Src/stm32f4xx_hal_i2s_ex.c ****   hi2s->State = HAL_I2S_STATE_BUSY_TX_RX;
 865              		.loc 1 250 19 is_stmt 0 view .LVU268
 866 0064 0023     		movs	r3, #0
 867 0066 6364     		str	r3, [r4, #68]
 251:Drivers/STM32F4xx_HAL_Driver/Src/stm32f4xx_hal_i2s_ex.c **** 
 868              		.loc 1 251 3 is_stmt 1 view .LVU269
 251:Drivers/STM32F4xx_HAL_Driver/Src/stm32f4xx_hal_i2s_ex.c **** 
 869              		.loc 1 251 15 is_stmt 0 view .LVU270
 870 0068 0523     		movs	r3, #5
 871 006a 84F84130 		strb	r3, [r4, #65]
 253:Drivers/STM32F4xx_HAL_Driver/Src/stm32f4xx_hal_i2s_ex.c ****   /* Check if the I2S_MODE_MASTER_TX or I2S_MODE_SLAVE_TX Mode is selected */
 872              		.loc 1 253 3 is_stmt 1 view .LVU271
 253:Drivers/STM32F4xx_HAL_Driver/Src/stm32f4xx_hal_i2s_ex.c ****   /* Check if the I2S_MODE_MASTER_TX or I2S_MODE_SLAVE_TX Mode is selected */
 873              		.loc 1 253 24 is_stmt 0 view .LVU272
 874 006e C369     		ldr	r3, [r0, #28]
 253:Drivers/STM32F4xx_HAL_Driver/Src/stm32f4xx_hal_i2s_ex.c ****   /* Check if the I2S_MODE_MASTER_TX or I2S_MODE_SLAVE_TX Mode is selected */
 875              		.loc 1 253 8 view .LVU273
 876 0070 03F44079 		and	r9, r3, #768
 877              	.LVL35:
 255:Drivers/STM32F4xx_HAL_Driver/Src/stm32f4xx_hal_i2s_ex.c ****   {
 878              		.loc 1 255 3 is_stmt 1 view .LVU274
 255:Drivers/STM32F4xx_HAL_Driver/Src/stm32f4xx_hal_i2s_ex.c ****   {
 879              		.loc 1 255 6 is_stmt 0 view .LVU275
 880 0074 B9F5007F 		cmp	r9, #512
 881 0078 03D0     		beq	.L84
 255:Drivers/STM32F4xx_HAL_Driver/Src/stm32f4xx_hal_i2s_ex.c ****   {
 882              		.loc 1 255 36 discriminator 1 view .LVU276
 883 007a B9F1000F 		cmp	r9, #0
 884 007e 40F0A680 		bne	.L85
 885              	.L84:
 258:Drivers/STM32F4xx_HAL_Driver/Src/stm32f4xx_hal_i2s_ex.c ****     hi2s->TxXferCount--;
 886              		.loc 1 258 5 is_stmt 1 view .LVU277
 258:Drivers/STM32F4xx_HAL_Driver/Src/stm32f4xx_hal_i2s_ex.c ****     hi2s->TxXferCount--;
 887              		.loc 1 258 35 is_stmt 0 view .LVU278
 888 0082 0D46     		mov	r5, r1
 889              	.LVL36:
 258:Drivers/STM32F4xx_HAL_Driver/Src/stm32f4xx_hal_i2s_ex.c ****     hi2s->TxXferCount--;
 890              		.loc 1 258 27 view .LVU279
 891 0084 35F8023B 		ldrh	r3, [r5], #2
 892              	.LVL37:
 258:Drivers/STM32F4xx_HAL_Driver/Src/stm32f4xx_hal_i2s_ex.c ****     hi2s->TxXferCount--;
 893              		.loc 1 258 24 view .LVU280
 894 0088 C360     		str	r3, [r0, #12]
 259:Drivers/STM32F4xx_HAL_Driver/Src/stm32f4xx_hal_i2s_ex.c **** 
 895              		.loc 1 259 5 is_stmt 1 view .LVU281
 259:Drivers/STM32F4xx_HAL_Driver/Src/stm32f4xx_hal_i2s_ex.c **** 
 896              		.loc 1 259 9 is_stmt 0 view .LVU282
 897 008a 638D     		ldrh	r3, [r4, #42]
 898 008c 9BB2     		uxth	r3, r3
 259:Drivers/STM32F4xx_HAL_Driver/Src/stm32f4xx_hal_i2s_ex.c **** 
 899              		.loc 1 259 22 view .LVU283
 900 008e 013B     		subs	r3, r3, #1
 901 0090 9BB2     		uxth	r3, r3
 902 0092 6385     		strh	r3, [r4, #42]	@ movhi
 262:Drivers/STM32F4xx_HAL_Driver/Src/stm32f4xx_hal_i2s_ex.c **** 
ARM GAS  C:\Users\jonas\AppData\Local\Temp\ccyC9VxG.s 			page 38


 903              		.loc 1 262 5 is_stmt 1 view .LVU284
 904 0094 2268     		ldr	r2, [r4]
 905 0096 8A4B     		ldr	r3, .L142
 906 0098 9A42     		cmp	r2, r3
 907 009a 1ED0     		beq	.L126
 262:Drivers/STM32F4xx_HAL_Driver/Src/stm32f4xx_hal_i2s_ex.c **** 
 908              		.loc 1 262 5 is_stmt 0 discriminator 2 view .LVU285
 909 009c 4FF04022 		mov	r2, #1073758208
 910              	.L86:
 262:Drivers/STM32F4xx_HAL_Driver/Src/stm32f4xx_hal_i2s_ex.c **** 
 911              		.loc 1 262 5 discriminator 4 view .LVU286
 912 00a0 D369     		ldr	r3, [r2, #28]
 262:Drivers/STM32F4xx_HAL_Driver/Src/stm32f4xx_hal_i2s_ex.c **** 
 913              		.loc 1 262 5 discriminator 8 view .LVU287
 914 00a2 43F48063 		orr	r3, r3, #1024
 915 00a6 D361     		str	r3, [r2, #28]
 265:Drivers/STM32F4xx_HAL_Driver/Src/stm32f4xx_hal_i2s_ex.c **** 
 916              		.loc 1 265 5 is_stmt 1 view .LVU288
 917 00a8 2268     		ldr	r2, [r4]
 918 00aa D369     		ldr	r3, [r2, #28]
 919 00ac 43F48063 		orr	r3, r3, #1024
 920 00b0 D361     		str	r3, [r2, #28]
 268:Drivers/STM32F4xx_HAL_Driver/Src/stm32f4xx_hal_i2s_ex.c ****     {
 921              		.loc 1 268 5 view .LVU289
 268:Drivers/STM32F4xx_HAL_Driver/Src/stm32f4xx_hal_i2s_ex.c ****     {
 922              		.loc 1 268 14 is_stmt 0 view .LVU290
 923 00b2 2268     		ldr	r2, [r4]
 268:Drivers/STM32F4xx_HAL_Driver/Src/stm32f4xx_hal_i2s_ex.c ****     {
 924              		.loc 1 268 24 view .LVU291
 925 00b4 D369     		ldr	r3, [r2, #28]
 268:Drivers/STM32F4xx_HAL_Driver/Src/stm32f4xx_hal_i2s_ex.c ****     {
 926              		.loc 1 268 34 view .LVU292
 927 00b6 03F44073 		and	r3, r3, #768
 268:Drivers/STM32F4xx_HAL_Driver/Src/stm32f4xx_hal_i2s_ex.c ****     {
 928              		.loc 1 268 8 view .LVU293
 929 00ba B3F5007F 		cmp	r3, #512
 930 00be 18D1     		bne	.L89
 272:Drivers/STM32F4xx_HAL_Driver/Src/stm32f4xx_hal_i2s_ex.c ****     }
 931              		.loc 1 272 7 is_stmt 1 view .LVU294
 932              	.LBB2:
 272:Drivers/STM32F4xx_HAL_Driver/Src/stm32f4xx_hal_i2s_ex.c ****     }
 933              		.loc 1 272 7 view .LVU295
 934 00c0 0023     		movs	r3, #0
 935 00c2 0293     		str	r3, [sp, #8]
 272:Drivers/STM32F4xx_HAL_Driver/Src/stm32f4xx_hal_i2s_ex.c ****     }
 936              		.loc 1 272 7 view .LVU296
 937 00c4 7E4B     		ldr	r3, .L142
 938 00c6 9A42     		cmp	r2, r3
 939 00c8 09D0     		beq	.L127
 272:Drivers/STM32F4xx_HAL_Driver/Src/stm32f4xx_hal_i2s_ex.c ****     }
 940              		.loc 1 272 7 is_stmt 0 discriminator 2 view .LVU297
 941 00ca 4FF04023 		mov	r3, #1073758208
 942              	.L88:
 272:Drivers/STM32F4xx_HAL_Driver/Src/stm32f4xx_hal_i2s_ex.c ****     }
 943              		.loc 1 272 7 discriminator 4 view .LVU298
 944 00ce DA68     		ldr	r2, [r3, #12]
 945 00d0 0292     		str	r2, [sp, #8]
ARM GAS  C:\Users\jonas\AppData\Local\Temp\ccyC9VxG.s 			page 39


 272:Drivers/STM32F4xx_HAL_Driver/Src/stm32f4xx_hal_i2s_ex.c ****     }
 946              		.loc 1 272 7 is_stmt 1 discriminator 4 view .LVU299
 272:Drivers/STM32F4xx_HAL_Driver/Src/stm32f4xx_hal_i2s_ex.c ****     }
 947              		.loc 1 272 7 is_stmt 0 discriminator 8 view .LVU300
 948 00d2 9B68     		ldr	r3, [r3, #8]
 949 00d4 0293     		str	r3, [sp, #8]
 272:Drivers/STM32F4xx_HAL_Driver/Src/stm32f4xx_hal_i2s_ex.c ****     }
 950              		.loc 1 272 7 is_stmt 1 discriminator 8 view .LVU301
 951 00d6 029B     		ldr	r3, [sp, #8]
 952 00d8 0BE0     		b	.L89
 953              	.L126:
 272:Drivers/STM32F4xx_HAL_Driver/Src/stm32f4xx_hal_i2s_ex.c ****     }
 954              		.loc 1 272 7 is_stmt 0 discriminator 8 view .LVU302
 955              	.LBE2:
 262:Drivers/STM32F4xx_HAL_Driver/Src/stm32f4xx_hal_i2s_ex.c **** 
 956              		.loc 1 262 5 discriminator 1 view .LVU303
 957 00da 7A4A     		ldr	r2, .L142+4
 958 00dc E0E7     		b	.L86
 959              	.L127:
 960              	.LBB3:
 272:Drivers/STM32F4xx_HAL_Driver/Src/stm32f4xx_hal_i2s_ex.c ****     }
 961              		.loc 1 272 7 discriminator 1 view .LVU304
 962 00de A3F58063 		sub	r3, r3, #1024
 963 00e2 F4E7     		b	.L88
 964              	.L96:
 272:Drivers/STM32F4xx_HAL_Driver/Src/stm32f4xx_hal_i2s_ex.c ****     }
 965              		.loc 1 272 7 discriminator 1 view .LVU305
 966              	.LBE3:
 277:Drivers/STM32F4xx_HAL_Driver/Src/stm32f4xx_hal_i2s_ex.c ****       {
 967              		.loc 1 277 7 is_stmt 1 view .LVU306
 277:Drivers/STM32F4xx_HAL_Driver/Src/stm32f4xx_hal_i2s_ex.c ****       {
 968              		.loc 1 277 15 is_stmt 0 view .LVU307
 969 00e4 638D     		ldrh	r3, [r4, #42]
 970 00e6 9BB2     		uxth	r3, r3
 277:Drivers/STM32F4xx_HAL_Driver/Src/stm32f4xx_hal_i2s_ex.c ****       {
 971              		.loc 1 277 10 view .LVU308
 972 00e8 8BB9     		cbnz	r3, .L128
 973              	.L90:
 301:Drivers/STM32F4xx_HAL_Driver/Src/stm32f4xx_hal_i2s_ex.c ****       {
 974              		.loc 1 301 7 is_stmt 1 view .LVU309
 301:Drivers/STM32F4xx_HAL_Driver/Src/stm32f4xx_hal_i2s_ex.c ****       {
 975              		.loc 1 301 15 is_stmt 0 view .LVU310
 976 00ea 638E     		ldrh	r3, [r4, #50]
 977 00ec 9BB2     		uxth	r3, r3
 301:Drivers/STM32F4xx_HAL_Driver/Src/stm32f4xx_hal_i2s_ex.c ****       {
 978              		.loc 1 301 10 view .LVU311
 979 00ee 002B     		cmp	r3, #0
 980 00f0 36D1     		bne	.L129
 981              	.L89:
 275:Drivers/STM32F4xx_HAL_Driver/Src/stm32f4xx_hal_i2s_ex.c ****     {
 982              		.loc 1 275 37 is_stmt 1 view .LVU312
 275:Drivers/STM32F4xx_HAL_Driver/Src/stm32f4xx_hal_i2s_ex.c ****     {
 983              		.loc 1 275 17 is_stmt 0 view .LVU313
 984 00f2 638E     		ldrh	r3, [r4, #50]
 985 00f4 9BB2     		uxth	r3, r3
 275:Drivers/STM32F4xx_HAL_Driver/Src/stm32f4xx_hal_i2s_ex.c ****     {
 986              		.loc 1 275 37 view .LVU314
ARM GAS  C:\Users\jonas\AppData\Local\Temp\ccyC9VxG.s 			page 40


 987 00f6 002B     		cmp	r3, #0
 988 00f8 F4D1     		bne	.L96
 275:Drivers/STM32F4xx_HAL_Driver/Src/stm32f4xx_hal_i2s_ex.c ****     {
 989              		.loc 1 275 45 discriminator 1 view .LVU315
 990 00fa 638D     		ldrh	r3, [r4, #42]
 991 00fc 9BB2     		uxth	r3, r3
 275:Drivers/STM32F4xx_HAL_Driver/Src/stm32f4xx_hal_i2s_ex.c ****     {
 992              		.loc 1 275 37 discriminator 1 view .LVU316
 993 00fe 002B     		cmp	r3, #0
 994 0100 F0D1     		bne	.L96
 995              	.L97:
 401:Drivers/STM32F4xx_HAL_Driver/Src/stm32f4xx_hal_i2s_ex.c ****   {
 996              		.loc 1 401 3 is_stmt 1 view .LVU317
 401:Drivers/STM32F4xx_HAL_Driver/Src/stm32f4xx_hal_i2s_ex.c ****   {
 997              		.loc 1 401 11 is_stmt 0 view .LVU318
 998 0102 636C     		ldr	r3, [r4, #68]
 401:Drivers/STM32F4xx_HAL_Driver/Src/stm32f4xx_hal_i2s_ex.c ****   {
 999              		.loc 1 401 6 view .LVU319
 1000 0104 002B     		cmp	r3, #0
 1001 0106 40F00881 		bne	.L79
 213:Drivers/STM32F4xx_HAL_Driver/Src/stm32f4xx_hal_i2s_ex.c **** 
 1002              		.loc 1 213 21 view .LVU320
 1003 010a 0027     		movs	r7, #0
 1004 010c 05E1     		b	.L79
 1005              	.L128:
 280:Drivers/STM32F4xx_HAL_Driver/Src/stm32f4xx_hal_i2s_ex.c ****         {
 1006              		.loc 1 280 9 is_stmt 1 view .LVU321
 280:Drivers/STM32F4xx_HAL_Driver/Src/stm32f4xx_hal_i2s_ex.c ****         {
 1007              		.loc 1 280 13 is_stmt 0 view .LVU322
 1008 010e 0023     		movs	r3, #0
 1009 0110 0093     		str	r3, [sp]
 1010 0112 4346     		mov	r3, r8
 1011 0114 0122     		movs	r2, #1
 1012 0116 0221     		movs	r1, #2
 1013 0118 2046     		mov	r0, r4
 1014 011a FFF7FEFF 		bl	I2SEx_FullDuplexWaitFlagStateUntilTimeout
 1015              	.LVL38:
 280:Drivers/STM32F4xx_HAL_Driver/Src/stm32f4xx_hal_i2s_ex.c ****         {
 1016              		.loc 1 280 12 discriminator 1 view .LVU323
 1017 011e D0B9     		cbnz	r0, .L130
 288:Drivers/STM32F4xx_HAL_Driver/Src/stm32f4xx_hal_i2s_ex.c ****         hi2s->TxXferCount--;
 1018              		.loc 1 288 9 is_stmt 1 view .LVU324
 1019              	.LVL39:
 288:Drivers/STM32F4xx_HAL_Driver/Src/stm32f4xx_hal_i2s_ex.c ****         hi2s->TxXferCount--;
 1020              		.loc 1 288 13 is_stmt 0 view .LVU325
 1021 0120 2368     		ldr	r3, [r4]
 288:Drivers/STM32F4xx_HAL_Driver/Src/stm32f4xx_hal_i2s_ex.c ****         hi2s->TxXferCount--;
 1022              		.loc 1 288 31 view .LVU326
 1023 0122 35F8022B 		ldrh	r2, [r5], #2
 1024              	.LVL40:
 288:Drivers/STM32F4xx_HAL_Driver/Src/stm32f4xx_hal_i2s_ex.c ****         hi2s->TxXferCount--;
 1025              		.loc 1 288 28 view .LVU327
 1026 0126 DA60     		str	r2, [r3, #12]
 289:Drivers/STM32F4xx_HAL_Driver/Src/stm32f4xx_hal_i2s_ex.c **** 
 1027              		.loc 1 289 9 is_stmt 1 view .LVU328
 289:Drivers/STM32F4xx_HAL_Driver/Src/stm32f4xx_hal_i2s_ex.c **** 
 1028              		.loc 1 289 13 is_stmt 0 view .LVU329
ARM GAS  C:\Users\jonas\AppData\Local\Temp\ccyC9VxG.s 			page 41


 1029 0128 638D     		ldrh	r3, [r4, #42]
 1030 012a 9BB2     		uxth	r3, r3
 289:Drivers/STM32F4xx_HAL_Driver/Src/stm32f4xx_hal_i2s_ex.c **** 
 1031              		.loc 1 289 26 view .LVU330
 1032 012c 013B     		subs	r3, r3, #1
 1033 012e 9BB2     		uxth	r3, r3
 1034 0130 6385     		strh	r3, [r4, #42]	@ movhi
 292:Drivers/STM32F4xx_HAL_Driver/Src/stm32f4xx_hal_i2s_ex.c ****         {
 1035              		.loc 1 292 9 is_stmt 1 view .LVU331
 292:Drivers/STM32F4xx_HAL_Driver/Src/stm32f4xx_hal_i2s_ex.c ****         {
 1036              		.loc 1 292 14 is_stmt 0 view .LVU332
 1037 0132 2368     		ldr	r3, [r4]
 1038 0134 9A68     		ldr	r2, [r3, #8]
 292:Drivers/STM32F4xx_HAL_Driver/Src/stm32f4xx_hal_i2s_ex.c ****         {
 1039              		.loc 1 292 12 view .LVU333
 1040 0136 12F0080F 		tst	r2, #8
 1041 013a D6D0     		beq	.L90
 292:Drivers/STM32F4xx_HAL_Driver/Src/stm32f4xx_hal_i2s_ex.c ****         {
 1042              		.loc 1 292 61 discriminator 1 view .LVU334
 1043 013c B9F1000F 		cmp	r9, #0
 1044 0140 D3D1     		bne	.L90
 295:Drivers/STM32F4xx_HAL_Driver/Src/stm32f4xx_hal_i2s_ex.c **** 
 1045              		.loc 1 295 11 is_stmt 1 view .LVU335
 1046              	.LBB4:
 295:Drivers/STM32F4xx_HAL_Driver/Src/stm32f4xx_hal_i2s_ex.c **** 
 1047              		.loc 1 295 11 view .LVU336
 1048 0142 0022     		movs	r2, #0
 1049 0144 0392     		str	r2, [sp, #12]
 295:Drivers/STM32F4xx_HAL_Driver/Src/stm32f4xx_hal_i2s_ex.c **** 
 1050              		.loc 1 295 11 view .LVU337
 1051 0146 9B68     		ldr	r3, [r3, #8]
 1052 0148 0393     		str	r3, [sp, #12]
 295:Drivers/STM32F4xx_HAL_Driver/Src/stm32f4xx_hal_i2s_ex.c **** 
 1053              		.loc 1 295 11 view .LVU338
 1054 014a 039B     		ldr	r3, [sp, #12]
 1055              	.LBE4:
 295:Drivers/STM32F4xx_HAL_Driver/Src/stm32f4xx_hal_i2s_ex.c **** 
 1056              		.loc 1 295 11 view .LVU339
 298:Drivers/STM32F4xx_HAL_Driver/Src/stm32f4xx_hal_i2s_ex.c ****         }
 1057              		.loc 1 298 11 view .LVU340
 1058 014c 636C     		ldr	r3, [r4, #68]
 1059 014e 43F00403 		orr	r3, r3, #4
 1060 0152 6364     		str	r3, [r4, #68]
 1061 0154 C9E7     		b	.L90
 1062              	.L130:
 283:Drivers/STM32F4xx_HAL_Driver/Src/stm32f4xx_hal_i2s_ex.c ****           errorcode = HAL_ERROR;
 1063              		.loc 1 283 11 view .LVU341
 1064 0156 636C     		ldr	r3, [r4, #68]
 1065 0158 43F00103 		orr	r3, r3, #1
 1066 015c 6364     		str	r3, [r4, #68]
 284:Drivers/STM32F4xx_HAL_Driver/Src/stm32f4xx_hal_i2s_ex.c ****           goto error;
 1067              		.loc 1 284 11 view .LVU342
 1068              	.LVL41:
 285:Drivers/STM32F4xx_HAL_Driver/Src/stm32f4xx_hal_i2s_ex.c ****         }
 1069              		.loc 1 285 11 view .LVU343
 1070 015e DCE0     		b	.L79
 1071              	.LVL42:
ARM GAS  C:\Users\jonas\AppData\Local\Temp\ccyC9VxG.s 			page 42


 1072              	.L129:
 304:Drivers/STM32F4xx_HAL_Driver/Src/stm32f4xx_hal_i2s_ex.c ****         {
 1073              		.loc 1 304 9 view .LVU344
 304:Drivers/STM32F4xx_HAL_Driver/Src/stm32f4xx_hal_i2s_ex.c ****         {
 1074              		.loc 1 304 13 is_stmt 0 view .LVU345
 1075 0160 0121     		movs	r1, #1
 1076 0162 0091     		str	r1, [sp]
 1077 0164 4346     		mov	r3, r8
 1078 0166 0A46     		mov	r2, r1
 1079 0168 2046     		mov	r0, r4
 1080 016a FFF7FEFF 		bl	I2SEx_FullDuplexWaitFlagStateUntilTimeout
 1081              	.LVL43:
 304:Drivers/STM32F4xx_HAL_Driver/Src/stm32f4xx_hal_i2s_ex.c ****         {
 1082              		.loc 1 304 12 discriminator 1 view .LVU346
 1083 016e 18BB     		cbnz	r0, .L131
 312:Drivers/STM32F4xx_HAL_Driver/Src/stm32f4xx_hal_i2s_ex.c ****         hi2s->RxXferCount--;
 1084              		.loc 1 312 9 is_stmt 1 view .LVU347
 312:Drivers/STM32F4xx_HAL_Driver/Src/stm32f4xx_hal_i2s_ex.c ****         hi2s->RxXferCount--;
 1085              		.loc 1 312 24 is_stmt 0 view .LVU348
 1086 0170 2268     		ldr	r2, [r4]
 1087 0172 534B     		ldr	r3, .L142
 1088 0174 9A42     		cmp	r2, r3
 1089 0176 24D0     		beq	.L132
 312:Drivers/STM32F4xx_HAL_Driver/Src/stm32f4xx_hal_i2s_ex.c ****         hi2s->RxXferCount--;
 1090              		.loc 1 312 24 discriminator 2 view .LVU349
 1091 0178 4FF04023 		mov	r3, #1073758208
 1092              	.L94:
 312:Drivers/STM32F4xx_HAL_Driver/Src/stm32f4xx_hal_i2s_ex.c ****         hi2s->RxXferCount--;
 1093              		.loc 1 312 47 discriminator 4 view .LVU350
 1094 017c DB68     		ldr	r3, [r3, #12]
 1095              	.LVL44:
 312:Drivers/STM32F4xx_HAL_Driver/Src/stm32f4xx_hal_i2s_ex.c ****         hi2s->RxXferCount--;
 1096              		.loc 1 312 22 discriminator 4 view .LVU351
 1097 017e 26F8023B 		strh	r3, [r6], #2	@ movhi
 1098              	.LVL45:
 313:Drivers/STM32F4xx_HAL_Driver/Src/stm32f4xx_hal_i2s_ex.c **** 
 1099              		.loc 1 313 9 is_stmt 1 view .LVU352
 313:Drivers/STM32F4xx_HAL_Driver/Src/stm32f4xx_hal_i2s_ex.c **** 
 1100              		.loc 1 313 13 is_stmt 0 view .LVU353
 1101 0182 638E     		ldrh	r3, [r4, #50]
 1102 0184 9BB2     		uxth	r3, r3
 313:Drivers/STM32F4xx_HAL_Driver/Src/stm32f4xx_hal_i2s_ex.c **** 
 1103              		.loc 1 313 26 view .LVU354
 1104 0186 013B     		subs	r3, r3, #1
 1105 0188 9BB2     		uxth	r3, r3
 1106 018a 6386     		strh	r3, [r4, #50]	@ movhi
 316:Drivers/STM32F4xx_HAL_Driver/Src/stm32f4xx_hal_i2s_ex.c ****         {
 1107              		.loc 1 316 9 is_stmt 1 view .LVU355
 316:Drivers/STM32F4xx_HAL_Driver/Src/stm32f4xx_hal_i2s_ex.c ****         {
 1108              		.loc 1 316 13 is_stmt 0 view .LVU356
 1109 018c 2368     		ldr	r3, [r4]
 1110 018e 4C4A     		ldr	r2, .L142
 1111 0190 9342     		cmp	r3, r2
 1112 0192 19D0     		beq	.L133
 316:Drivers/STM32F4xx_HAL_Driver/Src/stm32f4xx_hal_i2s_ex.c ****         {
 1113              		.loc 1 316 13 discriminator 2 view .LVU357
 1114 0194 4FF04022 		mov	r2, #1073758208
ARM GAS  C:\Users\jonas\AppData\Local\Temp\ccyC9VxG.s 			page 43


 1115              	.L95:
 316:Drivers/STM32F4xx_HAL_Driver/Src/stm32f4xx_hal_i2s_ex.c ****         {
 1116              		.loc 1 316 13 discriminator 4 view .LVU358
 1117 0198 9268     		ldr	r2, [r2, #8]
 316:Drivers/STM32F4xx_HAL_Driver/Src/stm32f4xx_hal_i2s_ex.c ****         {
 1118              		.loc 1 316 12 discriminator 4 view .LVU359
 1119 019a 12F0400F 		tst	r2, #64
 1120 019e A8D0     		beq	.L89
 319:Drivers/STM32F4xx_HAL_Driver/Src/stm32f4xx_hal_i2s_ex.c **** 
 1121              		.loc 1 319 11 is_stmt 1 view .LVU360
 1122              	.LBB5:
 319:Drivers/STM32F4xx_HAL_Driver/Src/stm32f4xx_hal_i2s_ex.c **** 
 1123              		.loc 1 319 11 view .LVU361
 1124 01a0 0022     		movs	r2, #0
 1125 01a2 0492     		str	r2, [sp, #16]
 319:Drivers/STM32F4xx_HAL_Driver/Src/stm32f4xx_hal_i2s_ex.c **** 
 1126              		.loc 1 319 11 view .LVU362
 1127 01a4 DA68     		ldr	r2, [r3, #12]
 1128 01a6 0492     		str	r2, [sp, #16]
 319:Drivers/STM32F4xx_HAL_Driver/Src/stm32f4xx_hal_i2s_ex.c **** 
 1129              		.loc 1 319 11 view .LVU363
 1130 01a8 9B68     		ldr	r3, [r3, #8]
 1131 01aa 0493     		str	r3, [sp, #16]
 319:Drivers/STM32F4xx_HAL_Driver/Src/stm32f4xx_hal_i2s_ex.c **** 
 1132              		.loc 1 319 11 view .LVU364
 1133 01ac 049B     		ldr	r3, [sp, #16]
 1134              	.LBE5:
 319:Drivers/STM32F4xx_HAL_Driver/Src/stm32f4xx_hal_i2s_ex.c **** 
 1135              		.loc 1 319 11 view .LVU365
 322:Drivers/STM32F4xx_HAL_Driver/Src/stm32f4xx_hal_i2s_ex.c ****         }
 1136              		.loc 1 322 11 view .LVU366
 1137 01ae 636C     		ldr	r3, [r4, #68]
 1138 01b0 43F00203 		orr	r3, r3, #2
 1139 01b4 6364     		str	r3, [r4, #68]
 1140 01b6 9CE7     		b	.L89
 1141              	.L131:
 307:Drivers/STM32F4xx_HAL_Driver/Src/stm32f4xx_hal_i2s_ex.c ****           errorcode = HAL_ERROR;
 1142              		.loc 1 307 11 view .LVU367
 1143 01b8 636C     		ldr	r3, [r4, #68]
 1144 01ba 43F00103 		orr	r3, r3, #1
 1145 01be 6364     		str	r3, [r4, #68]
 308:Drivers/STM32F4xx_HAL_Driver/Src/stm32f4xx_hal_i2s_ex.c ****           goto error;
 1146              		.loc 1 308 11 view .LVU368
 1147              	.LVL46:
 309:Drivers/STM32F4xx_HAL_Driver/Src/stm32f4xx_hal_i2s_ex.c ****         }
 1148              		.loc 1 309 11 view .LVU369
 1149 01c0 ABE0     		b	.L79
 1150              	.LVL47:
 1151              	.L132:
 312:Drivers/STM32F4xx_HAL_Driver/Src/stm32f4xx_hal_i2s_ex.c ****         hi2s->RxXferCount--;
 1152              		.loc 1 312 24 is_stmt 0 discriminator 1 view .LVU370
 1153 01c2 A3F58063 		sub	r3, r3, #1024
 1154 01c6 D9E7     		b	.L94
 1155              	.L133:
 316:Drivers/STM32F4xx_HAL_Driver/Src/stm32f4xx_hal_i2s_ex.c ****         {
 1156              		.loc 1 316 13 discriminator 1 view .LVU371
 1157 01c8 A2F58062 		sub	r2, r2, #1024
ARM GAS  C:\Users\jonas\AppData\Local\Temp\ccyC9VxG.s 			page 44


 1158 01cc E4E7     		b	.L95
 1159              	.LVL48:
 1160              	.L85:
 331:Drivers/STM32F4xx_HAL_Driver/Src/stm32f4xx_hal_i2s_ex.c ****     hi2s->TxXferCount--;
 1161              		.loc 1 331 5 is_stmt 1 view .LVU372
 331:Drivers/STM32F4xx_HAL_Driver/Src/stm32f4xx_hal_i2s_ex.c ****     hi2s->TxXferCount--;
 1162              		.loc 1 331 44 is_stmt 0 view .LVU373
 1163 01ce 0D46     		mov	r5, r1
 1164              	.LVL49:
 331:Drivers/STM32F4xx_HAL_Driver/Src/stm32f4xx_hal_i2s_ex.c ****     hi2s->TxXferCount--;
 1165              		.loc 1 331 36 view .LVU374
 1166 01d0 35F8022B 		ldrh	r2, [r5], #2
 1167              	.LVL50:
 331:Drivers/STM32F4xx_HAL_Driver/Src/stm32f4xx_hal_i2s_ex.c ****     hi2s->TxXferCount--;
 1168              		.loc 1 331 5 view .LVU375
 1169 01d4 3A4B     		ldr	r3, .L142
 1170 01d6 9842     		cmp	r0, r3
 1171 01d8 25D0     		beq	.L134
 331:Drivers/STM32F4xx_HAL_Driver/Src/stm32f4xx_hal_i2s_ex.c ****     hi2s->TxXferCount--;
 1172              		.loc 1 331 5 discriminator 2 view .LVU376
 1173 01da 4FF04023 		mov	r3, #1073758208
 1174              	.L98:
 331:Drivers/STM32F4xx_HAL_Driver/Src/stm32f4xx_hal_i2s_ex.c ****     hi2s->TxXferCount--;
 1175              		.loc 1 331 33 discriminator 4 view .LVU377
 1176 01de DA60     		str	r2, [r3, #12]
 332:Drivers/STM32F4xx_HAL_Driver/Src/stm32f4xx_hal_i2s_ex.c **** 
 1177              		.loc 1 332 5 is_stmt 1 view .LVU378
 332:Drivers/STM32F4xx_HAL_Driver/Src/stm32f4xx_hal_i2s_ex.c **** 
 1178              		.loc 1 332 9 is_stmt 0 view .LVU379
 1179 01e0 638D     		ldrh	r3, [r4, #42]
 1180 01e2 9BB2     		uxth	r3, r3
 332:Drivers/STM32F4xx_HAL_Driver/Src/stm32f4xx_hal_i2s_ex.c **** 
 1181              		.loc 1 332 22 view .LVU380
 1182 01e4 013B     		subs	r3, r3, #1
 1183 01e6 9BB2     		uxth	r3, r3
 1184 01e8 6385     		strh	r3, [r4, #42]	@ movhi
 335:Drivers/STM32F4xx_HAL_Driver/Src/stm32f4xx_hal_i2s_ex.c **** 
 1185              		.loc 1 335 5 is_stmt 1 view .LVU381
 1186 01ea 2268     		ldr	r2, [r4]
 1187 01ec 344B     		ldr	r3, .L142
 1188 01ee 9A42     		cmp	r2, r3
 1189 01f0 1CD0     		beq	.L135
 335:Drivers/STM32F4xx_HAL_Driver/Src/stm32f4xx_hal_i2s_ex.c **** 
 1190              		.loc 1 335 5 is_stmt 0 discriminator 2 view .LVU382
 1191 01f2 4FF04022 		mov	r2, #1073758208
 1192              	.L99:
 335:Drivers/STM32F4xx_HAL_Driver/Src/stm32f4xx_hal_i2s_ex.c **** 
 1193              		.loc 1 335 5 discriminator 4 view .LVU383
 1194 01f6 D369     		ldr	r3, [r2, #28]
 335:Drivers/STM32F4xx_HAL_Driver/Src/stm32f4xx_hal_i2s_ex.c **** 
 1195              		.loc 1 335 5 discriminator 8 view .LVU384
 1196 01f8 43F48063 		orr	r3, r3, #1024
 1197 01fc D361     		str	r3, [r2, #28]
 338:Drivers/STM32F4xx_HAL_Driver/Src/stm32f4xx_hal_i2s_ex.c **** 
 1198              		.loc 1 338 5 is_stmt 1 view .LVU385
 1199 01fe 2268     		ldr	r2, [r4]
 1200 0200 D369     		ldr	r3, [r2, #28]
ARM GAS  C:\Users\jonas\AppData\Local\Temp\ccyC9VxG.s 			page 45


 1201 0202 43F48063 		orr	r3, r3, #1024
 1202 0206 D361     		str	r3, [r2, #28]
 341:Drivers/STM32F4xx_HAL_Driver/Src/stm32f4xx_hal_i2s_ex.c ****     {
 1203              		.loc 1 341 5 view .LVU386
 341:Drivers/STM32F4xx_HAL_Driver/Src/stm32f4xx_hal_i2s_ex.c ****     {
 1204              		.loc 1 341 14 is_stmt 0 view .LVU387
 1205 0208 2268     		ldr	r2, [r4]
 341:Drivers/STM32F4xx_HAL_Driver/Src/stm32f4xx_hal_i2s_ex.c ****     {
 1206              		.loc 1 341 24 view .LVU388
 1207 020a D369     		ldr	r3, [r2, #28]
 341:Drivers/STM32F4xx_HAL_Driver/Src/stm32f4xx_hal_i2s_ex.c ****     {
 1208              		.loc 1 341 34 view .LVU389
 1209 020c 03F44073 		and	r3, r3, #768
 341:Drivers/STM32F4xx_HAL_Driver/Src/stm32f4xx_hal_i2s_ex.c ****     {
 1210              		.loc 1 341 8 view .LVU390
 1211 0210 B3F5407F 		cmp	r3, #768
 1212 0214 13D1     		bne	.L101
 345:Drivers/STM32F4xx_HAL_Driver/Src/stm32f4xx_hal_i2s_ex.c ****     }
 1213              		.loc 1 345 7 is_stmt 1 view .LVU391
 1214              	.LBB6:
 345:Drivers/STM32F4xx_HAL_Driver/Src/stm32f4xx_hal_i2s_ex.c ****     }
 1215              		.loc 1 345 7 view .LVU392
 1216 0216 0023     		movs	r3, #0
 1217 0218 0593     		str	r3, [sp, #20]
 345:Drivers/STM32F4xx_HAL_Driver/Src/stm32f4xx_hal_i2s_ex.c ****     }
 1218              		.loc 1 345 7 view .LVU393
 1219 021a D368     		ldr	r3, [r2, #12]
 1220 021c 0593     		str	r3, [sp, #20]
 345:Drivers/STM32F4xx_HAL_Driver/Src/stm32f4xx_hal_i2s_ex.c ****     }
 1221              		.loc 1 345 7 view .LVU394
 1222 021e 9368     		ldr	r3, [r2, #8]
 1223 0220 0593     		str	r3, [sp, #20]
 345:Drivers/STM32F4xx_HAL_Driver/Src/stm32f4xx_hal_i2s_ex.c ****     }
 1224              		.loc 1 345 7 view .LVU395
 1225 0222 059B     		ldr	r3, [sp, #20]
 1226 0224 0BE0     		b	.L101
 1227              	.L134:
 345:Drivers/STM32F4xx_HAL_Driver/Src/stm32f4xx_hal_i2s_ex.c ****     }
 1228              		.loc 1 345 7 is_stmt 0 view .LVU396
 1229              	.LBE6:
 331:Drivers/STM32F4xx_HAL_Driver/Src/stm32f4xx_hal_i2s_ex.c ****     hi2s->TxXferCount--;
 1230              		.loc 1 331 5 discriminator 1 view .LVU397
 1231 0226 A3F58063 		sub	r3, r3, #1024
 1232 022a D8E7     		b	.L98
 1233              	.L135:
 335:Drivers/STM32F4xx_HAL_Driver/Src/stm32f4xx_hal_i2s_ex.c **** 
 1234              		.loc 1 335 5 discriminator 1 view .LVU398
 1235 022c 254A     		ldr	r2, .L142+4
 1236 022e E2E7     		b	.L99
 1237              	.L108:
 350:Drivers/STM32F4xx_HAL_Driver/Src/stm32f4xx_hal_i2s_ex.c ****       {
 1238              		.loc 1 350 7 is_stmt 1 view .LVU399
 350:Drivers/STM32F4xx_HAL_Driver/Src/stm32f4xx_hal_i2s_ex.c ****       {
 1239              		.loc 1 350 15 is_stmt 0 view .LVU400
 1240 0230 638D     		ldrh	r3, [r4, #42]
 1241 0232 9BB2     		uxth	r3, r3
 350:Drivers/STM32F4xx_HAL_Driver/Src/stm32f4xx_hal_i2s_ex.c ****       {
ARM GAS  C:\Users\jonas\AppData\Local\Temp\ccyC9VxG.s 			page 46


 1242              		.loc 1 350 10 view .LVU401
 1243 0234 63B9     		cbnz	r3, .L136
 1244              	.L102:
 374:Drivers/STM32F4xx_HAL_Driver/Src/stm32f4xx_hal_i2s_ex.c ****       {
 1245              		.loc 1 374 7 is_stmt 1 view .LVU402
 374:Drivers/STM32F4xx_HAL_Driver/Src/stm32f4xx_hal_i2s_ex.c ****       {
 1246              		.loc 1 374 15 is_stmt 0 view .LVU403
 1247 0236 638E     		ldrh	r3, [r4, #50]
 1248 0238 9BB2     		uxth	r3, r3
 374:Drivers/STM32F4xx_HAL_Driver/Src/stm32f4xx_hal_i2s_ex.c ****       {
 1249              		.loc 1 374 10 view .LVU404
 1250 023a 002B     		cmp	r3, #0
 1251 023c 44D1     		bne	.L137
 1252              	.L101:
 348:Drivers/STM32F4xx_HAL_Driver/Src/stm32f4xx_hal_i2s_ex.c ****     {
 1253              		.loc 1 348 37 is_stmt 1 view .LVU405
 348:Drivers/STM32F4xx_HAL_Driver/Src/stm32f4xx_hal_i2s_ex.c ****     {
 1254              		.loc 1 348 17 is_stmt 0 view .LVU406
 1255 023e 638E     		ldrh	r3, [r4, #50]
 1256 0240 9BB2     		uxth	r3, r3
 348:Drivers/STM32F4xx_HAL_Driver/Src/stm32f4xx_hal_i2s_ex.c ****     {
 1257              		.loc 1 348 37 view .LVU407
 1258 0242 002B     		cmp	r3, #0
 1259 0244 F4D1     		bne	.L108
 348:Drivers/STM32F4xx_HAL_Driver/Src/stm32f4xx_hal_i2s_ex.c ****     {
 1260              		.loc 1 348 45 discriminator 1 view .LVU408
 1261 0246 638D     		ldrh	r3, [r4, #42]
 1262 0248 9BB2     		uxth	r3, r3
 348:Drivers/STM32F4xx_HAL_Driver/Src/stm32f4xx_hal_i2s_ex.c ****     {
 1263              		.loc 1 348 37 discriminator 1 view .LVU409
 1264 024a 002B     		cmp	r3, #0
 1265 024c F0D1     		bne	.L108
 1266 024e 58E7     		b	.L97
 1267              	.L136:
 353:Drivers/STM32F4xx_HAL_Driver/Src/stm32f4xx_hal_i2s_ex.c ****         {
 1268              		.loc 1 353 9 is_stmt 1 view .LVU410
 353:Drivers/STM32F4xx_HAL_Driver/Src/stm32f4xx_hal_i2s_ex.c ****         {
 1269              		.loc 1 353 13 is_stmt 0 view .LVU411
 1270 0250 0122     		movs	r2, #1
 1271 0252 0092     		str	r2, [sp]
 1272 0254 4346     		mov	r3, r8
 1273 0256 0221     		movs	r1, #2
 1274 0258 2046     		mov	r0, r4
 1275 025a FFF7FEFF 		bl	I2SEx_FullDuplexWaitFlagStateUntilTimeout
 1276              	.LVL51:
 353:Drivers/STM32F4xx_HAL_Driver/Src/stm32f4xx_hal_i2s_ex.c ****         {
 1277              		.loc 1 353 12 discriminator 1 view .LVU412
 1278 025e 20BB     		cbnz	r0, .L138
 361:Drivers/STM32F4xx_HAL_Driver/Src/stm32f4xx_hal_i2s_ex.c ****         hi2s->TxXferCount--;
 1279              		.loc 1 361 9 is_stmt 1 view .LVU413
 1280              	.LVL52:
 361:Drivers/STM32F4xx_HAL_Driver/Src/stm32f4xx_hal_i2s_ex.c ****         hi2s->TxXferCount--;
 1281              		.loc 1 361 40 is_stmt 0 view .LVU414
 1282 0260 35F8022B 		ldrh	r2, [r5], #2
 1283              	.LVL53:
 361:Drivers/STM32F4xx_HAL_Driver/Src/stm32f4xx_hal_i2s_ex.c ****         hi2s->TxXferCount--;
 1284              		.loc 1 361 9 view .LVU415
ARM GAS  C:\Users\jonas\AppData\Local\Temp\ccyC9VxG.s 			page 47


 1285 0264 2168     		ldr	r1, [r4]
 1286 0266 164B     		ldr	r3, .L142
 1287 0268 9942     		cmp	r1, r3
 1288 026a 23D0     		beq	.L139
 361:Drivers/STM32F4xx_HAL_Driver/Src/stm32f4xx_hal_i2s_ex.c ****         hi2s->TxXferCount--;
 1289              		.loc 1 361 9 discriminator 2 view .LVU416
 1290 026c 4FF04023 		mov	r3, #1073758208
 1291              	.L104:
 361:Drivers/STM32F4xx_HAL_Driver/Src/stm32f4xx_hal_i2s_ex.c ****         hi2s->TxXferCount--;
 1292              		.loc 1 361 37 discriminator 4 view .LVU417
 1293 0270 DA60     		str	r2, [r3, #12]
 362:Drivers/STM32F4xx_HAL_Driver/Src/stm32f4xx_hal_i2s_ex.c **** 
 1294              		.loc 1 362 9 is_stmt 1 view .LVU418
 362:Drivers/STM32F4xx_HAL_Driver/Src/stm32f4xx_hal_i2s_ex.c **** 
 1295              		.loc 1 362 13 is_stmt 0 view .LVU419
 1296 0272 638D     		ldrh	r3, [r4, #42]
 1297 0274 9BB2     		uxth	r3, r3
 362:Drivers/STM32F4xx_HAL_Driver/Src/stm32f4xx_hal_i2s_ex.c **** 
 1298              		.loc 1 362 26 view .LVU420
 1299 0276 013B     		subs	r3, r3, #1
 1300 0278 9BB2     		uxth	r3, r3
 1301 027a 6385     		strh	r3, [r4, #42]	@ movhi
 365:Drivers/STM32F4xx_HAL_Driver/Src/stm32f4xx_hal_i2s_ex.c ****         {
 1302              		.loc 1 365 9 is_stmt 1 view .LVU421
 365:Drivers/STM32F4xx_HAL_Driver/Src/stm32f4xx_hal_i2s_ex.c ****         {
 1303              		.loc 1 365 14 is_stmt 0 view .LVU422
 1304 027c 2368     		ldr	r3, [r4]
 1305 027e 104A     		ldr	r2, .L142
 1306 0280 9342     		cmp	r3, r2
 1307 0282 1AD0     		beq	.L140
 365:Drivers/STM32F4xx_HAL_Driver/Src/stm32f4xx_hal_i2s_ex.c ****         {
 1308              		.loc 1 365 14 discriminator 2 view .LVU423
 1309 0284 4FF04022 		mov	r2, #1073758208
 1310              	.L105:
 365:Drivers/STM32F4xx_HAL_Driver/Src/stm32f4xx_hal_i2s_ex.c ****         {
 1311              		.loc 1 365 14 discriminator 4 view .LVU424
 1312 0288 9268     		ldr	r2, [r2, #8]
 365:Drivers/STM32F4xx_HAL_Driver/Src/stm32f4xx_hal_i2s_ex.c ****         {
 1313              		.loc 1 365 12 discriminator 4 view .LVU425
 1314 028a 12F0080F 		tst	r2, #8
 1315 028e D2D0     		beq	.L102
 365:Drivers/STM32F4xx_HAL_Driver/Src/stm32f4xx_hal_i2s_ex.c ****         {
 1316              		.loc 1 365 64 discriminator 5 view .LVU426
 1317 0290 B9F5807F 		cmp	r9, #256
 1318 0294 CFD1     		bne	.L102
 368:Drivers/STM32F4xx_HAL_Driver/Src/stm32f4xx_hal_i2s_ex.c **** 
 1319              		.loc 1 368 11 is_stmt 1 view .LVU427
 1320              	.LBB7:
 368:Drivers/STM32F4xx_HAL_Driver/Src/stm32f4xx_hal_i2s_ex.c **** 
 1321              		.loc 1 368 11 view .LVU428
 1322 0296 0022     		movs	r2, #0
 1323 0298 0692     		str	r2, [sp, #24]
 368:Drivers/STM32F4xx_HAL_Driver/Src/stm32f4xx_hal_i2s_ex.c **** 
 1324              		.loc 1 368 11 view .LVU429
 1325 029a 9B68     		ldr	r3, [r3, #8]
 1326 029c 0693     		str	r3, [sp, #24]
 368:Drivers/STM32F4xx_HAL_Driver/Src/stm32f4xx_hal_i2s_ex.c **** 
ARM GAS  C:\Users\jonas\AppData\Local\Temp\ccyC9VxG.s 			page 48


 1327              		.loc 1 368 11 view .LVU430
 1328 029e 069B     		ldr	r3, [sp, #24]
 1329              	.LBE7:
 368:Drivers/STM32F4xx_HAL_Driver/Src/stm32f4xx_hal_i2s_ex.c **** 
 1330              		.loc 1 368 11 view .LVU431
 371:Drivers/STM32F4xx_HAL_Driver/Src/stm32f4xx_hal_i2s_ex.c ****         }
 1331              		.loc 1 371 11 view .LVU432
 1332 02a0 636C     		ldr	r3, [r4, #68]
 1333 02a2 43F00403 		orr	r3, r3, #4
 1334 02a6 6364     		str	r3, [r4, #68]
 1335 02a8 C5E7     		b	.L102
 1336              	.L138:
 356:Drivers/STM32F4xx_HAL_Driver/Src/stm32f4xx_hal_i2s_ex.c ****           errorcode = HAL_ERROR;
 1337              		.loc 1 356 11 view .LVU433
 1338 02aa 636C     		ldr	r3, [r4, #68]
 1339 02ac 43F00103 		orr	r3, r3, #1
 1340 02b0 6364     		str	r3, [r4, #68]
 357:Drivers/STM32F4xx_HAL_Driver/Src/stm32f4xx_hal_i2s_ex.c ****           goto error;
 1341              		.loc 1 357 11 view .LVU434
 1342              	.LVL54:
 358:Drivers/STM32F4xx_HAL_Driver/Src/stm32f4xx_hal_i2s_ex.c ****         }
 1343              		.loc 1 358 11 view .LVU435
 1344 02b2 32E0     		b	.L79
 1345              	.LVL55:
 1346              	.L139:
 361:Drivers/STM32F4xx_HAL_Driver/Src/stm32f4xx_hal_i2s_ex.c ****         hi2s->TxXferCount--;
 1347              		.loc 1 361 9 is_stmt 0 discriminator 1 view .LVU436
 1348 02b4 A3F58063 		sub	r3, r3, #1024
 1349 02b8 DAE7     		b	.L104
 1350              	.L140:
 365:Drivers/STM32F4xx_HAL_Driver/Src/stm32f4xx_hal_i2s_ex.c ****         {
 1351              		.loc 1 365 14 discriminator 1 view .LVU437
 1352 02ba A2F58062 		sub	r2, r2, #1024
 1353 02be E3E7     		b	.L105
 1354              	.L143:
 1355              		.align	2
 1356              	.L142:
 1357 02c0 00380040 		.word	1073756160
 1358 02c4 00340040 		.word	1073755136
 1359              	.L137:
 377:Drivers/STM32F4xx_HAL_Driver/Src/stm32f4xx_hal_i2s_ex.c ****         {
 1360              		.loc 1 377 9 is_stmt 1 view .LVU438
 377:Drivers/STM32F4xx_HAL_Driver/Src/stm32f4xx_hal_i2s_ex.c ****         {
 1361              		.loc 1 377 13 is_stmt 0 view .LVU439
 1362 02c8 0023     		movs	r3, #0
 1363 02ca 0093     		str	r3, [sp]
 1364 02cc 4346     		mov	r3, r8
 1365 02ce 0122     		movs	r2, #1
 1366 02d0 1146     		mov	r1, r2
 1367 02d2 2046     		mov	r0, r4
 1368 02d4 FFF7FEFF 		bl	I2SEx_FullDuplexWaitFlagStateUntilTimeout
 1369              	.LVL56:
 377:Drivers/STM32F4xx_HAL_Driver/Src/stm32f4xx_hal_i2s_ex.c ****         {
 1370              		.loc 1 377 12 discriminator 1 view .LVU440
 1371 02d8 C8B9     		cbnz	r0, .L141
 385:Drivers/STM32F4xx_HAL_Driver/Src/stm32f4xx_hal_i2s_ex.c ****         hi2s->RxXferCount--;
 1372              		.loc 1 385 9 is_stmt 1 view .LVU441
ARM GAS  C:\Users\jonas\AppData\Local\Temp\ccyC9VxG.s 			page 49


 385:Drivers/STM32F4xx_HAL_Driver/Src/stm32f4xx_hal_i2s_ex.c ****         hi2s->RxXferCount--;
 1373              		.loc 1 385 28 is_stmt 0 view .LVU442
 1374 02da 2368     		ldr	r3, [r4]
 385:Drivers/STM32F4xx_HAL_Driver/Src/stm32f4xx_hal_i2s_ex.c ****         hi2s->RxXferCount--;
 1375              		.loc 1 385 38 view .LVU443
 1376 02dc DB68     		ldr	r3, [r3, #12]
 1377              	.LVL57:
 385:Drivers/STM32F4xx_HAL_Driver/Src/stm32f4xx_hal_i2s_ex.c ****         hi2s->RxXferCount--;
 1378              		.loc 1 385 22 view .LVU444
 1379 02de 26F8023B 		strh	r3, [r6], #2	@ movhi
 1380              	.LVL58:
 386:Drivers/STM32F4xx_HAL_Driver/Src/stm32f4xx_hal_i2s_ex.c **** 
 1381              		.loc 1 386 9 is_stmt 1 view .LVU445
 386:Drivers/STM32F4xx_HAL_Driver/Src/stm32f4xx_hal_i2s_ex.c **** 
 1382              		.loc 1 386 13 is_stmt 0 view .LVU446
 1383 02e2 638E     		ldrh	r3, [r4, #50]
 1384 02e4 9BB2     		uxth	r3, r3
 386:Drivers/STM32F4xx_HAL_Driver/Src/stm32f4xx_hal_i2s_ex.c **** 
 1385              		.loc 1 386 26 view .LVU447
 1386 02e6 013B     		subs	r3, r3, #1
 1387 02e8 9BB2     		uxth	r3, r3
 1388 02ea 6386     		strh	r3, [r4, #50]	@ movhi
 389:Drivers/STM32F4xx_HAL_Driver/Src/stm32f4xx_hal_i2s_ex.c ****         {
 1389              		.loc 1 389 9 is_stmt 1 view .LVU448
 389:Drivers/STM32F4xx_HAL_Driver/Src/stm32f4xx_hal_i2s_ex.c ****         {
 1390              		.loc 1 389 13 is_stmt 0 view .LVU449
 1391 02ec 2368     		ldr	r3, [r4]
 1392 02ee 9A68     		ldr	r2, [r3, #8]
 389:Drivers/STM32F4xx_HAL_Driver/Src/stm32f4xx_hal_i2s_ex.c ****         {
 1393              		.loc 1 389 12 view .LVU450
 1394 02f0 12F0400F 		tst	r2, #64
 1395 02f4 A3D0     		beq	.L101
 392:Drivers/STM32F4xx_HAL_Driver/Src/stm32f4xx_hal_i2s_ex.c **** 
 1396              		.loc 1 392 11 is_stmt 1 view .LVU451
 1397              	.LBB8:
 392:Drivers/STM32F4xx_HAL_Driver/Src/stm32f4xx_hal_i2s_ex.c **** 
 1398              		.loc 1 392 11 view .LVU452
 1399 02f6 0022     		movs	r2, #0
 1400 02f8 0792     		str	r2, [sp, #28]
 392:Drivers/STM32F4xx_HAL_Driver/Src/stm32f4xx_hal_i2s_ex.c **** 
 1401              		.loc 1 392 11 view .LVU453
 1402 02fa DA68     		ldr	r2, [r3, #12]
 1403 02fc 0792     		str	r2, [sp, #28]
 392:Drivers/STM32F4xx_HAL_Driver/Src/stm32f4xx_hal_i2s_ex.c **** 
 1404              		.loc 1 392 11 view .LVU454
 1405 02fe 9B68     		ldr	r3, [r3, #8]
 1406 0300 0793     		str	r3, [sp, #28]
 392:Drivers/STM32F4xx_HAL_Driver/Src/stm32f4xx_hal_i2s_ex.c **** 
 1407              		.loc 1 392 11 view .LVU455
 1408 0302 079B     		ldr	r3, [sp, #28]
 1409              	.LBE8:
 392:Drivers/STM32F4xx_HAL_Driver/Src/stm32f4xx_hal_i2s_ex.c **** 
 1410              		.loc 1 392 11 view .LVU456
 395:Drivers/STM32F4xx_HAL_Driver/Src/stm32f4xx_hal_i2s_ex.c ****         }
 1411              		.loc 1 395 11 view .LVU457
 1412 0304 636C     		ldr	r3, [r4, #68]
 1413 0306 43F00203 		orr	r3, r3, #2
ARM GAS  C:\Users\jonas\AppData\Local\Temp\ccyC9VxG.s 			page 50


 1414 030a 6364     		str	r3, [r4, #68]
 1415 030c 97E7     		b	.L101
 1416              	.L141:
 380:Drivers/STM32F4xx_HAL_Driver/Src/stm32f4xx_hal_i2s_ex.c ****           errorcode = HAL_ERROR;
 1417              		.loc 1 380 11 view .LVU458
 1418 030e 636C     		ldr	r3, [r4, #68]
 1419 0310 43F00103 		orr	r3, r3, #1
 1420 0314 6364     		str	r3, [r4, #68]
 381:Drivers/STM32F4xx_HAL_Driver/Src/stm32f4xx_hal_i2s_ex.c ****           goto error;
 1421              		.loc 1 381 11 view .LVU459
 1422              	.LVL59:
 382:Drivers/STM32F4xx_HAL_Driver/Src/stm32f4xx_hal_i2s_ex.c ****         }
 1423              		.loc 1 382 11 view .LVU460
 1424 0316 00E0     		b	.L79
 1425              	.LVL60:
 1426              	.L109:
 217:Drivers/STM32F4xx_HAL_Driver/Src/stm32f4xx_hal_i2s_ex.c ****     goto error;
 1427              		.loc 1 217 15 is_stmt 0 view .LVU461
 1428 0318 0227     		movs	r7, #2
 1429              	.LVL61:
 1430              	.L79:
 407:Drivers/STM32F4xx_HAL_Driver/Src/stm32f4xx_hal_i2s_ex.c ****   __HAL_UNLOCK(hi2s);
 1431              		.loc 1 407 3 is_stmt 1 view .LVU462
 407:Drivers/STM32F4xx_HAL_Driver/Src/stm32f4xx_hal_i2s_ex.c ****   __HAL_UNLOCK(hi2s);
 1432              		.loc 1 407 15 is_stmt 0 view .LVU463
 1433 031a 0123     		movs	r3, #1
 1434 031c 84F84130 		strb	r3, [r4, #65]
 408:Drivers/STM32F4xx_HAL_Driver/Src/stm32f4xx_hal_i2s_ex.c ****   return errorcode;
 1435              		.loc 1 408 3 is_stmt 1 view .LVU464
 408:Drivers/STM32F4xx_HAL_Driver/Src/stm32f4xx_hal_i2s_ex.c ****   return errorcode;
 1436              		.loc 1 408 3 view .LVU465
 1437 0320 0023     		movs	r3, #0
 1438 0322 84F84030 		strb	r3, [r4, #64]
 408:Drivers/STM32F4xx_HAL_Driver/Src/stm32f4xx_hal_i2s_ex.c ****   return errorcode;
 1439              		.loc 1 408 3 view .LVU466
 409:Drivers/STM32F4xx_HAL_Driver/Src/stm32f4xx_hal_i2s_ex.c **** }
 1440              		.loc 1 409 3 view .LVU467
 1441              	.LVL62:
 1442              	.L80:
 410:Drivers/STM32F4xx_HAL_Driver/Src/stm32f4xx_hal_i2s_ex.c **** 
 1443              		.loc 1 410 1 is_stmt 0 view .LVU468
 1444 0326 3846     		mov	r0, r7
 1445 0328 09B0     		add	sp, sp, #36
 1446              		.cfi_remember_state
 1447              		.cfi_def_cfa_offset 28
 1448              		@ sp needed
 1449 032a BDE8F083 		pop	{r4, r5, r6, r7, r8, r9, pc}
 1450              	.LVL63:
 1451              	.L110:
 1452              		.cfi_restore_state
 227:Drivers/STM32F4xx_HAL_Driver/Src/stm32f4xx_hal_i2s_ex.c **** 
 1453              		.loc 1 227 3 discriminator 1 view .LVU469
 1454 032e 0227     		movs	r7, #2
 1455 0330 F9E7     		b	.L80
 1456              		.cfi_endproc
 1457              	.LFE134:
 1459 0332 00BF     		.section	.text.HAL_I2SEx_TransmitReceive_IT,"ax",%progbits
ARM GAS  C:\Users\jonas\AppData\Local\Temp\ccyC9VxG.s 			page 51


 1460              		.align	1
 1461              		.global	HAL_I2SEx_TransmitReceive_IT
 1462              		.syntax unified
 1463              		.thumb
 1464              		.thumb_func
 1466              	HAL_I2SEx_TransmitReceive_IT:
 1467              	.LVL64:
 1468              	.LFB135:
 431:Drivers/STM32F4xx_HAL_Driver/Src/stm32f4xx_hal_i2s_ex.c ****   uint32_t tmp1 = 0U;
 1469              		.loc 1 431 1 is_stmt 1 view -0
 1470              		.cfi_startproc
 1471              		@ args = 0, pretend = 0, frame = 0
 1472              		@ frame_needed = 0, uses_anonymous_args = 0
 1473              		@ link register save eliminated.
 431:Drivers/STM32F4xx_HAL_Driver/Src/stm32f4xx_hal_i2s_ex.c ****   uint32_t tmp1 = 0U;
 1474              		.loc 1 431 1 is_stmt 0 view .LVU471
 1475 0000 8446     		mov	ip, r0
 432:Drivers/STM32F4xx_HAL_Driver/Src/stm32f4xx_hal_i2s_ex.c ****   HAL_StatusTypeDef errorcode = HAL_OK;
 1476              		.loc 1 432 3 is_stmt 1 view .LVU472
 1477              	.LVL65:
 433:Drivers/STM32F4xx_HAL_Driver/Src/stm32f4xx_hal_i2s_ex.c **** 
 1478              		.loc 1 433 3 view .LVU473
 435:Drivers/STM32F4xx_HAL_Driver/Src/stm32f4xx_hal_i2s_ex.c ****   {
 1479              		.loc 1 435 3 view .LVU474
 435:Drivers/STM32F4xx_HAL_Driver/Src/stm32f4xx_hal_i2s_ex.c ****   {
 1480              		.loc 1 435 11 is_stmt 0 view .LVU475
 1481 0002 90F84100 		ldrb	r0, [r0, #65]	@ zero_extendqisi2
 1482              	.LVL66:
 435:Drivers/STM32F4xx_HAL_Driver/Src/stm32f4xx_hal_i2s_ex.c ****   {
 1483              		.loc 1 435 11 view .LVU476
 1484 0006 C0B2     		uxtb	r0, r0
 435:Drivers/STM32F4xx_HAL_Driver/Src/stm32f4xx_hal_i2s_ex.c ****   {
 1485              		.loc 1 435 6 view .LVU477
 1486 0008 0128     		cmp	r0, #1
 1487 000a 40F0BB80 		bne	.L158
 441:Drivers/STM32F4xx_HAL_Driver/Src/stm32f4xx_hal_i2s_ex.c ****   {
 1488              		.loc 1 441 3 is_stmt 1 view .LVU478
 441:Drivers/STM32F4xx_HAL_Driver/Src/stm32f4xx_hal_i2s_ex.c ****   {
 1489              		.loc 1 441 6 is_stmt 0 view .LVU479
 1490 000e 0029     		cmp	r1, #0
 1491 0010 00F0BE80 		beq	.L146
 441:Drivers/STM32F4xx_HAL_Driver/Src/stm32f4xx_hal_i2s_ex.c ****   {
 1492              		.loc 1 441 25 discriminator 1 view .LVU480
 1493 0014 002A     		cmp	r2, #0
 1494 0016 00F0BB80 		beq	.L146
 441:Drivers/STM32F4xx_HAL_Driver/Src/stm32f4xx_hal_i2s_ex.c ****   {
 1495              		.loc 1 441 46 discriminator 2 view .LVU481
 1496 001a 002B     		cmp	r3, #0
 1497 001c 00F0B880 		beq	.L146
 447:Drivers/STM32F4xx_HAL_Driver/Src/stm32f4xx_hal_i2s_ex.c **** 
 1498              		.loc 1 447 3 is_stmt 1 view .LVU482
 447:Drivers/STM32F4xx_HAL_Driver/Src/stm32f4xx_hal_i2s_ex.c **** 
 1499              		.loc 1 447 3 view .LVU483
 1500 0020 9CF84000 		ldrb	r0, [ip, #64]	@ zero_extendqisi2
 1501 0024 C0B2     		uxtb	r0, r0
 1502 0026 0128     		cmp	r0, #1
 1503 0028 00F0B180 		beq	.L159
ARM GAS  C:\Users\jonas\AppData\Local\Temp\ccyC9VxG.s 			page 52


 447:Drivers/STM32F4xx_HAL_Driver/Src/stm32f4xx_hal_i2s_ex.c **** 
 1504              		.loc 1 447 3 discriminator 2 view .LVU484
 1505 002c 0120     		movs	r0, #1
 1506 002e 8CF84000 		strb	r0, [ip, #64]
 447:Drivers/STM32F4xx_HAL_Driver/Src/stm32f4xx_hal_i2s_ex.c **** 
 1507              		.loc 1 447 3 discriminator 2 view .LVU485
 449:Drivers/STM32F4xx_HAL_Driver/Src/stm32f4xx_hal_i2s_ex.c ****   hi2s->pRxBuffPtr = pRxData;
 1508              		.loc 1 449 3 view .LVU486
 449:Drivers/STM32F4xx_HAL_Driver/Src/stm32f4xx_hal_i2s_ex.c ****   hi2s->pRxBuffPtr = pRxData;
 1509              		.loc 1 449 20 is_stmt 0 view .LVU487
 1510 0032 CCF82410 		str	r1, [ip, #36]
 450:Drivers/STM32F4xx_HAL_Driver/Src/stm32f4xx_hal_i2s_ex.c **** 
 1511              		.loc 1 450 3 is_stmt 1 view .LVU488
 450:Drivers/STM32F4xx_HAL_Driver/Src/stm32f4xx_hal_i2s_ex.c **** 
 1512              		.loc 1 450 20 is_stmt 0 view .LVU489
 1513 0036 CCF82C20 		str	r2, [ip, #44]
 452:Drivers/STM32F4xx_HAL_Driver/Src/stm32f4xx_hal_i2s_ex.c ****   /* Check the Data format: When a 16-bit data frame or a 16-bit data frame extended
 1514              		.loc 1 452 3 is_stmt 1 view .LVU490
 452:Drivers/STM32F4xx_HAL_Driver/Src/stm32f4xx_hal_i2s_ex.c ****   /* Check the Data format: When a 16-bit data frame or a 16-bit data frame extended
 1515              		.loc 1 452 14 is_stmt 0 view .LVU491
 1516 003a DCF80010 		ldr	r1, [ip]
 1517              	.LVL67:
 452:Drivers/STM32F4xx_HAL_Driver/Src/stm32f4xx_hal_i2s_ex.c ****   /* Check the Data format: When a 16-bit data frame or a 16-bit data frame extended
 1518              		.loc 1 452 24 view .LVU492
 1519 003e CA69     		ldr	r2, [r1, #28]
 1520              	.LVL68:
 452:Drivers/STM32F4xx_HAL_Driver/Src/stm32f4xx_hal_i2s_ex.c ****   /* Check the Data format: When a 16-bit data frame or a 16-bit data frame extended
 1521              		.loc 1 452 8 view .LVU493
 1522 0040 02F00702 		and	r2, r2, #7
 1523              	.LVL69:
 457:Drivers/STM32F4xx_HAL_Driver/Src/stm32f4xx_hal_i2s_ex.c ****   {
 1524              		.loc 1 457 3 is_stmt 1 view .LVU494
 457:Drivers/STM32F4xx_HAL_Driver/Src/stm32f4xx_hal_i2s_ex.c ****   {
 1525              		.loc 1 457 6 is_stmt 0 view .LVU495
 1526 0044 032A     		cmp	r2, #3
 1527 0046 0AD0     		beq	.L147
 457:Drivers/STM32F4xx_HAL_Driver/Src/stm32f4xx_hal_i2s_ex.c ****   {
 1528              		.loc 1 457 36 discriminator 1 view .LVU496
 1529 0048 052A     		cmp	r2, #5
 1530 004a 08D0     		beq	.L147
 466:Drivers/STM32F4xx_HAL_Driver/Src/stm32f4xx_hal_i2s_ex.c ****     hi2s->TxXferCount = Size;
 1531              		.loc 1 466 5 is_stmt 1 view .LVU497
 466:Drivers/STM32F4xx_HAL_Driver/Src/stm32f4xx_hal_i2s_ex.c ****     hi2s->TxXferCount = Size;
 1532              		.loc 1 466 23 is_stmt 0 view .LVU498
 1533 004c ACF82830 		strh	r3, [ip, #40]	@ movhi
 467:Drivers/STM32F4xx_HAL_Driver/Src/stm32f4xx_hal_i2s_ex.c ****     hi2s->RxXferSize  = Size;
 1534              		.loc 1 467 5 is_stmt 1 view .LVU499
 467:Drivers/STM32F4xx_HAL_Driver/Src/stm32f4xx_hal_i2s_ex.c ****     hi2s->RxXferSize  = Size;
 1535              		.loc 1 467 23 is_stmt 0 view .LVU500
 1536 0050 ACF82A30 		strh	r3, [ip, #42]	@ movhi
 468:Drivers/STM32F4xx_HAL_Driver/Src/stm32f4xx_hal_i2s_ex.c ****     hi2s->RxXferCount = Size;
 1537              		.loc 1 468 5 is_stmt 1 view .LVU501
 468:Drivers/STM32F4xx_HAL_Driver/Src/stm32f4xx_hal_i2s_ex.c ****     hi2s->RxXferCount = Size;
 1538              		.loc 1 468 23 is_stmt 0 view .LVU502
 1539 0054 ACF83030 		strh	r3, [ip, #48]	@ movhi
 469:Drivers/STM32F4xx_HAL_Driver/Src/stm32f4xx_hal_i2s_ex.c ****   }
 1540              		.loc 1 469 5 is_stmt 1 view .LVU503
ARM GAS  C:\Users\jonas\AppData\Local\Temp\ccyC9VxG.s 			page 53


 469:Drivers/STM32F4xx_HAL_Driver/Src/stm32f4xx_hal_i2s_ex.c ****   }
 1541              		.loc 1 469 23 is_stmt 0 view .LVU504
 1542 0058 ACF83230 		strh	r3, [ip, #50]	@ movhi
 1543 005c 09E0     		b	.L149
 1544              	.L147:
 459:Drivers/STM32F4xx_HAL_Driver/Src/stm32f4xx_hal_i2s_ex.c ****     hi2s->TxXferCount = (Size << 1U);
 1545              		.loc 1 459 5 is_stmt 1 view .LVU505
 459:Drivers/STM32F4xx_HAL_Driver/Src/stm32f4xx_hal_i2s_ex.c ****     hi2s->TxXferCount = (Size << 1U);
 1546              		.loc 1 459 31 is_stmt 0 view .LVU506
 1547 005e 5B00     		lsls	r3, r3, #1
 1548              	.LVL70:
 459:Drivers/STM32F4xx_HAL_Driver/Src/stm32f4xx_hal_i2s_ex.c ****     hi2s->TxXferCount = (Size << 1U);
 1549              		.loc 1 459 31 view .LVU507
 1550 0060 9BB2     		uxth	r3, r3
 459:Drivers/STM32F4xx_HAL_Driver/Src/stm32f4xx_hal_i2s_ex.c ****     hi2s->TxXferCount = (Size << 1U);
 1551              		.loc 1 459 23 view .LVU508
 1552 0062 ACF82830 		strh	r3, [ip, #40]	@ movhi
 460:Drivers/STM32F4xx_HAL_Driver/Src/stm32f4xx_hal_i2s_ex.c ****     hi2s->RxXferSize  = (Size << 1U);
 1553              		.loc 1 460 5 is_stmt 1 view .LVU509
 460:Drivers/STM32F4xx_HAL_Driver/Src/stm32f4xx_hal_i2s_ex.c ****     hi2s->RxXferSize  = (Size << 1U);
 1554              		.loc 1 460 23 is_stmt 0 view .LVU510
 1555 0066 ACF82A30 		strh	r3, [ip, #42]	@ movhi
 461:Drivers/STM32F4xx_HAL_Driver/Src/stm32f4xx_hal_i2s_ex.c ****     hi2s->RxXferCount = (Size << 1U);
 1556              		.loc 1 461 5 is_stmt 1 view .LVU511
 461:Drivers/STM32F4xx_HAL_Driver/Src/stm32f4xx_hal_i2s_ex.c ****     hi2s->RxXferCount = (Size << 1U);
 1557              		.loc 1 461 23 is_stmt 0 view .LVU512
 1558 006a ACF83030 		strh	r3, [ip, #48]	@ movhi
 462:Drivers/STM32F4xx_HAL_Driver/Src/stm32f4xx_hal_i2s_ex.c ****   }
 1559              		.loc 1 462 5 is_stmt 1 view .LVU513
 462:Drivers/STM32F4xx_HAL_Driver/Src/stm32f4xx_hal_i2s_ex.c ****   }
 1560              		.loc 1 462 23 is_stmt 0 view .LVU514
 1561 006e ACF83230 		strh	r3, [ip, #50]	@ movhi
 1562              	.L149:
 472:Drivers/STM32F4xx_HAL_Driver/Src/stm32f4xx_hal_i2s_ex.c ****   hi2s->State     = HAL_I2S_STATE_BUSY_TX_RX;
 1563              		.loc 1 472 3 is_stmt 1 view .LVU515
 472:Drivers/STM32F4xx_HAL_Driver/Src/stm32f4xx_hal_i2s_ex.c ****   hi2s->State     = HAL_I2S_STATE_BUSY_TX_RX;
 1564              		.loc 1 472 19 is_stmt 0 view .LVU516
 1565 0072 0023     		movs	r3, #0
 1566 0074 CCF84430 		str	r3, [ip, #68]
 473:Drivers/STM32F4xx_HAL_Driver/Src/stm32f4xx_hal_i2s_ex.c **** 
 1567              		.loc 1 473 3 is_stmt 1 view .LVU517
 473:Drivers/STM32F4xx_HAL_Driver/Src/stm32f4xx_hal_i2s_ex.c **** 
 1568              		.loc 1 473 19 is_stmt 0 view .LVU518
 1569 0078 0523     		movs	r3, #5
 1570 007a 8CF84130 		strb	r3, [ip, #65]
 476:Drivers/STM32F4xx_HAL_Driver/Src/stm32f4xx_hal_i2s_ex.c ****   {
 1571              		.loc 1 476 3 is_stmt 1 view .LVU519
 476:Drivers/STM32F4xx_HAL_Driver/Src/stm32f4xx_hal_i2s_ex.c ****   {
 1572              		.loc 1 476 18 is_stmt 0 view .LVU520
 1573 007e DCF80430 		ldr	r3, [ip, #4]
 476:Drivers/STM32F4xx_HAL_Driver/Src/stm32f4xx_hal_i2s_ex.c ****   {
 1574              		.loc 1 476 6 view .LVU521
 1575 0082 B3F5007F 		cmp	r3, #512
 1576 0086 01D0     		beq	.L150
 476:Drivers/STM32F4xx_HAL_Driver/Src/stm32f4xx_hal_i2s_ex.c ****   {
 1577              		.loc 1 476 47 discriminator 1 view .LVU522
 1578 0088 002B     		cmp	r3, #0
ARM GAS  C:\Users\jonas\AppData\Local\Temp\ccyC9VxG.s 			page 54


 1579 008a 3DD1     		bne	.L151
 1580              	.L150:
 479:Drivers/STM32F4xx_HAL_Driver/Src/stm32f4xx_hal_i2s_ex.c **** 
 1581              		.loc 1 479 5 is_stmt 1 view .LVU523
 1582 008c 414B     		ldr	r3, .L170
 1583 008e 9942     		cmp	r1, r3
 1584 0090 38D0     		beq	.L165
 479:Drivers/STM32F4xx_HAL_Driver/Src/stm32f4xx_hal_i2s_ex.c **** 
 1585              		.loc 1 479 5 is_stmt 0 discriminator 2 view .LVU524
 1586 0092 4FF04022 		mov	r2, #1073758208
 1587              	.LVL71:
 1588              	.L152:
 479:Drivers/STM32F4xx_HAL_Driver/Src/stm32f4xx_hal_i2s_ex.c **** 
 1589              		.loc 1 479 5 discriminator 4 view .LVU525
 1590 0096 5368     		ldr	r3, [r2, #4]
 479:Drivers/STM32F4xx_HAL_Driver/Src/stm32f4xx_hal_i2s_ex.c **** 
 1591              		.loc 1 479 5 discriminator 8 view .LVU526
 1592 0098 43F06003 		orr	r3, r3, #96
 1593 009c 5360     		str	r3, [r2, #4]
 1594              	.LVL72:
 482:Drivers/STM32F4xx_HAL_Driver/Src/stm32f4xx_hal_i2s_ex.c **** 
 1595              		.loc 1 482 5 is_stmt 1 view .LVU527
 1596 009e DCF80020 		ldr	r2, [ip]
 1597 00a2 5368     		ldr	r3, [r2, #4]
 1598 00a4 43F0A003 		orr	r3, r3, #160
 1599 00a8 5360     		str	r3, [r2, #4]
 485:Drivers/STM32F4xx_HAL_Driver/Src/stm32f4xx_hal_i2s_ex.c ****     hi2s->TxXferCount--;
 1600              		.loc 1 485 5 view .LVU528
 485:Drivers/STM32F4xx_HAL_Driver/Src/stm32f4xx_hal_i2s_ex.c ****     hi2s->TxXferCount--;
 1601              		.loc 1 485 32 is_stmt 0 view .LVU529
 1602 00aa DCF82430 		ldr	r3, [ip, #36]
 485:Drivers/STM32F4xx_HAL_Driver/Src/stm32f4xx_hal_i2s_ex.c ****     hi2s->TxXferCount--;
 1603              		.loc 1 485 44 view .LVU530
 1604 00ae 9A1C     		adds	r2, r3, #2
 1605 00b0 CCF82420 		str	r2, [ip, #36]
 485:Drivers/STM32F4xx_HAL_Driver/Src/stm32f4xx_hal_i2s_ex.c ****     hi2s->TxXferCount--;
 1606              		.loc 1 485 9 view .LVU531
 1607 00b4 DCF80020 		ldr	r2, [ip]
 485:Drivers/STM32F4xx_HAL_Driver/Src/stm32f4xx_hal_i2s_ex.c ****     hi2s->TxXferCount--;
 1608              		.loc 1 485 27 view .LVU532
 1609 00b8 1B88     		ldrh	r3, [r3]
 485:Drivers/STM32F4xx_HAL_Driver/Src/stm32f4xx_hal_i2s_ex.c ****     hi2s->TxXferCount--;
 1610              		.loc 1 485 24 view .LVU533
 1611 00ba D360     		str	r3, [r2, #12]
 486:Drivers/STM32F4xx_HAL_Driver/Src/stm32f4xx_hal_i2s_ex.c **** 
 1612              		.loc 1 486 5 is_stmt 1 view .LVU534
 486:Drivers/STM32F4xx_HAL_Driver/Src/stm32f4xx_hal_i2s_ex.c **** 
 1613              		.loc 1 486 9 is_stmt 0 view .LVU535
 1614 00bc BCF82A30 		ldrh	r3, [ip, #42]
 1615 00c0 9BB2     		uxth	r3, r3
 486:Drivers/STM32F4xx_HAL_Driver/Src/stm32f4xx_hal_i2s_ex.c **** 
 1616              		.loc 1 486 22 view .LVU536
 1617 00c2 013B     		subs	r3, r3, #1
 1618 00c4 9BB2     		uxth	r3, r3
 1619 00c6 ACF82A30 		strh	r3, [ip, #42]	@ movhi
 488:Drivers/STM32F4xx_HAL_Driver/Src/stm32f4xx_hal_i2s_ex.c ****     {
 1620              		.loc 1 488 5 is_stmt 1 view .LVU537
ARM GAS  C:\Users\jonas\AppData\Local\Temp\ccyC9VxG.s 			page 55


 488:Drivers/STM32F4xx_HAL_Driver/Src/stm32f4xx_hal_i2s_ex.c ****     {
 1621              		.loc 1 488 13 is_stmt 0 view .LVU538
 1622 00ca BCF82A30 		ldrh	r3, [ip, #42]
 1623 00ce 9BB2     		uxth	r3, r3
 488:Drivers/STM32F4xx_HAL_Driver/Src/stm32f4xx_hal_i2s_ex.c ****     {
 1624              		.loc 1 488 8 view .LVU539
 1625 00d0 2BB9     		cbnz	r3, .L153
 491:Drivers/STM32F4xx_HAL_Driver/Src/stm32f4xx_hal_i2s_ex.c ****     }
 1626              		.loc 1 491 7 is_stmt 1 view .LVU540
 1627 00d2 DCF80020 		ldr	r2, [ip]
 1628 00d6 5368     		ldr	r3, [r2, #4]
 1629 00d8 23F0A003 		bic	r3, r3, #160
 1630 00dc 5360     		str	r3, [r2, #4]
 1631              	.L153:
 514:Drivers/STM32F4xx_HAL_Driver/Src/stm32f4xx_hal_i2s_ex.c **** 
 1632              		.loc 1 514 3 view .LVU541
 1633 00de DCF80020 		ldr	r2, [ip]
 1634 00e2 2C4B     		ldr	r3, .L170
 1635 00e4 9A42     		cmp	r2, r3
 1636 00e6 4BD0     		beq	.L166
 514:Drivers/STM32F4xx_HAL_Driver/Src/stm32f4xx_hal_i2s_ex.c **** 
 1637              		.loc 1 514 3 is_stmt 0 discriminator 2 view .LVU542
 1638 00e8 4FF04022 		mov	r2, #1073758208
 1639              	.L157:
 514:Drivers/STM32F4xx_HAL_Driver/Src/stm32f4xx_hal_i2s_ex.c **** 
 1640              		.loc 1 514 3 discriminator 4 view .LVU543
 1641 00ec D369     		ldr	r3, [r2, #28]
 514:Drivers/STM32F4xx_HAL_Driver/Src/stm32f4xx_hal_i2s_ex.c **** 
 1642              		.loc 1 514 3 discriminator 8 view .LVU544
 1643 00ee 43F48063 		orr	r3, r3, #1024
 1644 00f2 D361     		str	r3, [r2, #28]
 517:Drivers/STM32F4xx_HAL_Driver/Src/stm32f4xx_hal_i2s_ex.c **** 
 1645              		.loc 1 517 3 is_stmt 1 view .LVU545
 1646 00f4 DCF80020 		ldr	r2, [ip]
 1647 00f8 D369     		ldr	r3, [r2, #28]
 1648 00fa 43F48063 		orr	r3, r3, #1024
 1649 00fe D361     		str	r3, [r2, #28]
 433:Drivers/STM32F4xx_HAL_Driver/Src/stm32f4xx_hal_i2s_ex.c **** 
 1650              		.loc 1 433 21 is_stmt 0 view .LVU546
 1651 0100 0020     		movs	r0, #0
 1652 0102 40E0     		b	.L145
 1653              	.LVL73:
 1654              	.L165:
 479:Drivers/STM32F4xx_HAL_Driver/Src/stm32f4xx_hal_i2s_ex.c **** 
 1655              		.loc 1 479 5 discriminator 1 view .LVU547
 1656 0104 244A     		ldr	r2, .L170+4
 1657              	.LVL74:
 479:Drivers/STM32F4xx_HAL_Driver/Src/stm32f4xx_hal_i2s_ex.c **** 
 1658              		.loc 1 479 5 discriminator 1 view .LVU548
 1659 0106 C6E7     		b	.L152
 1660              	.LVL75:
 1661              	.L151:
 497:Drivers/STM32F4xx_HAL_Driver/Src/stm32f4xx_hal_i2s_ex.c **** 
 1662              		.loc 1 497 5 is_stmt 1 view .LVU549
 1663 0108 224B     		ldr	r3, .L170
 1664 010a 9942     		cmp	r1, r3
 1665 010c 31D0     		beq	.L167
ARM GAS  C:\Users\jonas\AppData\Local\Temp\ccyC9VxG.s 			page 56


 497:Drivers/STM32F4xx_HAL_Driver/Src/stm32f4xx_hal_i2s_ex.c **** 
 1666              		.loc 1 497 5 is_stmt 0 discriminator 2 view .LVU550
 1667 010e 4FF04022 		mov	r2, #1073758208
 1668              	.LVL76:
 1669              	.L154:
 497:Drivers/STM32F4xx_HAL_Driver/Src/stm32f4xx_hal_i2s_ex.c **** 
 1670              		.loc 1 497 5 discriminator 4 view .LVU551
 1671 0112 5368     		ldr	r3, [r2, #4]
 497:Drivers/STM32F4xx_HAL_Driver/Src/stm32f4xx_hal_i2s_ex.c **** 
 1672              		.loc 1 497 5 discriminator 8 view .LVU552
 1673 0114 43F0A003 		orr	r3, r3, #160
 1674 0118 5360     		str	r3, [r2, #4]
 1675              	.LVL77:
 500:Drivers/STM32F4xx_HAL_Driver/Src/stm32f4xx_hal_i2s_ex.c **** 
 1676              		.loc 1 500 5 is_stmt 1 view .LVU553
 1677 011a DCF80020 		ldr	r2, [ip]
 1678 011e 5368     		ldr	r3, [r2, #4]
 1679 0120 43F06003 		orr	r3, r3, #96
 1680 0124 5360     		str	r3, [r2, #4]
 503:Drivers/STM32F4xx_HAL_Driver/Src/stm32f4xx_hal_i2s_ex.c ****     hi2s->TxXferCount--;
 1681              		.loc 1 503 5 view .LVU554
 503:Drivers/STM32F4xx_HAL_Driver/Src/stm32f4xx_hal_i2s_ex.c ****     hi2s->TxXferCount--;
 1682              		.loc 1 503 41 is_stmt 0 view .LVU555
 1683 0126 DCF82430 		ldr	r3, [ip, #36]
 503:Drivers/STM32F4xx_HAL_Driver/Src/stm32f4xx_hal_i2s_ex.c ****     hi2s->TxXferCount--;
 1684              		.loc 1 503 53 view .LVU556
 1685 012a 9A1C     		adds	r2, r3, #2
 1686 012c CCF82420 		str	r2, [ip, #36]
 503:Drivers/STM32F4xx_HAL_Driver/Src/stm32f4xx_hal_i2s_ex.c ****     hi2s->TxXferCount--;
 1687              		.loc 1 503 36 view .LVU557
 1688 0130 1A88     		ldrh	r2, [r3]
 503:Drivers/STM32F4xx_HAL_Driver/Src/stm32f4xx_hal_i2s_ex.c ****     hi2s->TxXferCount--;
 1689              		.loc 1 503 5 view .LVU558
 1690 0132 DCF80010 		ldr	r1, [ip]
 1691 0136 174B     		ldr	r3, .L170
 1692 0138 9942     		cmp	r1, r3
 1693 013a 1CD0     		beq	.L168
 503:Drivers/STM32F4xx_HAL_Driver/Src/stm32f4xx_hal_i2s_ex.c ****     hi2s->TxXferCount--;
 1694              		.loc 1 503 5 discriminator 2 view .LVU559
 1695 013c 4FF04023 		mov	r3, #1073758208
 1696              	.L155:
 503:Drivers/STM32F4xx_HAL_Driver/Src/stm32f4xx_hal_i2s_ex.c ****     hi2s->TxXferCount--;
 1697              		.loc 1 503 33 discriminator 4 view .LVU560
 1698 0140 DA60     		str	r2, [r3, #12]
 504:Drivers/STM32F4xx_HAL_Driver/Src/stm32f4xx_hal_i2s_ex.c **** 
 1699              		.loc 1 504 5 is_stmt 1 view .LVU561
 504:Drivers/STM32F4xx_HAL_Driver/Src/stm32f4xx_hal_i2s_ex.c **** 
 1700              		.loc 1 504 9 is_stmt 0 view .LVU562
 1701 0142 BCF82A30 		ldrh	r3, [ip, #42]
 1702 0146 9BB2     		uxth	r3, r3
 504:Drivers/STM32F4xx_HAL_Driver/Src/stm32f4xx_hal_i2s_ex.c **** 
 1703              		.loc 1 504 22 view .LVU563
 1704 0148 013B     		subs	r3, r3, #1
 1705 014a 9BB2     		uxth	r3, r3
 1706 014c ACF82A30 		strh	r3, [ip, #42]	@ movhi
 506:Drivers/STM32F4xx_HAL_Driver/Src/stm32f4xx_hal_i2s_ex.c ****     {
 1707              		.loc 1 506 5 is_stmt 1 view .LVU564
ARM GAS  C:\Users\jonas\AppData\Local\Temp\ccyC9VxG.s 			page 57


 506:Drivers/STM32F4xx_HAL_Driver/Src/stm32f4xx_hal_i2s_ex.c ****     {
 1708              		.loc 1 506 13 is_stmt 0 view .LVU565
 1709 0150 BCF82A30 		ldrh	r3, [ip, #42]
 1710 0154 9BB2     		uxth	r3, r3
 506:Drivers/STM32F4xx_HAL_Driver/Src/stm32f4xx_hal_i2s_ex.c ****     {
 1711              		.loc 1 506 8 view .LVU566
 1712 0156 002B     		cmp	r3, #0
 1713 0158 C1D1     		bne	.L153
 509:Drivers/STM32F4xx_HAL_Driver/Src/stm32f4xx_hal_i2s_ex.c ****     }
 1714              		.loc 1 509 7 is_stmt 1 view .LVU567
 1715 015a DCF80020 		ldr	r2, [ip]
 1716 015e 0D4B     		ldr	r3, .L170
 1717 0160 9A42     		cmp	r2, r3
 1718 0162 0BD0     		beq	.L169
 509:Drivers/STM32F4xx_HAL_Driver/Src/stm32f4xx_hal_i2s_ex.c ****     }
 1719              		.loc 1 509 7 is_stmt 0 discriminator 2 view .LVU568
 1720 0164 4FF04022 		mov	r2, #1073758208
 1721              	.L156:
 509:Drivers/STM32F4xx_HAL_Driver/Src/stm32f4xx_hal_i2s_ex.c ****     }
 1722              		.loc 1 509 7 discriminator 4 view .LVU569
 1723 0168 5368     		ldr	r3, [r2, #4]
 509:Drivers/STM32F4xx_HAL_Driver/Src/stm32f4xx_hal_i2s_ex.c ****     }
 1724              		.loc 1 509 7 discriminator 8 view .LVU570
 1725 016a 23F0A003 		bic	r3, r3, #160
 1726 016e 5360     		str	r3, [r2, #4]
 1727 0170 B5E7     		b	.L153
 1728              	.LVL78:
 1729              	.L167:
 497:Drivers/STM32F4xx_HAL_Driver/Src/stm32f4xx_hal_i2s_ex.c **** 
 1730              		.loc 1 497 5 discriminator 1 view .LVU571
 1731 0172 094A     		ldr	r2, .L170+4
 1732              	.LVL79:
 497:Drivers/STM32F4xx_HAL_Driver/Src/stm32f4xx_hal_i2s_ex.c **** 
 1733              		.loc 1 497 5 discriminator 1 view .LVU572
 1734 0174 CDE7     		b	.L154
 1735              	.LVL80:
 1736              	.L168:
 503:Drivers/STM32F4xx_HAL_Driver/Src/stm32f4xx_hal_i2s_ex.c ****     hi2s->TxXferCount--;
 1737              		.loc 1 503 5 discriminator 1 view .LVU573
 1738 0176 A3F58063 		sub	r3, r3, #1024
 1739 017a E1E7     		b	.L155
 1740              	.L169:
 509:Drivers/STM32F4xx_HAL_Driver/Src/stm32f4xx_hal_i2s_ex.c ****     }
 1741              		.loc 1 509 7 discriminator 1 view .LVU574
 1742 017c 064A     		ldr	r2, .L170+4
 1743 017e F3E7     		b	.L156
 1744              	.L166:
 514:Drivers/STM32F4xx_HAL_Driver/Src/stm32f4xx_hal_i2s_ex.c **** 
 1745              		.loc 1 514 3 discriminator 1 view .LVU575
 1746 0180 054A     		ldr	r2, .L170+4
 1747 0182 B3E7     		b	.L157
 1748              	.LVL81:
 1749              	.L158:
 437:Drivers/STM32F4xx_HAL_Driver/Src/stm32f4xx_hal_i2s_ex.c ****     goto error;
 1750              		.loc 1 437 15 view .LVU576
 1751 0184 0220     		movs	r0, #2
 1752              	.LVL82:
ARM GAS  C:\Users\jonas\AppData\Local\Temp\ccyC9VxG.s 			page 58


 1753              	.L145:
 520:Drivers/STM32F4xx_HAL_Driver/Src/stm32f4xx_hal_i2s_ex.c ****   return errorcode;
 1754              		.loc 1 520 3 is_stmt 1 view .LVU577
 520:Drivers/STM32F4xx_HAL_Driver/Src/stm32f4xx_hal_i2s_ex.c ****   return errorcode;
 1755              		.loc 1 520 3 view .LVU578
 1756 0186 0023     		movs	r3, #0
 1757 0188 8CF84030 		strb	r3, [ip, #64]
 520:Drivers/STM32F4xx_HAL_Driver/Src/stm32f4xx_hal_i2s_ex.c ****   return errorcode;
 1758              		.loc 1 520 3 view .LVU579
 521:Drivers/STM32F4xx_HAL_Driver/Src/stm32f4xx_hal_i2s_ex.c **** }
 1759              		.loc 1 521 3 view .LVU580
 521:Drivers/STM32F4xx_HAL_Driver/Src/stm32f4xx_hal_i2s_ex.c **** }
 1760              		.loc 1 521 10 is_stmt 0 view .LVU581
 1761 018c 7047     		bx	lr
 1762              	.LVL83:
 1763              	.L159:
 447:Drivers/STM32F4xx_HAL_Driver/Src/stm32f4xx_hal_i2s_ex.c **** 
 1764              		.loc 1 447 3 discriminator 1 view .LVU582
 1765 018e 0220     		movs	r0, #2
 1766              	.L146:
 522:Drivers/STM32F4xx_HAL_Driver/Src/stm32f4xx_hal_i2s_ex.c **** 
 1767              		.loc 1 522 1 view .LVU583
 1768 0190 7047     		bx	lr
 1769              	.L171:
 1770 0192 00BF     		.align	2
 1771              	.L170:
 1772 0194 00380040 		.word	1073756160
 1773 0198 00340040 		.word	1073755136
 1774              		.cfi_endproc
 1775              	.LFE135:
 1777              		.section	.text.HAL_I2SEx_TransmitReceive_DMA,"ax",%progbits
 1778              		.align	1
 1779              		.global	HAL_I2SEx_TransmitReceive_DMA
 1780              		.syntax unified
 1781              		.thumb
 1782              		.thumb_func
 1784              	HAL_I2SEx_TransmitReceive_DMA:
 1785              	.LVL84:
 1786              	.LFB136:
 543:Drivers/STM32F4xx_HAL_Driver/Src/stm32f4xx_hal_i2s_ex.c ****   uint32_t *tmp = NULL;
 1787              		.loc 1 543 1 is_stmt 1 view -0
 1788              		.cfi_startproc
 1789              		@ args = 0, pretend = 0, frame = 8
 1790              		@ frame_needed = 0, uses_anonymous_args = 0
 543:Drivers/STM32F4xx_HAL_Driver/Src/stm32f4xx_hal_i2s_ex.c ****   uint32_t *tmp = NULL;
 1791              		.loc 1 543 1 is_stmt 0 view .LVU585
 1792 0000 70B5     		push	{r4, r5, r6, lr}
 1793              		.cfi_def_cfa_offset 16
 1794              		.cfi_offset 4, -16
 1795              		.cfi_offset 5, -12
 1796              		.cfi_offset 6, -8
 1797              		.cfi_offset 14, -4
 1798 0002 82B0     		sub	sp, sp, #8
 1799              		.cfi_def_cfa_offset 24
 1800 0004 0446     		mov	r4, r0
 544:Drivers/STM32F4xx_HAL_Driver/Src/stm32f4xx_hal_i2s_ex.c ****   uint32_t tmp1 = 0U;
 1801              		.loc 1 544 3 is_stmt 1 view .LVU586
ARM GAS  C:\Users\jonas\AppData\Local\Temp\ccyC9VxG.s 			page 59


 1802              	.LVL85:
 545:Drivers/STM32F4xx_HAL_Driver/Src/stm32f4xx_hal_i2s_ex.c ****   HAL_StatusTypeDef errorcode = HAL_OK;
 1803              		.loc 1 545 3 view .LVU587
 546:Drivers/STM32F4xx_HAL_Driver/Src/stm32f4xx_hal_i2s_ex.c **** 
 1804              		.loc 1 546 3 view .LVU588
 548:Drivers/STM32F4xx_HAL_Driver/Src/stm32f4xx_hal_i2s_ex.c ****   {
 1805              		.loc 1 548 3 view .LVU589
 548:Drivers/STM32F4xx_HAL_Driver/Src/stm32f4xx_hal_i2s_ex.c ****   {
 1806              		.loc 1 548 11 is_stmt 0 view .LVU590
 1807 0006 90F84100 		ldrb	r0, [r0, #65]	@ zero_extendqisi2
 1808              	.LVL86:
 548:Drivers/STM32F4xx_HAL_Driver/Src/stm32f4xx_hal_i2s_ex.c ****   {
 1809              		.loc 1 548 11 view .LVU591
 1810 000a C0B2     		uxtb	r0, r0
 548:Drivers/STM32F4xx_HAL_Driver/Src/stm32f4xx_hal_i2s_ex.c ****   {
 1811              		.loc 1 548 6 view .LVU592
 1812 000c 0128     		cmp	r0, #1
 1813 000e 40F0D280 		bne	.L187
 1814 0012 0D46     		mov	r5, r1
 1815 0014 1646     		mov	r6, r2
 554:Drivers/STM32F4xx_HAL_Driver/Src/stm32f4xx_hal_i2s_ex.c ****   {
 1816              		.loc 1 554 3 is_stmt 1 view .LVU593
 554:Drivers/STM32F4xx_HAL_Driver/Src/stm32f4xx_hal_i2s_ex.c ****   {
 1817              		.loc 1 554 6 is_stmt 0 view .LVU594
 1818 0016 0029     		cmp	r1, #0
 1819 0018 00F0D180 		beq	.L174
 554:Drivers/STM32F4xx_HAL_Driver/Src/stm32f4xx_hal_i2s_ex.c ****   {
 1820              		.loc 1 554 25 discriminator 1 view .LVU595
 1821 001c 002A     		cmp	r2, #0
 1822 001e 00F0CE80 		beq	.L174
 554:Drivers/STM32F4xx_HAL_Driver/Src/stm32f4xx_hal_i2s_ex.c ****   {
 1823              		.loc 1 554 46 discriminator 2 view .LVU596
 1824 0022 002B     		cmp	r3, #0
 1825 0024 00F0CB80 		beq	.L174
 560:Drivers/STM32F4xx_HAL_Driver/Src/stm32f4xx_hal_i2s_ex.c **** 
 1826              		.loc 1 560 3 is_stmt 1 view .LVU597
 560:Drivers/STM32F4xx_HAL_Driver/Src/stm32f4xx_hal_i2s_ex.c **** 
 1827              		.loc 1 560 3 view .LVU598
 1828 0028 94F84020 		ldrb	r2, [r4, #64]	@ zero_extendqisi2
 1829              	.LVL87:
 560:Drivers/STM32F4xx_HAL_Driver/Src/stm32f4xx_hal_i2s_ex.c **** 
 1830              		.loc 1 560 3 is_stmt 0 view .LVU599
 1831 002c D2B2     		uxtb	r2, r2
 1832 002e 012A     		cmp	r2, #1
 1833 0030 00F0CB80 		beq	.L188
 560:Drivers/STM32F4xx_HAL_Driver/Src/stm32f4xx_hal_i2s_ex.c **** 
 1834              		.loc 1 560 3 is_stmt 1 discriminator 2 view .LVU600
 1835 0034 0122     		movs	r2, #1
 1836 0036 84F84020 		strb	r2, [r4, #64]
 560:Drivers/STM32F4xx_HAL_Driver/Src/stm32f4xx_hal_i2s_ex.c **** 
 1837              		.loc 1 560 3 discriminator 2 view .LVU601
 562:Drivers/STM32F4xx_HAL_Driver/Src/stm32f4xx_hal_i2s_ex.c ****   hi2s->pRxBuffPtr = pRxData;
 1838              		.loc 1 562 3 view .LVU602
 562:Drivers/STM32F4xx_HAL_Driver/Src/stm32f4xx_hal_i2s_ex.c ****   hi2s->pRxBuffPtr = pRxData;
 1839              		.loc 1 562 20 is_stmt 0 view .LVU603
 1840 003a 6162     		str	r1, [r4, #36]
 563:Drivers/STM32F4xx_HAL_Driver/Src/stm32f4xx_hal_i2s_ex.c **** 
ARM GAS  C:\Users\jonas\AppData\Local\Temp\ccyC9VxG.s 			page 60


 1841              		.loc 1 563 3 is_stmt 1 view .LVU604
 563:Drivers/STM32F4xx_HAL_Driver/Src/stm32f4xx_hal_i2s_ex.c **** 
 1842              		.loc 1 563 20 is_stmt 0 view .LVU605
 1843 003c E662     		str	r6, [r4, #44]
 565:Drivers/STM32F4xx_HAL_Driver/Src/stm32f4xx_hal_i2s_ex.c ****   /* Check the Data format: When a 16-bit data frame or a 16-bit data frame extended
 1844              		.loc 1 565 3 is_stmt 1 view .LVU606
 565:Drivers/STM32F4xx_HAL_Driver/Src/stm32f4xx_hal_i2s_ex.c ****   /* Check the Data format: When a 16-bit data frame or a 16-bit data frame extended
 1845              		.loc 1 565 14 is_stmt 0 view .LVU607
 1846 003e 2268     		ldr	r2, [r4]
 565:Drivers/STM32F4xx_HAL_Driver/Src/stm32f4xx_hal_i2s_ex.c ****   /* Check the Data format: When a 16-bit data frame or a 16-bit data frame extended
 1847              		.loc 1 565 24 view .LVU608
 1848 0040 D269     		ldr	r2, [r2, #28]
 565:Drivers/STM32F4xx_HAL_Driver/Src/stm32f4xx_hal_i2s_ex.c ****   /* Check the Data format: When a 16-bit data frame or a 16-bit data frame extended
 1849              		.loc 1 565 8 view .LVU609
 1850 0042 02F00702 		and	r2, r2, #7
 1851              	.LVL88:
 570:Drivers/STM32F4xx_HAL_Driver/Src/stm32f4xx_hal_i2s_ex.c ****   {
 1852              		.loc 1 570 3 is_stmt 1 view .LVU610
 570:Drivers/STM32F4xx_HAL_Driver/Src/stm32f4xx_hal_i2s_ex.c ****   {
 1853              		.loc 1 570 6 is_stmt 0 view .LVU611
 1854 0046 032A     		cmp	r2, #3
 1855 0048 06D0     		beq	.L175
 570:Drivers/STM32F4xx_HAL_Driver/Src/stm32f4xx_hal_i2s_ex.c ****   {
 1856              		.loc 1 570 36 discriminator 1 view .LVU612
 1857 004a 052A     		cmp	r2, #5
 1858 004c 04D0     		beq	.L175
 579:Drivers/STM32F4xx_HAL_Driver/Src/stm32f4xx_hal_i2s_ex.c ****     hi2s->TxXferCount = Size;
 1859              		.loc 1 579 5 is_stmt 1 view .LVU613
 579:Drivers/STM32F4xx_HAL_Driver/Src/stm32f4xx_hal_i2s_ex.c ****     hi2s->TxXferCount = Size;
 1860              		.loc 1 579 23 is_stmt 0 view .LVU614
 1861 004e 2385     		strh	r3, [r4, #40]	@ movhi
 580:Drivers/STM32F4xx_HAL_Driver/Src/stm32f4xx_hal_i2s_ex.c ****     hi2s->RxXferSize  = Size;
 1862              		.loc 1 580 5 is_stmt 1 view .LVU615
 580:Drivers/STM32F4xx_HAL_Driver/Src/stm32f4xx_hal_i2s_ex.c ****     hi2s->RxXferSize  = Size;
 1863              		.loc 1 580 23 is_stmt 0 view .LVU616
 1864 0050 6385     		strh	r3, [r4, #42]	@ movhi
 581:Drivers/STM32F4xx_HAL_Driver/Src/stm32f4xx_hal_i2s_ex.c ****     hi2s->RxXferCount = Size;
 1865              		.loc 1 581 5 is_stmt 1 view .LVU617
 581:Drivers/STM32F4xx_HAL_Driver/Src/stm32f4xx_hal_i2s_ex.c ****     hi2s->RxXferCount = Size;
 1866              		.loc 1 581 23 is_stmt 0 view .LVU618
 1867 0052 2386     		strh	r3, [r4, #48]	@ movhi
 582:Drivers/STM32F4xx_HAL_Driver/Src/stm32f4xx_hal_i2s_ex.c ****   }
 1868              		.loc 1 582 5 is_stmt 1 view .LVU619
 582:Drivers/STM32F4xx_HAL_Driver/Src/stm32f4xx_hal_i2s_ex.c ****   }
 1869              		.loc 1 582 23 is_stmt 0 view .LVU620
 1870 0054 6386     		strh	r3, [r4, #50]	@ movhi
 1871 0056 05E0     		b	.L177
 1872              	.L175:
 572:Drivers/STM32F4xx_HAL_Driver/Src/stm32f4xx_hal_i2s_ex.c ****     hi2s->TxXferCount = (Size << 1U);
 1873              		.loc 1 572 5 is_stmt 1 view .LVU621
 572:Drivers/STM32F4xx_HAL_Driver/Src/stm32f4xx_hal_i2s_ex.c ****     hi2s->TxXferCount = (Size << 1U);
 1874              		.loc 1 572 31 is_stmt 0 view .LVU622
 1875 0058 5B00     		lsls	r3, r3, #1
 1876              	.LVL89:
 572:Drivers/STM32F4xx_HAL_Driver/Src/stm32f4xx_hal_i2s_ex.c ****     hi2s->TxXferCount = (Size << 1U);
 1877              		.loc 1 572 31 view .LVU623
 1878 005a 9BB2     		uxth	r3, r3
ARM GAS  C:\Users\jonas\AppData\Local\Temp\ccyC9VxG.s 			page 61


 572:Drivers/STM32F4xx_HAL_Driver/Src/stm32f4xx_hal_i2s_ex.c ****     hi2s->TxXferCount = (Size << 1U);
 1879              		.loc 1 572 23 view .LVU624
 1880 005c 2385     		strh	r3, [r4, #40]	@ movhi
 573:Drivers/STM32F4xx_HAL_Driver/Src/stm32f4xx_hal_i2s_ex.c ****     hi2s->RxXferSize  = (Size << 1U);
 1881              		.loc 1 573 5 is_stmt 1 view .LVU625
 573:Drivers/STM32F4xx_HAL_Driver/Src/stm32f4xx_hal_i2s_ex.c ****     hi2s->RxXferSize  = (Size << 1U);
 1882              		.loc 1 573 23 is_stmt 0 view .LVU626
 1883 005e 6385     		strh	r3, [r4, #42]	@ movhi
 574:Drivers/STM32F4xx_HAL_Driver/Src/stm32f4xx_hal_i2s_ex.c ****     hi2s->RxXferCount = (Size << 1U);
 1884              		.loc 1 574 5 is_stmt 1 view .LVU627
 574:Drivers/STM32F4xx_HAL_Driver/Src/stm32f4xx_hal_i2s_ex.c ****     hi2s->RxXferCount = (Size << 1U);
 1885              		.loc 1 574 23 is_stmt 0 view .LVU628
 1886 0060 2386     		strh	r3, [r4, #48]	@ movhi
 575:Drivers/STM32F4xx_HAL_Driver/Src/stm32f4xx_hal_i2s_ex.c ****   }
 1887              		.loc 1 575 5 is_stmt 1 view .LVU629
 575:Drivers/STM32F4xx_HAL_Driver/Src/stm32f4xx_hal_i2s_ex.c ****   }
 1888              		.loc 1 575 23 is_stmt 0 view .LVU630
 1889 0062 6386     		strh	r3, [r4, #50]	@ movhi
 1890              	.L177:
 585:Drivers/STM32F4xx_HAL_Driver/Src/stm32f4xx_hal_i2s_ex.c ****   hi2s->State     = HAL_I2S_STATE_BUSY_TX_RX;
 1891              		.loc 1 585 3 is_stmt 1 view .LVU631
 585:Drivers/STM32F4xx_HAL_Driver/Src/stm32f4xx_hal_i2s_ex.c ****   hi2s->State     = HAL_I2S_STATE_BUSY_TX_RX;
 1892              		.loc 1 585 19 is_stmt 0 view .LVU632
 1893 0064 0023     		movs	r3, #0
 1894 0066 6364     		str	r3, [r4, #68]
 586:Drivers/STM32F4xx_HAL_Driver/Src/stm32f4xx_hal_i2s_ex.c **** 
 1895              		.loc 1 586 3 is_stmt 1 view .LVU633
 586:Drivers/STM32F4xx_HAL_Driver/Src/stm32f4xx_hal_i2s_ex.c **** 
 1896              		.loc 1 586 19 is_stmt 0 view .LVU634
 1897 0068 0522     		movs	r2, #5
 1898              	.LVL90:
 586:Drivers/STM32F4xx_HAL_Driver/Src/stm32f4xx_hal_i2s_ex.c **** 
 1899              		.loc 1 586 19 view .LVU635
 1900 006a 84F84120 		strb	r2, [r4, #65]
 589:Drivers/STM32F4xx_HAL_Driver/Src/stm32f4xx_hal_i2s_ex.c **** 
 1901              		.loc 1 589 3 is_stmt 1 view .LVU636
 589:Drivers/STM32F4xx_HAL_Driver/Src/stm32f4xx_hal_i2s_ex.c **** 
 1902              		.loc 1 589 7 is_stmt 0 view .LVU637
 1903 006e E26B     		ldr	r2, [r4, #60]
 589:Drivers/STM32F4xx_HAL_Driver/Src/stm32f4xx_hal_i2s_ex.c **** 
 1904              		.loc 1 589 38 view .LVU638
 1905 0070 5749     		ldr	r1, .L205
 1906              	.LVL91:
 589:Drivers/STM32F4xx_HAL_Driver/Src/stm32f4xx_hal_i2s_ex.c **** 
 1907              		.loc 1 589 38 view .LVU639
 1908 0072 1164     		str	r1, [r2, #64]
 592:Drivers/STM32F4xx_HAL_Driver/Src/stm32f4xx_hal_i2s_ex.c **** 
 1909              		.loc 1 592 3 is_stmt 1 view .LVU640
 592:Drivers/STM32F4xx_HAL_Driver/Src/stm32f4xx_hal_i2s_ex.c **** 
 1910              		.loc 1 592 7 is_stmt 0 view .LVU641
 1911 0074 E26B     		ldr	r2, [r4, #60]
 592:Drivers/STM32F4xx_HAL_Driver/Src/stm32f4xx_hal_i2s_ex.c **** 
 1912              		.loc 1 592 35 view .LVU642
 1913 0076 5749     		ldr	r1, .L205+4
 1914 0078 D163     		str	r1, [r2, #60]
 595:Drivers/STM32F4xx_HAL_Driver/Src/stm32f4xx_hal_i2s_ex.c **** 
 1915              		.loc 1 595 3 is_stmt 1 view .LVU643
ARM GAS  C:\Users\jonas\AppData\Local\Temp\ccyC9VxG.s 			page 62


 595:Drivers/STM32F4xx_HAL_Driver/Src/stm32f4xx_hal_i2s_ex.c **** 
 1916              		.loc 1 595 7 is_stmt 0 view .LVU644
 1917 007a E16B     		ldr	r1, [r4, #60]
 595:Drivers/STM32F4xx_HAL_Driver/Src/stm32f4xx_hal_i2s_ex.c **** 
 1918              		.loc 1 595 35 view .LVU645
 1919 007c 564A     		ldr	r2, .L205+8
 1920 007e CA64     		str	r2, [r1, #76]
 598:Drivers/STM32F4xx_HAL_Driver/Src/stm32f4xx_hal_i2s_ex.c **** 
 1921              		.loc 1 598 3 is_stmt 1 view .LVU646
 598:Drivers/STM32F4xx_HAL_Driver/Src/stm32f4xx_hal_i2s_ex.c **** 
 1922              		.loc 1 598 7 is_stmt 0 view .LVU647
 1923 0080 A16B     		ldr	r1, [r4, #56]
 598:Drivers/STM32F4xx_HAL_Driver/Src/stm32f4xx_hal_i2s_ex.c **** 
 1924              		.loc 1 598 39 view .LVU648
 1925 0082 0B64     		str	r3, [r1, #64]
 601:Drivers/STM32F4xx_HAL_Driver/Src/stm32f4xx_hal_i2s_ex.c **** 
 1926              		.loc 1 601 3 is_stmt 1 view .LVU649
 601:Drivers/STM32F4xx_HAL_Driver/Src/stm32f4xx_hal_i2s_ex.c **** 
 1927              		.loc 1 601 7 is_stmt 0 view .LVU650
 1928 0084 A16B     		ldr	r1, [r4, #56]
 601:Drivers/STM32F4xx_HAL_Driver/Src/stm32f4xx_hal_i2s_ex.c **** 
 1929              		.loc 1 601 35 view .LVU651
 1930 0086 CB63     		str	r3, [r1, #60]
 604:Drivers/STM32F4xx_HAL_Driver/Src/stm32f4xx_hal_i2s_ex.c **** 
 1931              		.loc 1 604 3 is_stmt 1 view .LVU652
 604:Drivers/STM32F4xx_HAL_Driver/Src/stm32f4xx_hal_i2s_ex.c **** 
 1932              		.loc 1 604 7 is_stmt 0 view .LVU653
 1933 0088 A36B     		ldr	r3, [r4, #56]
 604:Drivers/STM32F4xx_HAL_Driver/Src/stm32f4xx_hal_i2s_ex.c **** 
 1934              		.loc 1 604 35 view .LVU654
 1935 008a DA64     		str	r2, [r3, #76]
 606:Drivers/STM32F4xx_HAL_Driver/Src/stm32f4xx_hal_i2s_ex.c ****   /* Check if the I2S_MODE_MASTER_TX or I2S_MODE_SLAVE_TX Mode is selected */
 1936              		.loc 1 606 3 is_stmt 1 view .LVU655
 606:Drivers/STM32F4xx_HAL_Driver/Src/stm32f4xx_hal_i2s_ex.c ****   /* Check if the I2S_MODE_MASTER_TX or I2S_MODE_SLAVE_TX Mode is selected */
 1937              		.loc 1 606 14 is_stmt 0 view .LVU656
 1938 008c 2268     		ldr	r2, [r4]
 606:Drivers/STM32F4xx_HAL_Driver/Src/stm32f4xx_hal_i2s_ex.c ****   /* Check if the I2S_MODE_MASTER_TX or I2S_MODE_SLAVE_TX Mode is selected */
 1939              		.loc 1 606 24 view .LVU657
 1940 008e D369     		ldr	r3, [r2, #28]
 606:Drivers/STM32F4xx_HAL_Driver/Src/stm32f4xx_hal_i2s_ex.c ****   /* Check if the I2S_MODE_MASTER_TX or I2S_MODE_SLAVE_TX Mode is selected */
 1941              		.loc 1 606 8 view .LVU658
 1942 0090 03F44073 		and	r3, r3, #768
 1943              	.LVL92:
 608:Drivers/STM32F4xx_HAL_Driver/Src/stm32f4xx_hal_i2s_ex.c ****   {
 1944              		.loc 1 608 3 is_stmt 1 view .LVU659
 608:Drivers/STM32F4xx_HAL_Driver/Src/stm32f4xx_hal_i2s_ex.c ****   {
 1945              		.loc 1 608 6 is_stmt 0 view .LVU660
 1946 0094 B3F5007F 		cmp	r3, #512
 1947 0098 01D0     		beq	.L178
 608:Drivers/STM32F4xx_HAL_Driver/Src/stm32f4xx_hal_i2s_ex.c ****   {
 1948              		.loc 1 608 36 discriminator 1 view .LVU661
 1949 009a 002B     		cmp	r3, #0
 1950 009c 3ED1     		bne	.L179
 1951              	.L178:
 611:Drivers/STM32F4xx_HAL_Driver/Src/stm32f4xx_hal_i2s_ex.c ****     HAL_DMA_Start_IT(hi2s->hdmarx, (uint32_t)&I2SxEXT(hi2s->Instance)->DR, *(uint32_t *)tmp, hi2s->
 1952              		.loc 1 611 5 is_stmt 1 view .LVU662
 1953              	.LVL93:
ARM GAS  C:\Users\jonas\AppData\Local\Temp\ccyC9VxG.s 			page 63


 612:Drivers/STM32F4xx_HAL_Driver/Src/stm32f4xx_hal_i2s_ex.c **** 
 1954              		.loc 1 612 5 view .LVU663
 1955 009e E06B     		ldr	r0, [r4, #60]
 612:Drivers/STM32F4xx_HAL_Driver/Src/stm32f4xx_hal_i2s_ex.c **** 
 1956              		.loc 1 612 47 is_stmt 0 view .LVU664
 1957 00a0 4E4B     		ldr	r3, .L205+12
 1958              	.LVL94:
 612:Drivers/STM32F4xx_HAL_Driver/Src/stm32f4xx_hal_i2s_ex.c **** 
 1959              		.loc 1 612 47 view .LVU665
 1960 00a2 9A42     		cmp	r2, r3
 1961 00a4 33D0     		beq	.L198
 612:Drivers/STM32F4xx_HAL_Driver/Src/stm32f4xx_hal_i2s_ex.c **** 
 1962              		.loc 1 612 47 discriminator 2 view .LVU666
 1963 00a6 4FF04021 		mov	r1, #1073758208
 1964              	.L180:
 612:Drivers/STM32F4xx_HAL_Driver/Src/stm32f4xx_hal_i2s_ex.c **** 
 1965              		.loc 1 612 98 discriminator 4 view .LVU667
 1966 00aa 238E     		ldrh	r3, [r4, #48]
 612:Drivers/STM32F4xx_HAL_Driver/Src/stm32f4xx_hal_i2s_ex.c **** 
 1967              		.loc 1 612 5 discriminator 4 view .LVU668
 1968 00ac 9BB2     		uxth	r3, r3
 1969 00ae 3246     		mov	r2, r6
 1970 00b0 0C31     		adds	r1, r1, #12
 1971 00b2 FFF7FEFF 		bl	HAL_DMA_Start_IT
 1972              	.LVL95:
 615:Drivers/STM32F4xx_HAL_Driver/Src/stm32f4xx_hal_i2s_ex.c **** 
 1973              		.loc 1 615 5 is_stmt 1 view .LVU669
 1974 00b6 2268     		ldr	r2, [r4]
 1975 00b8 484B     		ldr	r3, .L205+12
 1976 00ba 9A42     		cmp	r2, r3
 1977 00bc 29D0     		beq	.L199
 615:Drivers/STM32F4xx_HAL_Driver/Src/stm32f4xx_hal_i2s_ex.c **** 
 1978              		.loc 1 615 5 is_stmt 0 discriminator 2 view .LVU670
 1979 00be 4FF04022 		mov	r2, #1073758208
 1980              	.L181:
 615:Drivers/STM32F4xx_HAL_Driver/Src/stm32f4xx_hal_i2s_ex.c **** 
 1981              		.loc 1 615 5 discriminator 4 view .LVU671
 1982 00c2 5368     		ldr	r3, [r2, #4]
 615:Drivers/STM32F4xx_HAL_Driver/Src/stm32f4xx_hal_i2s_ex.c **** 
 1983              		.loc 1 615 5 discriminator 8 view .LVU672
 1984 00c4 43F00103 		orr	r3, r3, #1
 1985 00c8 5360     		str	r3, [r2, #4]
 618:Drivers/STM32F4xx_HAL_Driver/Src/stm32f4xx_hal_i2s_ex.c ****     HAL_DMA_Start_IT(hi2s->hdmatx, *(uint32_t *)tmp, (uint32_t)&hi2s->Instance->DR, hi2s->TxXferSiz
 1986              		.loc 1 618 5 is_stmt 1 view .LVU673
 1987              	.LVL96:
 619:Drivers/STM32F4xx_HAL_Driver/Src/stm32f4xx_hal_i2s_ex.c **** 
 1988              		.loc 1 619 5 view .LVU674
 619:Drivers/STM32F4xx_HAL_Driver/Src/stm32f4xx_hal_i2s_ex.c **** 
 1989              		.loc 1 619 69 is_stmt 0 view .LVU675
 1990 00ca 2268     		ldr	r2, [r4]
 619:Drivers/STM32F4xx_HAL_Driver/Src/stm32f4xx_hal_i2s_ex.c **** 
 1991              		.loc 1 619 89 view .LVU676
 1992 00cc 238D     		ldrh	r3, [r4, #40]
 619:Drivers/STM32F4xx_HAL_Driver/Src/stm32f4xx_hal_i2s_ex.c **** 
 1993              		.loc 1 619 5 view .LVU677
 1994 00ce 9BB2     		uxth	r3, r3
 1995 00d0 0C32     		adds	r2, r2, #12
ARM GAS  C:\Users\jonas\AppData\Local\Temp\ccyC9VxG.s 			page 64


 1996 00d2 2946     		mov	r1, r5
 1997 00d4 A06B     		ldr	r0, [r4, #56]
 1998 00d6 FFF7FEFF 		bl	HAL_DMA_Start_IT
 1999              	.LVL97:
 622:Drivers/STM32F4xx_HAL_Driver/Src/stm32f4xx_hal_i2s_ex.c **** 
 2000              		.loc 1 622 5 is_stmt 1 view .LVU678
 2001 00da 2268     		ldr	r2, [r4]
 2002 00dc 5368     		ldr	r3, [r2, #4]
 2003 00de 43F00203 		orr	r3, r3, #2
 2004 00e2 5360     		str	r3, [r2, #4]
 625:Drivers/STM32F4xx_HAL_Driver/Src/stm32f4xx_hal_i2s_ex.c ****     {
 2005              		.loc 1 625 5 view .LVU679
 625:Drivers/STM32F4xx_HAL_Driver/Src/stm32f4xx_hal_i2s_ex.c ****     {
 2006              		.loc 1 625 14 is_stmt 0 view .LVU680
 2007 00e4 2368     		ldr	r3, [r4]
 625:Drivers/STM32F4xx_HAL_Driver/Src/stm32f4xx_hal_i2s_ex.c ****     {
 2008              		.loc 1 625 24 view .LVU681
 2009 00e6 DA69     		ldr	r2, [r3, #28]
 625:Drivers/STM32F4xx_HAL_Driver/Src/stm32f4xx_hal_i2s_ex.c ****     {
 2010              		.loc 1 625 8 view .LVU682
 2011 00e8 12F4806F 		tst	r2, #1024
 2012 00ec 69D1     		bne	.L191
 628:Drivers/STM32F4xx_HAL_Driver/Src/stm32f4xx_hal_i2s_ex.c **** 
 2013              		.loc 1 628 7 is_stmt 1 view .LVU683
 2014 00ee 3B4A     		ldr	r2, .L205+12
 2015 00f0 9342     		cmp	r3, r2
 2016 00f2 10D0     		beq	.L200
 628:Drivers/STM32F4xx_HAL_Driver/Src/stm32f4xx_hal_i2s_ex.c **** 
 2017              		.loc 1 628 7 is_stmt 0 discriminator 2 view .LVU684
 2018 00f4 4FF04022 		mov	r2, #1073758208
 2019              	.L182:
 628:Drivers/STM32F4xx_HAL_Driver/Src/stm32f4xx_hal_i2s_ex.c **** 
 2020              		.loc 1 628 7 discriminator 4 view .LVU685
 2021 00f8 D369     		ldr	r3, [r2, #28]
 628:Drivers/STM32F4xx_HAL_Driver/Src/stm32f4xx_hal_i2s_ex.c **** 
 2022              		.loc 1 628 7 discriminator 8 view .LVU686
 2023 00fa 43F48063 		orr	r3, r3, #1024
 2024 00fe D361     		str	r3, [r2, #28]
 631:Drivers/STM32F4xx_HAL_Driver/Src/stm32f4xx_hal_i2s_ex.c ****     }
 2025              		.loc 1 631 7 is_stmt 1 view .LVU687
 2026 0100 2268     		ldr	r2, [r4]
 2027 0102 D369     		ldr	r3, [r2, #28]
 2028 0104 43F48063 		orr	r3, r3, #1024
 2029 0108 D361     		str	r3, [r2, #28]
 546:Drivers/STM32F4xx_HAL_Driver/Src/stm32f4xx_hal_i2s_ex.c **** 
 2030              		.loc 1 546 21 is_stmt 0 view .LVU688
 2031 010a 0020     		movs	r0, #0
 2032 010c 54E0     		b	.L173
 2033              	.LVL98:
 2034              	.L198:
 612:Drivers/STM32F4xx_HAL_Driver/Src/stm32f4xx_hal_i2s_ex.c **** 
 2035              		.loc 1 612 47 discriminator 1 view .LVU689
 2036 010e 3449     		ldr	r1, .L205+16
 2037 0110 CBE7     		b	.L180
 2038              	.L199:
 615:Drivers/STM32F4xx_HAL_Driver/Src/stm32f4xx_hal_i2s_ex.c **** 
 2039              		.loc 1 615 5 discriminator 1 view .LVU690
ARM GAS  C:\Users\jonas\AppData\Local\Temp\ccyC9VxG.s 			page 65


 2040 0112 334A     		ldr	r2, .L205+16
 2041 0114 D5E7     		b	.L181
 2042              	.LVL99:
 2043              	.L200:
 628:Drivers/STM32F4xx_HAL_Driver/Src/stm32f4xx_hal_i2s_ex.c **** 
 2044              		.loc 1 628 7 discriminator 1 view .LVU691
 2045 0116 A2F58062 		sub	r2, r2, #1024
 2046 011a EDE7     		b	.L182
 2047              	.LVL100:
 2048              	.L179:
 637:Drivers/STM32F4xx_HAL_Driver/Src/stm32f4xx_hal_i2s_ex.c ****     {
 2049              		.loc 1 637 5 is_stmt 1 view .LVU692
 637:Drivers/STM32F4xx_HAL_Driver/Src/stm32f4xx_hal_i2s_ex.c ****     {
 2050              		.loc 1 637 24 is_stmt 0 view .LVU693
 2051 011c D369     		ldr	r3, [r2, #28]
 2052              	.LVL101:
 637:Drivers/STM32F4xx_HAL_Driver/Src/stm32f4xx_hal_i2s_ex.c ****     {
 2053              		.loc 1 637 34 view .LVU694
 2054 011e 03F44073 		and	r3, r3, #768
 637:Drivers/STM32F4xx_HAL_Driver/Src/stm32f4xx_hal_i2s_ex.c ****     {
 2055              		.loc 1 637 8 view .LVU695
 2056 0122 B3F5407F 		cmp	r3, #768
 2057 0126 37D0     		beq	.L201
 2058              	.L183:
 641:Drivers/STM32F4xx_HAL_Driver/Src/stm32f4xx_hal_i2s_ex.c ****     }
 2059              		.loc 1 641 7 is_stmt 1 discriminator 1 view .LVU696
 644:Drivers/STM32F4xx_HAL_Driver/Src/stm32f4xx_hal_i2s_ex.c ****     HAL_DMA_Start_IT(hi2s->hdmatx, *(uint32_t *)tmp, (uint32_t)&I2SxEXT(hi2s->Instance)->DR, hi2s->
 2060              		.loc 1 644 5 view .LVU697
 2061              	.LVL102:
 645:Drivers/STM32F4xx_HAL_Driver/Src/stm32f4xx_hal_i2s_ex.c **** 
 2062              		.loc 1 645 5 view .LVU698
 2063 0128 A06B     		ldr	r0, [r4, #56]
 645:Drivers/STM32F4xx_HAL_Driver/Src/stm32f4xx_hal_i2s_ex.c **** 
 2064              		.loc 1 645 65 is_stmt 0 view .LVU699
 2065 012a 2C4B     		ldr	r3, .L205+12
 2066 012c 9A42     		cmp	r2, r3
 2067 012e 3BD0     		beq	.L202
 645:Drivers/STM32F4xx_HAL_Driver/Src/stm32f4xx_hal_i2s_ex.c **** 
 2068              		.loc 1 645 65 discriminator 2 view .LVU700
 2069 0130 4FF04022 		mov	r2, #1073758208
 2070              	.L184:
 645:Drivers/STM32F4xx_HAL_Driver/Src/stm32f4xx_hal_i2s_ex.c **** 
 2071              		.loc 1 645 98 discriminator 4 view .LVU701
 2072 0134 238D     		ldrh	r3, [r4, #40]
 645:Drivers/STM32F4xx_HAL_Driver/Src/stm32f4xx_hal_i2s_ex.c **** 
 2073              		.loc 1 645 5 discriminator 4 view .LVU702
 2074 0136 9BB2     		uxth	r3, r3
 2075 0138 0C32     		adds	r2, r2, #12
 2076 013a 2946     		mov	r1, r5
 2077 013c FFF7FEFF 		bl	HAL_DMA_Start_IT
 2078              	.LVL103:
 648:Drivers/STM32F4xx_HAL_Driver/Src/stm32f4xx_hal_i2s_ex.c **** 
 2079              		.loc 1 648 5 is_stmt 1 view .LVU703
 2080 0140 2268     		ldr	r2, [r4]
 2081 0142 264B     		ldr	r3, .L205+12
 2082 0144 9A42     		cmp	r2, r3
 2083 0146 31D0     		beq	.L203
ARM GAS  C:\Users\jonas\AppData\Local\Temp\ccyC9VxG.s 			page 66


 648:Drivers/STM32F4xx_HAL_Driver/Src/stm32f4xx_hal_i2s_ex.c **** 
 2084              		.loc 1 648 5 is_stmt 0 discriminator 2 view .LVU704
 2085 0148 4FF04022 		mov	r2, #1073758208
 2086              	.L185:
 648:Drivers/STM32F4xx_HAL_Driver/Src/stm32f4xx_hal_i2s_ex.c **** 
 2087              		.loc 1 648 5 discriminator 4 view .LVU705
 2088 014c 5368     		ldr	r3, [r2, #4]
 648:Drivers/STM32F4xx_HAL_Driver/Src/stm32f4xx_hal_i2s_ex.c **** 
 2089              		.loc 1 648 5 discriminator 8 view .LVU706
 2090 014e 43F00203 		orr	r3, r3, #2
 2091 0152 5360     		str	r3, [r2, #4]
 651:Drivers/STM32F4xx_HAL_Driver/Src/stm32f4xx_hal_i2s_ex.c ****     HAL_DMA_Start_IT(hi2s->hdmarx, (uint32_t)&hi2s->Instance->DR, *(uint32_t *)tmp, hi2s->RxXferSiz
 2092              		.loc 1 651 5 is_stmt 1 view .LVU707
 2093              	.LVL104:
 652:Drivers/STM32F4xx_HAL_Driver/Src/stm32f4xx_hal_i2s_ex.c **** 
 2094              		.loc 1 652 5 view .LVU708
 652:Drivers/STM32F4xx_HAL_Driver/Src/stm32f4xx_hal_i2s_ex.c **** 
 2095              		.loc 1 652 51 is_stmt 0 view .LVU709
 2096 0154 2168     		ldr	r1, [r4]
 652:Drivers/STM32F4xx_HAL_Driver/Src/stm32f4xx_hal_i2s_ex.c **** 
 2097              		.loc 1 652 89 view .LVU710
 2098 0156 238E     		ldrh	r3, [r4, #48]
 652:Drivers/STM32F4xx_HAL_Driver/Src/stm32f4xx_hal_i2s_ex.c **** 
 2099              		.loc 1 652 5 view .LVU711
 2100 0158 9BB2     		uxth	r3, r3
 2101 015a 3246     		mov	r2, r6
 2102 015c 0C31     		adds	r1, r1, #12
 2103 015e E06B     		ldr	r0, [r4, #60]
 2104 0160 FFF7FEFF 		bl	HAL_DMA_Start_IT
 2105              	.LVL105:
 655:Drivers/STM32F4xx_HAL_Driver/Src/stm32f4xx_hal_i2s_ex.c **** 
 2106              		.loc 1 655 5 is_stmt 1 view .LVU712
 2107 0164 2268     		ldr	r2, [r4]
 2108 0166 5368     		ldr	r3, [r2, #4]
 2109 0168 43F00103 		orr	r3, r3, #1
 2110 016c 5360     		str	r3, [r2, #4]
 658:Drivers/STM32F4xx_HAL_Driver/Src/stm32f4xx_hal_i2s_ex.c ****     {
 2111              		.loc 1 658 5 view .LVU713
 658:Drivers/STM32F4xx_HAL_Driver/Src/stm32f4xx_hal_i2s_ex.c ****     {
 2112              		.loc 1 658 14 is_stmt 0 view .LVU714
 2113 016e 2368     		ldr	r3, [r4]
 658:Drivers/STM32F4xx_HAL_Driver/Src/stm32f4xx_hal_i2s_ex.c ****     {
 2114              		.loc 1 658 24 view .LVU715
 2115 0170 DA69     		ldr	r2, [r3, #28]
 658:Drivers/STM32F4xx_HAL_Driver/Src/stm32f4xx_hal_i2s_ex.c ****     {
 2116              		.loc 1 658 8 view .LVU716
 2117 0172 12F4806F 		tst	r2, #1024
 2118 0176 26D1     		bne	.L195
 661:Drivers/STM32F4xx_HAL_Driver/Src/stm32f4xx_hal_i2s_ex.c ****       /* Enable I2S peripheral before the I2Sext */
 2119              		.loc 1 661 7 is_stmt 1 view .LVU717
 2120 0178 184A     		ldr	r2, .L205+12
 2121 017a 9342     		cmp	r3, r2
 2122 017c 18D0     		beq	.L204
 661:Drivers/STM32F4xx_HAL_Driver/Src/stm32f4xx_hal_i2s_ex.c ****       /* Enable I2S peripheral before the I2Sext */
 2123              		.loc 1 661 7 is_stmt 0 discriminator 2 view .LVU718
 2124 017e 4FF04022 		mov	r2, #1073758208
 2125              	.L186:
ARM GAS  C:\Users\jonas\AppData\Local\Temp\ccyC9VxG.s 			page 67


 661:Drivers/STM32F4xx_HAL_Driver/Src/stm32f4xx_hal_i2s_ex.c ****       /* Enable I2S peripheral before the I2Sext */
 2126              		.loc 1 661 7 discriminator 4 view .LVU719
 2127 0182 D369     		ldr	r3, [r2, #28]
 661:Drivers/STM32F4xx_HAL_Driver/Src/stm32f4xx_hal_i2s_ex.c ****       /* Enable I2S peripheral before the I2Sext */
 2128              		.loc 1 661 7 discriminator 8 view .LVU720
 2129 0184 43F48063 		orr	r3, r3, #1024
 2130 0188 D361     		str	r3, [r2, #28]
 663:Drivers/STM32F4xx_HAL_Driver/Src/stm32f4xx_hal_i2s_ex.c ****     }
 2131              		.loc 1 663 7 is_stmt 1 view .LVU721
 2132 018a 2268     		ldr	r2, [r4]
 2133 018c D369     		ldr	r3, [r2, #28]
 2134 018e 43F48063 		orr	r3, r3, #1024
 2135 0192 D361     		str	r3, [r2, #28]
 546:Drivers/STM32F4xx_HAL_Driver/Src/stm32f4xx_hal_i2s_ex.c **** 
 2136              		.loc 1 546 21 is_stmt 0 view .LVU722
 2137 0194 0020     		movs	r0, #0
 2138 0196 0FE0     		b	.L173
