ARM GAS  C:\Users\jonas\AppData\Local\Temp\cc7akkZT.s 			page 1


   1              		.cpu cortex-m4
   2              		.arch armv7e-m
   3              		.fpu fpv4-sp-d16
   4              		.eabi_attribute 27, 1
   5              		.eabi_attribute 28, 1
   6              		.eabi_attribute 20, 1
   7              		.eabi_attribute 21, 1
   8              		.eabi_attribute 23, 3
   9              		.eabi_attribute 24, 1
  10              		.eabi_attribute 25, 1
  11              		.eabi_attribute 26, 1
  12              		.eabi_attribute 30, 1
  13              		.eabi_attribute 34, 1
  14              		.eabi_attribute 18, 4
  15              		.file	"stm32f4xx_hal_msp.c"
  16              		.text
  17              	.Ltext0:
  18              		.cfi_sections	.debug_frame
  19              		.file 1 "Core/Src/stm32f4xx_hal_msp.c"
  20              		.section	.text.HAL_MspInit,"ax",%progbits
  21              		.align	1
  22              		.global	HAL_MspInit
  23              		.syntax unified
  24              		.thumb
  25              		.thumb_func
  27              	HAL_MspInit:
  28              	.LFB134:
   1:Core/Src/stm32f4xx_hal_msp.c **** /* USER CODE BEGIN Header */
   2:Core/Src/stm32f4xx_hal_msp.c **** /**
   3:Core/Src/stm32f4xx_hal_msp.c ****   ******************************************************************************
   4:Core/Src/stm32f4xx_hal_msp.c ****   * @file         stm32f4xx_hal_msp.c
   5:Core/Src/stm32f4xx_hal_msp.c ****   * @brief        This file provides code for the MSP Initialization
   6:Core/Src/stm32f4xx_hal_msp.c ****   *               and de-Initialization codes.
   7:Core/Src/stm32f4xx_hal_msp.c ****   ******************************************************************************
   8:Core/Src/stm32f4xx_hal_msp.c ****   * @attention
   9:Core/Src/stm32f4xx_hal_msp.c ****   *
  10:Core/Src/stm32f4xx_hal_msp.c ****   * Copyright (c) 2024 STMicroelectronics.
  11:Core/Src/stm32f4xx_hal_msp.c ****   * All rights reserved.
  12:Core/Src/stm32f4xx_hal_msp.c ****   *
  13:Core/Src/stm32f4xx_hal_msp.c ****   * This software is licensed under terms that can be found in the LICENSE file
  14:Core/Src/stm32f4xx_hal_msp.c ****   * in the root directory of this software component.
  15:Core/Src/stm32f4xx_hal_msp.c ****   * If no LICENSE file comes with this software, it is provided AS-IS.
  16:Core/Src/stm32f4xx_hal_msp.c ****   *
  17:Core/Src/stm32f4xx_hal_msp.c ****   ******************************************************************************
  18:Core/Src/stm32f4xx_hal_msp.c ****   */
  19:Core/Src/stm32f4xx_hal_msp.c **** /* USER CODE END Header */
  20:Core/Src/stm32f4xx_hal_msp.c **** 
  21:Core/Src/stm32f4xx_hal_msp.c **** /* Includes ------------------------------------------------------------------*/
  22:Core/Src/stm32f4xx_hal_msp.c **** #include "main.h"
  23:Core/Src/stm32f4xx_hal_msp.c **** /* USER CODE BEGIN Includes */
  24:Core/Src/stm32f4xx_hal_msp.c **** 
  25:Core/Src/stm32f4xx_hal_msp.c **** /* USER CODE END Includes */
  26:Core/Src/stm32f4xx_hal_msp.c **** extern DMA_HandleTypeDef hdma_spi3_tx;
  27:Core/Src/stm32f4xx_hal_msp.c **** 
  28:Core/Src/stm32f4xx_hal_msp.c **** extern DMA_HandleTypeDef hdma_sdio_rx;
  29:Core/Src/stm32f4xx_hal_msp.c **** 
  30:Core/Src/stm32f4xx_hal_msp.c **** extern DMA_HandleTypeDef hdma_sdio_tx;
ARM GAS  C:\Users\jonas\AppData\Local\Temp\cc7akkZT.s 			page 2


  31:Core/Src/stm32f4xx_hal_msp.c **** 
  32:Core/Src/stm32f4xx_hal_msp.c **** /* Private typedef -----------------------------------------------------------*/
  33:Core/Src/stm32f4xx_hal_msp.c **** /* USER CODE BEGIN TD */
  34:Core/Src/stm32f4xx_hal_msp.c **** 
  35:Core/Src/stm32f4xx_hal_msp.c **** /* USER CODE END TD */
  36:Core/Src/stm32f4xx_hal_msp.c **** 
  37:Core/Src/stm32f4xx_hal_msp.c **** /* Private define ------------------------------------------------------------*/
  38:Core/Src/stm32f4xx_hal_msp.c **** /* USER CODE BEGIN Define */
  39:Core/Src/stm32f4xx_hal_msp.c **** 
  40:Core/Src/stm32f4xx_hal_msp.c **** /* USER CODE END Define */
  41:Core/Src/stm32f4xx_hal_msp.c **** 
  42:Core/Src/stm32f4xx_hal_msp.c **** /* Private macro -------------------------------------------------------------*/
  43:Core/Src/stm32f4xx_hal_msp.c **** /* USER CODE BEGIN Macro */
  44:Core/Src/stm32f4xx_hal_msp.c **** 
  45:Core/Src/stm32f4xx_hal_msp.c **** /* USER CODE END Macro */
  46:Core/Src/stm32f4xx_hal_msp.c **** 
  47:Core/Src/stm32f4xx_hal_msp.c **** /* Private variables ---------------------------------------------------------*/
  48:Core/Src/stm32f4xx_hal_msp.c **** /* USER CODE BEGIN PV */
  49:Core/Src/stm32f4xx_hal_msp.c **** 
  50:Core/Src/stm32f4xx_hal_msp.c **** /* USER CODE END PV */
  51:Core/Src/stm32f4xx_hal_msp.c **** 
  52:Core/Src/stm32f4xx_hal_msp.c **** /* Private function prototypes -----------------------------------------------*/
  53:Core/Src/stm32f4xx_hal_msp.c **** /* USER CODE BEGIN PFP */
  54:Core/Src/stm32f4xx_hal_msp.c **** 
  55:Core/Src/stm32f4xx_hal_msp.c **** /* USER CODE END PFP */
  56:Core/Src/stm32f4xx_hal_msp.c **** 
  57:Core/Src/stm32f4xx_hal_msp.c **** /* External functions --------------------------------------------------------*/
  58:Core/Src/stm32f4xx_hal_msp.c **** /* USER CODE BEGIN ExternalFunctions */
  59:Core/Src/stm32f4xx_hal_msp.c **** 
  60:Core/Src/stm32f4xx_hal_msp.c **** /* USER CODE END ExternalFunctions */
  61:Core/Src/stm32f4xx_hal_msp.c **** 
  62:Core/Src/stm32f4xx_hal_msp.c **** /* USER CODE BEGIN 0 */
  63:Core/Src/stm32f4xx_hal_msp.c **** 
  64:Core/Src/stm32f4xx_hal_msp.c **** /* USER CODE END 0 */
  65:Core/Src/stm32f4xx_hal_msp.c **** /**
  66:Core/Src/stm32f4xx_hal_msp.c ****   * Initializes the Global MSP.
  67:Core/Src/stm32f4xx_hal_msp.c ****   */
  68:Core/Src/stm32f4xx_hal_msp.c **** void HAL_MspInit(void)
  69:Core/Src/stm32f4xx_hal_msp.c **** {
  29              		.loc 1 69 1 view -0
  30              		.cfi_startproc
  31              		@ args = 0, pretend = 0, frame = 8
  32              		@ frame_needed = 0, uses_anonymous_args = 0
  33 0000 00B5     		push	{lr}
  34              		.cfi_def_cfa_offset 4
  35              		.cfi_offset 14, -4
  36 0002 83B0     		sub	sp, sp, #12
  37              		.cfi_def_cfa_offset 16
  70:Core/Src/stm32f4xx_hal_msp.c **** 
  71:Core/Src/stm32f4xx_hal_msp.c ****   /* USER CODE BEGIN MspInit 0 */
  72:Core/Src/stm32f4xx_hal_msp.c **** 
  73:Core/Src/stm32f4xx_hal_msp.c ****   /* USER CODE END MspInit 0 */
  74:Core/Src/stm32f4xx_hal_msp.c **** 
  75:Core/Src/stm32f4xx_hal_msp.c ****   __HAL_RCC_SYSCFG_CLK_ENABLE();
  38              		.loc 1 75 3 view .LVU1
  39              	.LBB2:
  40              		.loc 1 75 3 view .LVU2
ARM GAS  C:\Users\jonas\AppData\Local\Temp\cc7akkZT.s 			page 3


  41 0004 0021     		movs	r1, #0
  42 0006 0091     		str	r1, [sp]
  43              		.loc 1 75 3 view .LVU3
  44 0008 0C4B     		ldr	r3, .L3
  45 000a 5A6C     		ldr	r2, [r3, #68]
  46 000c 42F48042 		orr	r2, r2, #16384
  47 0010 5A64     		str	r2, [r3, #68]
  48              		.loc 1 75 3 view .LVU4
  49 0012 5A6C     		ldr	r2, [r3, #68]
  50 0014 02F48042 		and	r2, r2, #16384
  51 0018 0092     		str	r2, [sp]
  52              		.loc 1 75 3 view .LVU5
  53 001a 009A     		ldr	r2, [sp]
  54              	.LBE2:
  55              		.loc 1 75 3 view .LVU6
  76:Core/Src/stm32f4xx_hal_msp.c ****   __HAL_RCC_PWR_CLK_ENABLE();
  56              		.loc 1 76 3 view .LVU7
  57              	.LBB3:
  58              		.loc 1 76 3 view .LVU8
  59 001c 0191     		str	r1, [sp, #4]
  60              		.loc 1 76 3 view .LVU9
  61 001e 1A6C     		ldr	r2, [r3, #64]
  62 0020 42F08052 		orr	r2, r2, #268435456
  63 0024 1A64     		str	r2, [r3, #64]
  64              		.loc 1 76 3 view .LVU10
  65 0026 1B6C     		ldr	r3, [r3, #64]
  66 0028 03F08053 		and	r3, r3, #268435456
  67 002c 0193     		str	r3, [sp, #4]
  68              		.loc 1 76 3 view .LVU11
  69 002e 019B     		ldr	r3, [sp, #4]
  70              	.LBE3:
  71              		.loc 1 76 3 view .LVU12
  77:Core/Src/stm32f4xx_hal_msp.c **** 
  78:Core/Src/stm32f4xx_hal_msp.c ****   HAL_NVIC_SetPriorityGrouping(NVIC_PRIORITYGROUP_0);
  72              		.loc 1 78 3 view .LVU13
  73 0030 0720     		movs	r0, #7
  74 0032 FFF7FEFF 		bl	HAL_NVIC_SetPriorityGrouping
  75              	.LVL0:
  79:Core/Src/stm32f4xx_hal_msp.c **** 
  80:Core/Src/stm32f4xx_hal_msp.c ****   /* System interrupt init*/
  81:Core/Src/stm32f4xx_hal_msp.c **** 
  82:Core/Src/stm32f4xx_hal_msp.c ****   /* USER CODE BEGIN MspInit 1 */
  83:Core/Src/stm32f4xx_hal_msp.c **** 
  84:Core/Src/stm32f4xx_hal_msp.c ****   /* USER CODE END MspInit 1 */
  85:Core/Src/stm32f4xx_hal_msp.c **** }
  76              		.loc 1 85 1 is_stmt 0 view .LVU14
  77 0036 03B0     		add	sp, sp, #12
  78              		.cfi_def_cfa_offset 4
  79              		@ sp needed
  80 0038 5DF804FB 		ldr	pc, [sp], #4
  81              	.L4:
  82              		.align	2
  83              	.L3:
  84 003c 00380240 		.word	1073887232
  85              		.cfi_endproc
  86              	.LFE134:
  88              		.section	.text.HAL_I2S_MspInit,"ax",%progbits
ARM GAS  C:\Users\jonas\AppData\Local\Temp\cc7akkZT.s 			page 4


  89              		.align	1
  90              		.global	HAL_I2S_MspInit
  91              		.syntax unified
  92              		.thumb
  93              		.thumb_func
  95              	HAL_I2S_MspInit:
  96              	.LVL1:
  97              	.LFB135:
  86:Core/Src/stm32f4xx_hal_msp.c **** 
  87:Core/Src/stm32f4xx_hal_msp.c **** /**
  88:Core/Src/stm32f4xx_hal_msp.c **** * @brief I2S MSP Initialization
  89:Core/Src/stm32f4xx_hal_msp.c **** * This function configures the hardware resources used in this example
  90:Core/Src/stm32f4xx_hal_msp.c **** * @param hi2s: I2S handle pointer
  91:Core/Src/stm32f4xx_hal_msp.c **** * @retval None
  92:Core/Src/stm32f4xx_hal_msp.c **** */
  93:Core/Src/stm32f4xx_hal_msp.c **** void HAL_I2S_MspInit(I2S_HandleTypeDef* hi2s)
  94:Core/Src/stm32f4xx_hal_msp.c **** {
  98              		.loc 1 94 1 is_stmt 1 view -0
  99              		.cfi_startproc
 100              		@ args = 0, pretend = 0, frame = 56
 101              		@ frame_needed = 0, uses_anonymous_args = 0
 102              		.loc 1 94 1 is_stmt 0 view .LVU16
 103 0000 F0B5     		push	{r4, r5, r6, r7, lr}
 104              		.cfi_def_cfa_offset 20
 105              		.cfi_offset 4, -20
 106              		.cfi_offset 5, -16
 107              		.cfi_offset 6, -12
 108              		.cfi_offset 7, -8
 109              		.cfi_offset 14, -4
 110 0002 8FB0     		sub	sp, sp, #60
 111              		.cfi_def_cfa_offset 80
  95:Core/Src/stm32f4xx_hal_msp.c ****   GPIO_InitTypeDef GPIO_InitStruct = {0};
 112              		.loc 1 95 3 is_stmt 1 view .LVU17
 113              		.loc 1 95 20 is_stmt 0 view .LVU18
 114 0004 0023     		movs	r3, #0
 115 0006 0993     		str	r3, [sp, #36]
 116 0008 0A93     		str	r3, [sp, #40]
 117 000a 0B93     		str	r3, [sp, #44]
 118 000c 0C93     		str	r3, [sp, #48]
 119 000e 0D93     		str	r3, [sp, #52]
  96:Core/Src/stm32f4xx_hal_msp.c ****   RCC_PeriphCLKInitTypeDef PeriphClkInitStruct = {0};
 120              		.loc 1 96 3 is_stmt 1 view .LVU19
 121              		.loc 1 96 28 is_stmt 0 view .LVU20
 122 0010 0493     		str	r3, [sp, #16]
 123 0012 0593     		str	r3, [sp, #20]
 124 0014 0693     		str	r3, [sp, #24]
 125 0016 0793     		str	r3, [sp, #28]
 126 0018 0893     		str	r3, [sp, #32]
  97:Core/Src/stm32f4xx_hal_msp.c ****   if(hi2s->Instance==SPI3)
 127              		.loc 1 97 3 is_stmt 1 view .LVU21
 128              		.loc 1 97 10 is_stmt 0 view .LVU22
 129 001a 0268     		ldr	r2, [r0]
 130              		.loc 1 97 5 view .LVU23
 131 001c 404B     		ldr	r3, .L13
 132 001e 9A42     		cmp	r2, r3
 133 0020 01D0     		beq	.L10
 134              	.LVL2:
ARM GAS  C:\Users\jonas\AppData\Local\Temp\cc7akkZT.s 			page 5


 135              	.L5:
  98:Core/Src/stm32f4xx_hal_msp.c ****   {
  99:Core/Src/stm32f4xx_hal_msp.c ****   /* USER CODE BEGIN SPI3_MspInit 0 */
 100:Core/Src/stm32f4xx_hal_msp.c **** 
 101:Core/Src/stm32f4xx_hal_msp.c ****   /* USER CODE END SPI3_MspInit 0 */
 102:Core/Src/stm32f4xx_hal_msp.c **** 
 103:Core/Src/stm32f4xx_hal_msp.c ****   /** Initializes the peripherals clock
 104:Core/Src/stm32f4xx_hal_msp.c ****   */
 105:Core/Src/stm32f4xx_hal_msp.c ****     PeriphClkInitStruct.PeriphClockSelection = RCC_PERIPHCLK_I2S;
 106:Core/Src/stm32f4xx_hal_msp.c ****     PeriphClkInitStruct.PLLI2S.PLLI2SN = 316;
 107:Core/Src/stm32f4xx_hal_msp.c ****     PeriphClkInitStruct.PLLI2S.PLLI2SR = 7;
 108:Core/Src/stm32f4xx_hal_msp.c ****     if (HAL_RCCEx_PeriphCLKConfig(&PeriphClkInitStruct) != HAL_OK)
 109:Core/Src/stm32f4xx_hal_msp.c ****     {
 110:Core/Src/stm32f4xx_hal_msp.c ****       Error_Handler();
 111:Core/Src/stm32f4xx_hal_msp.c ****     }
 112:Core/Src/stm32f4xx_hal_msp.c **** 
 113:Core/Src/stm32f4xx_hal_msp.c ****     /* Peripheral clock enable */
 114:Core/Src/stm32f4xx_hal_msp.c ****     __HAL_RCC_SPI3_CLK_ENABLE();
 115:Core/Src/stm32f4xx_hal_msp.c **** 
 116:Core/Src/stm32f4xx_hal_msp.c ****     __HAL_RCC_GPIOA_CLK_ENABLE();
 117:Core/Src/stm32f4xx_hal_msp.c ****     __HAL_RCC_GPIOC_CLK_ENABLE();
 118:Core/Src/stm32f4xx_hal_msp.c ****     __HAL_RCC_GPIOB_CLK_ENABLE();
 119:Core/Src/stm32f4xx_hal_msp.c ****     /**I2S3 GPIO Configuration
 120:Core/Src/stm32f4xx_hal_msp.c ****     PA4     ------> I2S3_WS
 121:Core/Src/stm32f4xx_hal_msp.c ****     PC7     ------> I2S3_MCK
 122:Core/Src/stm32f4xx_hal_msp.c ****     PC10     ------> I2S3_CK
 123:Core/Src/stm32f4xx_hal_msp.c ****     PB5     ------> I2S3_SD
 124:Core/Src/stm32f4xx_hal_msp.c ****     */
 125:Core/Src/stm32f4xx_hal_msp.c ****     GPIO_InitStruct.Pin = GPIO_PIN_4;
 126:Core/Src/stm32f4xx_hal_msp.c ****     GPIO_InitStruct.Mode = GPIO_MODE_AF_PP;
 127:Core/Src/stm32f4xx_hal_msp.c ****     GPIO_InitStruct.Pull = GPIO_NOPULL;
 128:Core/Src/stm32f4xx_hal_msp.c ****     GPIO_InitStruct.Speed = GPIO_SPEED_FREQ_LOW;
 129:Core/Src/stm32f4xx_hal_msp.c ****     GPIO_InitStruct.Alternate = GPIO_AF6_SPI3;
 130:Core/Src/stm32f4xx_hal_msp.c ****     HAL_GPIO_Init(GPIOA, &GPIO_InitStruct);
 131:Core/Src/stm32f4xx_hal_msp.c **** 
 132:Core/Src/stm32f4xx_hal_msp.c ****     GPIO_InitStruct.Pin = GPIO_PIN_7|GPIO_PIN_10;
 133:Core/Src/stm32f4xx_hal_msp.c ****     GPIO_InitStruct.Mode = GPIO_MODE_AF_PP;
 134:Core/Src/stm32f4xx_hal_msp.c ****     GPIO_InitStruct.Pull = GPIO_NOPULL;
 135:Core/Src/stm32f4xx_hal_msp.c ****     GPIO_InitStruct.Speed = GPIO_SPEED_FREQ_LOW;
 136:Core/Src/stm32f4xx_hal_msp.c ****     GPIO_InitStruct.Alternate = GPIO_AF6_SPI3;
 137:Core/Src/stm32f4xx_hal_msp.c ****     HAL_GPIO_Init(GPIOC, &GPIO_InitStruct);
 138:Core/Src/stm32f4xx_hal_msp.c **** 
 139:Core/Src/stm32f4xx_hal_msp.c ****     GPIO_InitStruct.Pin = GPIO_PIN_5;
 140:Core/Src/stm32f4xx_hal_msp.c ****     GPIO_InitStruct.Mode = GPIO_MODE_AF_PP;
 141:Core/Src/stm32f4xx_hal_msp.c ****     GPIO_InitStruct.Pull = GPIO_NOPULL;
 142:Core/Src/stm32f4xx_hal_msp.c ****     GPIO_InitStruct.Speed = GPIO_SPEED_FREQ_LOW;
 143:Core/Src/stm32f4xx_hal_msp.c ****     GPIO_InitStruct.Alternate = GPIO_AF6_SPI3;
 144:Core/Src/stm32f4xx_hal_msp.c ****     HAL_GPIO_Init(GPIOB, &GPIO_InitStruct);
 145:Core/Src/stm32f4xx_hal_msp.c **** 
 146:Core/Src/stm32f4xx_hal_msp.c ****     /* I2S3 DMA Init */
 147:Core/Src/stm32f4xx_hal_msp.c ****     /* SPI3_TX Init */
 148:Core/Src/stm32f4xx_hal_msp.c ****     hdma_spi3_tx.Instance = DMA1_Stream5;
 149:Core/Src/stm32f4xx_hal_msp.c ****     hdma_spi3_tx.Init.Channel = DMA_CHANNEL_0;
 150:Core/Src/stm32f4xx_hal_msp.c ****     hdma_spi3_tx.Init.Direction = DMA_MEMORY_TO_PERIPH;
 151:Core/Src/stm32f4xx_hal_msp.c ****     hdma_spi3_tx.Init.PeriphInc = DMA_PINC_DISABLE;
 152:Core/Src/stm32f4xx_hal_msp.c ****     hdma_spi3_tx.Init.MemInc = DMA_MINC_ENABLE;
 153:Core/Src/stm32f4xx_hal_msp.c ****     hdma_spi3_tx.Init.PeriphDataAlignment = DMA_PDATAALIGN_HALFWORD;
ARM GAS  C:\Users\jonas\AppData\Local\Temp\cc7akkZT.s 			page 6


 154:Core/Src/stm32f4xx_hal_msp.c ****     hdma_spi3_tx.Init.MemDataAlignment = DMA_MDATAALIGN_HALFWORD;
 155:Core/Src/stm32f4xx_hal_msp.c ****     hdma_spi3_tx.Init.Mode = DMA_CIRCULAR;
 156:Core/Src/stm32f4xx_hal_msp.c ****     hdma_spi3_tx.Init.Priority = DMA_PRIORITY_VERY_HIGH;
 157:Core/Src/stm32f4xx_hal_msp.c ****     hdma_spi3_tx.Init.FIFOMode = DMA_FIFOMODE_DISABLE;
 158:Core/Src/stm32f4xx_hal_msp.c ****     if (HAL_DMA_Init(&hdma_spi3_tx) != HAL_OK)
 159:Core/Src/stm32f4xx_hal_msp.c ****     {
 160:Core/Src/stm32f4xx_hal_msp.c ****       Error_Handler();
 161:Core/Src/stm32f4xx_hal_msp.c ****     }
 162:Core/Src/stm32f4xx_hal_msp.c **** 
 163:Core/Src/stm32f4xx_hal_msp.c ****     __HAL_LINKDMA(hi2s,hdmatx,hdma_spi3_tx);
 164:Core/Src/stm32f4xx_hal_msp.c **** 
 165:Core/Src/stm32f4xx_hal_msp.c ****   /* USER CODE BEGIN SPI3_MspInit 1 */
 166:Core/Src/stm32f4xx_hal_msp.c **** 
 167:Core/Src/stm32f4xx_hal_msp.c ****   /* USER CODE END SPI3_MspInit 1 */
 168:Core/Src/stm32f4xx_hal_msp.c ****   }
 169:Core/Src/stm32f4xx_hal_msp.c **** 
 170:Core/Src/stm32f4xx_hal_msp.c **** }
 136              		.loc 1 170 1 view .LVU24
 137 0022 0FB0     		add	sp, sp, #60
 138              		.cfi_remember_state
 139              		.cfi_def_cfa_offset 20
 140              		@ sp needed
 141 0024 F0BD     		pop	{r4, r5, r6, r7, pc}
 142              	.LVL3:
 143              	.L10:
 144              		.cfi_restore_state
 145              		.loc 1 170 1 view .LVU25
 146 0026 0446     		mov	r4, r0
 105:Core/Src/stm32f4xx_hal_msp.c ****     PeriphClkInitStruct.PLLI2S.PLLI2SN = 316;
 147              		.loc 1 105 5 is_stmt 1 view .LVU26
 105:Core/Src/stm32f4xx_hal_msp.c ****     PeriphClkInitStruct.PLLI2S.PLLI2SN = 316;
 148              		.loc 1 105 46 is_stmt 0 view .LVU27
 149 0028 0123     		movs	r3, #1
 150 002a 0493     		str	r3, [sp, #16]
 106:Core/Src/stm32f4xx_hal_msp.c ****     PeriphClkInitStruct.PLLI2S.PLLI2SR = 7;
 151              		.loc 1 106 5 is_stmt 1 view .LVU28
 106:Core/Src/stm32f4xx_hal_msp.c ****     PeriphClkInitStruct.PLLI2S.PLLI2SR = 7;
 152              		.loc 1 106 40 is_stmt 0 view .LVU29
 153 002c 4FF49E73 		mov	r3, #316
 154 0030 0593     		str	r3, [sp, #20]
 107:Core/Src/stm32f4xx_hal_msp.c ****     if (HAL_RCCEx_PeriphCLKConfig(&PeriphClkInitStruct) != HAL_OK)
 155              		.loc 1 107 5 is_stmt 1 view .LVU30
 107:Core/Src/stm32f4xx_hal_msp.c ****     if (HAL_RCCEx_PeriphCLKConfig(&PeriphClkInitStruct) != HAL_OK)
 156              		.loc 1 107 40 is_stmt 0 view .LVU31
 157 0032 0723     		movs	r3, #7
 158 0034 0693     		str	r3, [sp, #24]
 108:Core/Src/stm32f4xx_hal_msp.c ****     {
 159              		.loc 1 108 5 is_stmt 1 view .LVU32
 108:Core/Src/stm32f4xx_hal_msp.c ****     {
 160              		.loc 1 108 9 is_stmt 0 view .LVU33
 161 0036 04A8     		add	r0, sp, #16
 162              	.LVL4:
 108:Core/Src/stm32f4xx_hal_msp.c ****     {
 163              		.loc 1 108 9 view .LVU34
 164 0038 FFF7FEFF 		bl	HAL_RCCEx_PeriphCLKConfig
 165              	.LVL5:
 108:Core/Src/stm32f4xx_hal_msp.c ****     {
ARM GAS  C:\Users\jonas\AppData\Local\Temp\cc7akkZT.s 			page 7


 166              		.loc 1 108 8 discriminator 1 view .LVU35
 167 003c 0028     		cmp	r0, #0
 168 003e 68D1     		bne	.L11
 169              	.L7:
 114:Core/Src/stm32f4xx_hal_msp.c **** 
 170              		.loc 1 114 5 is_stmt 1 view .LVU36
 171              	.LBB4:
 114:Core/Src/stm32f4xx_hal_msp.c **** 
 172              		.loc 1 114 5 view .LVU37
 173 0040 0025     		movs	r5, #0
 174 0042 0095     		str	r5, [sp]
 114:Core/Src/stm32f4xx_hal_msp.c **** 
 175              		.loc 1 114 5 view .LVU38
 176 0044 374B     		ldr	r3, .L13+4
 177 0046 1A6C     		ldr	r2, [r3, #64]
 178 0048 42F40042 		orr	r2, r2, #32768
 179 004c 1A64     		str	r2, [r3, #64]
 114:Core/Src/stm32f4xx_hal_msp.c **** 
 180              		.loc 1 114 5 view .LVU39
 181 004e 1A6C     		ldr	r2, [r3, #64]
 182 0050 02F40042 		and	r2, r2, #32768
 183 0054 0092     		str	r2, [sp]
 114:Core/Src/stm32f4xx_hal_msp.c **** 
 184              		.loc 1 114 5 view .LVU40
 185 0056 009A     		ldr	r2, [sp]
 186              	.LBE4:
 114:Core/Src/stm32f4xx_hal_msp.c **** 
 187              		.loc 1 114 5 view .LVU41
 116:Core/Src/stm32f4xx_hal_msp.c ****     __HAL_RCC_GPIOC_CLK_ENABLE();
 188              		.loc 1 116 5 view .LVU42
 189              	.LBB5:
 116:Core/Src/stm32f4xx_hal_msp.c ****     __HAL_RCC_GPIOC_CLK_ENABLE();
 190              		.loc 1 116 5 view .LVU43
 191 0058 0195     		str	r5, [sp, #4]
 116:Core/Src/stm32f4xx_hal_msp.c ****     __HAL_RCC_GPIOC_CLK_ENABLE();
 192              		.loc 1 116 5 view .LVU44
 193 005a 1A6B     		ldr	r2, [r3, #48]
 194 005c 42F00102 		orr	r2, r2, #1
 195 0060 1A63     		str	r2, [r3, #48]
 116:Core/Src/stm32f4xx_hal_msp.c ****     __HAL_RCC_GPIOC_CLK_ENABLE();
 196              		.loc 1 116 5 view .LVU45
 197 0062 1A6B     		ldr	r2, [r3, #48]
 198 0064 02F00102 		and	r2, r2, #1
 199 0068 0192     		str	r2, [sp, #4]
 116:Core/Src/stm32f4xx_hal_msp.c ****     __HAL_RCC_GPIOC_CLK_ENABLE();
 200              		.loc 1 116 5 view .LVU46
 201 006a 019A     		ldr	r2, [sp, #4]
 202              	.LBE5:
 116:Core/Src/stm32f4xx_hal_msp.c ****     __HAL_RCC_GPIOC_CLK_ENABLE();
 203              		.loc 1 116 5 view .LVU47
 117:Core/Src/stm32f4xx_hal_msp.c ****     __HAL_RCC_GPIOB_CLK_ENABLE();
 204              		.loc 1 117 5 view .LVU48
 205              	.LBB6:
 117:Core/Src/stm32f4xx_hal_msp.c ****     __HAL_RCC_GPIOB_CLK_ENABLE();
 206              		.loc 1 117 5 view .LVU49
 207 006c 0295     		str	r5, [sp, #8]
 117:Core/Src/stm32f4xx_hal_msp.c ****     __HAL_RCC_GPIOB_CLK_ENABLE();
ARM GAS  C:\Users\jonas\AppData\Local\Temp\cc7akkZT.s 			page 8


 208              		.loc 1 117 5 view .LVU50
 209 006e 1A6B     		ldr	r2, [r3, #48]
 210 0070 42F00402 		orr	r2, r2, #4
 211 0074 1A63     		str	r2, [r3, #48]
 117:Core/Src/stm32f4xx_hal_msp.c ****     __HAL_RCC_GPIOB_CLK_ENABLE();
 212              		.loc 1 117 5 view .LVU51
 213 0076 1A6B     		ldr	r2, [r3, #48]
 214 0078 02F00402 		and	r2, r2, #4
 215 007c 0292     		str	r2, [sp, #8]
 117:Core/Src/stm32f4xx_hal_msp.c ****     __HAL_RCC_GPIOB_CLK_ENABLE();
 216              		.loc 1 117 5 view .LVU52
 217 007e 029A     		ldr	r2, [sp, #8]
 218              	.LBE6:
 117:Core/Src/stm32f4xx_hal_msp.c ****     __HAL_RCC_GPIOB_CLK_ENABLE();
 219              		.loc 1 117 5 view .LVU53
 118:Core/Src/stm32f4xx_hal_msp.c ****     /**I2S3 GPIO Configuration
 220              		.loc 1 118 5 view .LVU54
 221              	.LBB7:
 118:Core/Src/stm32f4xx_hal_msp.c ****     /**I2S3 GPIO Configuration
 222              		.loc 1 118 5 view .LVU55
 223 0080 0395     		str	r5, [sp, #12]
 118:Core/Src/stm32f4xx_hal_msp.c ****     /**I2S3 GPIO Configuration
 224              		.loc 1 118 5 view .LVU56
 225 0082 1A6B     		ldr	r2, [r3, #48]
 226 0084 42F00202 		orr	r2, r2, #2
 227 0088 1A63     		str	r2, [r3, #48]
 118:Core/Src/stm32f4xx_hal_msp.c ****     /**I2S3 GPIO Configuration
 228              		.loc 1 118 5 view .LVU57
 229 008a 1B6B     		ldr	r3, [r3, #48]
 230 008c 03F00203 		and	r3, r3, #2
 231 0090 0393     		str	r3, [sp, #12]
 118:Core/Src/stm32f4xx_hal_msp.c ****     /**I2S3 GPIO Configuration
 232              		.loc 1 118 5 view .LVU58
 233 0092 039B     		ldr	r3, [sp, #12]
 234              	.LBE7:
 118:Core/Src/stm32f4xx_hal_msp.c ****     /**I2S3 GPIO Configuration
 235              		.loc 1 118 5 view .LVU59
 125:Core/Src/stm32f4xx_hal_msp.c ****     GPIO_InitStruct.Mode = GPIO_MODE_AF_PP;
 236              		.loc 1 125 5 view .LVU60
 125:Core/Src/stm32f4xx_hal_msp.c ****     GPIO_InitStruct.Mode = GPIO_MODE_AF_PP;
 237              		.loc 1 125 25 is_stmt 0 view .LVU61
 238 0094 1023     		movs	r3, #16
 239 0096 0993     		str	r3, [sp, #36]
 126:Core/Src/stm32f4xx_hal_msp.c ****     GPIO_InitStruct.Pull = GPIO_NOPULL;
 240              		.loc 1 126 5 is_stmt 1 view .LVU62
 126:Core/Src/stm32f4xx_hal_msp.c ****     GPIO_InitStruct.Pull = GPIO_NOPULL;
 241              		.loc 1 126 26 is_stmt 0 view .LVU63
 242 0098 0227     		movs	r7, #2
 243 009a 0A97     		str	r7, [sp, #40]
 127:Core/Src/stm32f4xx_hal_msp.c ****     GPIO_InitStruct.Speed = GPIO_SPEED_FREQ_LOW;
 244              		.loc 1 127 5 is_stmt 1 view .LVU64
 127:Core/Src/stm32f4xx_hal_msp.c ****     GPIO_InitStruct.Speed = GPIO_SPEED_FREQ_LOW;
 245              		.loc 1 127 26 is_stmt 0 view .LVU65
 246 009c 0B95     		str	r5, [sp, #44]
 128:Core/Src/stm32f4xx_hal_msp.c ****     GPIO_InitStruct.Alternate = GPIO_AF6_SPI3;
 247              		.loc 1 128 5 is_stmt 1 view .LVU66
 128:Core/Src/stm32f4xx_hal_msp.c ****     GPIO_InitStruct.Alternate = GPIO_AF6_SPI3;
ARM GAS  C:\Users\jonas\AppData\Local\Temp\cc7akkZT.s 			page 9


 248              		.loc 1 128 27 is_stmt 0 view .LVU67
 249 009e 0C95     		str	r5, [sp, #48]
 129:Core/Src/stm32f4xx_hal_msp.c ****     HAL_GPIO_Init(GPIOA, &GPIO_InitStruct);
 250              		.loc 1 129 5 is_stmt 1 view .LVU68
 129:Core/Src/stm32f4xx_hal_msp.c ****     HAL_GPIO_Init(GPIOA, &GPIO_InitStruct);
 251              		.loc 1 129 31 is_stmt 0 view .LVU69
 252 00a0 0626     		movs	r6, #6
 253 00a2 0D96     		str	r6, [sp, #52]
 130:Core/Src/stm32f4xx_hal_msp.c **** 
 254              		.loc 1 130 5 is_stmt 1 view .LVU70
 255 00a4 09A9     		add	r1, sp, #36
 256 00a6 2048     		ldr	r0, .L13+8
 257 00a8 FFF7FEFF 		bl	HAL_GPIO_Init
 258              	.LVL6:
 132:Core/Src/stm32f4xx_hal_msp.c ****     GPIO_InitStruct.Mode = GPIO_MODE_AF_PP;
 259              		.loc 1 132 5 view .LVU71
 132:Core/Src/stm32f4xx_hal_msp.c ****     GPIO_InitStruct.Mode = GPIO_MODE_AF_PP;
 260              		.loc 1 132 25 is_stmt 0 view .LVU72
 261 00ac 4FF49063 		mov	r3, #1152
 262 00b0 0993     		str	r3, [sp, #36]
 133:Core/Src/stm32f4xx_hal_msp.c ****     GPIO_InitStruct.Pull = GPIO_NOPULL;
 263              		.loc 1 133 5 is_stmt 1 view .LVU73
 133:Core/Src/stm32f4xx_hal_msp.c ****     GPIO_InitStruct.Pull = GPIO_NOPULL;
 264              		.loc 1 133 26 is_stmt 0 view .LVU74
 265 00b2 0A97     		str	r7, [sp, #40]
 134:Core/Src/stm32f4xx_hal_msp.c ****     GPIO_InitStruct.Speed = GPIO_SPEED_FREQ_LOW;
 266              		.loc 1 134 5 is_stmt 1 view .LVU75
 134:Core/Src/stm32f4xx_hal_msp.c ****     GPIO_InitStruct.Speed = GPIO_SPEED_FREQ_LOW;
 267              		.loc 1 134 26 is_stmt 0 view .LVU76
 268 00b4 0B95     		str	r5, [sp, #44]
 135:Core/Src/stm32f4xx_hal_msp.c ****     GPIO_InitStruct.Alternate = GPIO_AF6_SPI3;
 269              		.loc 1 135 5 is_stmt 1 view .LVU77
 135:Core/Src/stm32f4xx_hal_msp.c ****     GPIO_InitStruct.Alternate = GPIO_AF6_SPI3;
 270              		.loc 1 135 27 is_stmt 0 view .LVU78
 271 00b6 0C95     		str	r5, [sp, #48]
 136:Core/Src/stm32f4xx_hal_msp.c ****     HAL_GPIO_Init(GPIOC, &GPIO_InitStruct);
 272              		.loc 1 136 5 is_stmt 1 view .LVU79
 136:Core/Src/stm32f4xx_hal_msp.c ****     HAL_GPIO_Init(GPIOC, &GPIO_InitStruct);
 273              		.loc 1 136 31 is_stmt 0 view .LVU80
 274 00b8 0D96     		str	r6, [sp, #52]
 137:Core/Src/stm32f4xx_hal_msp.c **** 
 275              		.loc 1 137 5 is_stmt 1 view .LVU81
 276 00ba 09A9     		add	r1, sp, #36
 277 00bc 1B48     		ldr	r0, .L13+12
 278 00be FFF7FEFF 		bl	HAL_GPIO_Init
 279              	.LVL7:
 139:Core/Src/stm32f4xx_hal_msp.c ****     GPIO_InitStruct.Mode = GPIO_MODE_AF_PP;
 280              		.loc 1 139 5 view .LVU82
 139:Core/Src/stm32f4xx_hal_msp.c ****     GPIO_InitStruct.Mode = GPIO_MODE_AF_PP;
 281              		.loc 1 139 25 is_stmt 0 view .LVU83
 282 00c2 2023     		movs	r3, #32
 283 00c4 0993     		str	r3, [sp, #36]
 140:Core/Src/stm32f4xx_hal_msp.c ****     GPIO_InitStruct.Pull = GPIO_NOPULL;
 284              		.loc 1 140 5 is_stmt 1 view .LVU84
 140:Core/Src/stm32f4xx_hal_msp.c ****     GPIO_InitStruct.Pull = GPIO_NOPULL;
 285              		.loc 1 140 26 is_stmt 0 view .LVU85
 286 00c6 0A97     		str	r7, [sp, #40]
ARM GAS  C:\Users\jonas\AppData\Local\Temp\cc7akkZT.s 			page 10


 141:Core/Src/stm32f4xx_hal_msp.c ****     GPIO_InitStruct.Speed = GPIO_SPEED_FREQ_LOW;
 287              		.loc 1 141 5 is_stmt 1 view .LVU86
 141:Core/Src/stm32f4xx_hal_msp.c ****     GPIO_InitStruct.Speed = GPIO_SPEED_FREQ_LOW;
 288              		.loc 1 141 26 is_stmt 0 view .LVU87
 289 00c8 0B95     		str	r5, [sp, #44]
 142:Core/Src/stm32f4xx_hal_msp.c ****     GPIO_InitStruct.Alternate = GPIO_AF6_SPI3;
 290              		.loc 1 142 5 is_stmt 1 view .LVU88
 142:Core/Src/stm32f4xx_hal_msp.c ****     GPIO_InitStruct.Alternate = GPIO_AF6_SPI3;
 291              		.loc 1 142 27 is_stmt 0 view .LVU89
 292 00ca 0C95     		str	r5, [sp, #48]
 143:Core/Src/stm32f4xx_hal_msp.c ****     HAL_GPIO_Init(GPIOB, &GPIO_InitStruct);
 293              		.loc 1 143 5 is_stmt 1 view .LVU90
 143:Core/Src/stm32f4xx_hal_msp.c ****     HAL_GPIO_Init(GPIOB, &GPIO_InitStruct);
 294              		.loc 1 143 31 is_stmt 0 view .LVU91
 295 00cc 0D96     		str	r6, [sp, #52]
 144:Core/Src/stm32f4xx_hal_msp.c **** 
 296              		.loc 1 144 5 is_stmt 1 view .LVU92
 297 00ce 09A9     		add	r1, sp, #36
 298 00d0 1748     		ldr	r0, .L13+16
 299 00d2 FFF7FEFF 		bl	HAL_GPIO_Init
 300              	.LVL8:
 148:Core/Src/stm32f4xx_hal_msp.c ****     hdma_spi3_tx.Init.Channel = DMA_CHANNEL_0;
 301              		.loc 1 148 5 view .LVU93
 148:Core/Src/stm32f4xx_hal_msp.c ****     hdma_spi3_tx.Init.Channel = DMA_CHANNEL_0;
 302              		.loc 1 148 27 is_stmt 0 view .LVU94
 303 00d6 1748     		ldr	r0, .L13+20
 304 00d8 174B     		ldr	r3, .L13+24
 305 00da 0360     		str	r3, [r0]
 149:Core/Src/stm32f4xx_hal_msp.c ****     hdma_spi3_tx.Init.Direction = DMA_MEMORY_TO_PERIPH;
 306              		.loc 1 149 5 is_stmt 1 view .LVU95
 149:Core/Src/stm32f4xx_hal_msp.c ****     hdma_spi3_tx.Init.Direction = DMA_MEMORY_TO_PERIPH;
 307              		.loc 1 149 31 is_stmt 0 view .LVU96
 308 00dc 4560     		str	r5, [r0, #4]
 150:Core/Src/stm32f4xx_hal_msp.c ****     hdma_spi3_tx.Init.PeriphInc = DMA_PINC_DISABLE;
 309              		.loc 1 150 5 is_stmt 1 view .LVU97
 150:Core/Src/stm32f4xx_hal_msp.c ****     hdma_spi3_tx.Init.PeriphInc = DMA_PINC_DISABLE;
 310              		.loc 1 150 33 is_stmt 0 view .LVU98
 311 00de 4023     		movs	r3, #64
 312 00e0 8360     		str	r3, [r0, #8]
 151:Core/Src/stm32f4xx_hal_msp.c ****     hdma_spi3_tx.Init.MemInc = DMA_MINC_ENABLE;
 313              		.loc 1 151 5 is_stmt 1 view .LVU99
 151:Core/Src/stm32f4xx_hal_msp.c ****     hdma_spi3_tx.Init.MemInc = DMA_MINC_ENABLE;
 314              		.loc 1 151 33 is_stmt 0 view .LVU100
 315 00e2 C560     		str	r5, [r0, #12]
 152:Core/Src/stm32f4xx_hal_msp.c ****     hdma_spi3_tx.Init.PeriphDataAlignment = DMA_PDATAALIGN_HALFWORD;
 316              		.loc 1 152 5 is_stmt 1 view .LVU101
 152:Core/Src/stm32f4xx_hal_msp.c ****     hdma_spi3_tx.Init.PeriphDataAlignment = DMA_PDATAALIGN_HALFWORD;
 317              		.loc 1 152 30 is_stmt 0 view .LVU102
 318 00e4 4FF48063 		mov	r3, #1024
 319 00e8 0361     		str	r3, [r0, #16]
 153:Core/Src/stm32f4xx_hal_msp.c ****     hdma_spi3_tx.Init.MemDataAlignment = DMA_MDATAALIGN_HALFWORD;
 320              		.loc 1 153 5 is_stmt 1 view .LVU103
 153:Core/Src/stm32f4xx_hal_msp.c ****     hdma_spi3_tx.Init.MemDataAlignment = DMA_MDATAALIGN_HALFWORD;
 321              		.loc 1 153 43 is_stmt 0 view .LVU104
 322 00ea 4FF40063 		mov	r3, #2048
 323 00ee 4361     		str	r3, [r0, #20]
 154:Core/Src/stm32f4xx_hal_msp.c ****     hdma_spi3_tx.Init.Mode = DMA_CIRCULAR;
ARM GAS  C:\Users\jonas\AppData\Local\Temp\cc7akkZT.s 			page 11


 324              		.loc 1 154 5 is_stmt 1 view .LVU105
 154:Core/Src/stm32f4xx_hal_msp.c ****     hdma_spi3_tx.Init.Mode = DMA_CIRCULAR;
 325              		.loc 1 154 40 is_stmt 0 view .LVU106
 326 00f0 4FF40053 		mov	r3, #8192
 327 00f4 8361     		str	r3, [r0, #24]
 155:Core/Src/stm32f4xx_hal_msp.c ****     hdma_spi3_tx.Init.Priority = DMA_PRIORITY_VERY_HIGH;
 328              		.loc 1 155 5 is_stmt 1 view .LVU107
 155:Core/Src/stm32f4xx_hal_msp.c ****     hdma_spi3_tx.Init.Priority = DMA_PRIORITY_VERY_HIGH;
 329              		.loc 1 155 28 is_stmt 0 view .LVU108
 330 00f6 4FF48073 		mov	r3, #256
 331 00fa C361     		str	r3, [r0, #28]
 156:Core/Src/stm32f4xx_hal_msp.c ****     hdma_spi3_tx.Init.FIFOMode = DMA_FIFOMODE_DISABLE;
 332              		.loc 1 156 5 is_stmt 1 view .LVU109
 156:Core/Src/stm32f4xx_hal_msp.c ****     hdma_spi3_tx.Init.FIFOMode = DMA_FIFOMODE_DISABLE;
 333              		.loc 1 156 32 is_stmt 0 view .LVU110
 334 00fc 4FF44033 		mov	r3, #196608
 335 0100 0362     		str	r3, [r0, #32]
 157:Core/Src/stm32f4xx_hal_msp.c ****     if (HAL_DMA_Init(&hdma_spi3_tx) != HAL_OK)
 336              		.loc 1 157 5 is_stmt 1 view .LVU111
 157:Core/Src/stm32f4xx_hal_msp.c ****     if (HAL_DMA_Init(&hdma_spi3_tx) != HAL_OK)
 337              		.loc 1 157 32 is_stmt 0 view .LVU112
 338 0102 4562     		str	r5, [r0, #36]
 158:Core/Src/stm32f4xx_hal_msp.c ****     {
 339              		.loc 1 158 5 is_stmt 1 view .LVU113
 158:Core/Src/stm32f4xx_hal_msp.c ****     {
 340              		.loc 1 158 9 is_stmt 0 view .LVU114
 341 0104 FFF7FEFF 		bl	HAL_DMA_Init
 342              	.LVL9:
 158:Core/Src/stm32f4xx_hal_msp.c ****     {
 343              		.loc 1 158 8 discriminator 1 view .LVU115
 344 0108 30B9     		cbnz	r0, .L12
 345              	.L8:
 163:Core/Src/stm32f4xx_hal_msp.c **** 
 346              		.loc 1 163 5 is_stmt 1 view .LVU116
 163:Core/Src/stm32f4xx_hal_msp.c **** 
 347              		.loc 1 163 5 view .LVU117
 348 010a 0A4B     		ldr	r3, .L13+20
 349 010c A363     		str	r3, [r4, #56]
 163:Core/Src/stm32f4xx_hal_msp.c **** 
 350              		.loc 1 163 5 view .LVU118
 351 010e 9C63     		str	r4, [r3, #56]
 163:Core/Src/stm32f4xx_hal_msp.c **** 
 352              		.loc 1 163 5 discriminator 1 view .LVU119
 353              		.loc 1 170 1 is_stmt 0 view .LVU120
 354 0110 87E7     		b	.L5
 355              	.L11:
 110:Core/Src/stm32f4xx_hal_msp.c ****     }
 356              		.loc 1 110 7 is_stmt 1 view .LVU121
 357 0112 FFF7FEFF 		bl	Error_Handler
 358              	.LVL10:
 359 0116 93E7     		b	.L7
 360              	.L12:
 160:Core/Src/stm32f4xx_hal_msp.c ****     }
 361              		.loc 1 160 7 view .LVU122
 362 0118 FFF7FEFF 		bl	Error_Handler
 363              	.LVL11:
 364 011c F5E7     		b	.L8
ARM GAS  C:\Users\jonas\AppData\Local\Temp\cc7akkZT.s 			page 12


 365              	.L14:
 366 011e 00BF     		.align	2
 367              	.L13:
 368 0120 003C0040 		.word	1073757184
 369 0124 00380240 		.word	1073887232
 370 0128 00000240 		.word	1073872896
 371 012c 00080240 		.word	1073874944
 372 0130 00040240 		.word	1073873920
 373 0134 00000000 		.word	hdma_spi3_tx
 374 0138 88600240 		.word	1073897608
 375              		.cfi_endproc
 376              	.LFE135:
 378              		.section	.text.HAL_I2S_MspDeInit,"ax",%progbits
 379              		.align	1
 380              		.global	HAL_I2S_MspDeInit
 381              		.syntax unified
 382              		.thumb
 383              		.thumb_func
 385              	HAL_I2S_MspDeInit:
 386              	.LVL12:
 387              	.LFB136:
 171:Core/Src/stm32f4xx_hal_msp.c **** 
 172:Core/Src/stm32f4xx_hal_msp.c **** /**
 173:Core/Src/stm32f4xx_hal_msp.c **** * @brief I2S MSP De-Initialization
 174:Core/Src/stm32f4xx_hal_msp.c **** * This function freeze the hardware resources used in this example
 175:Core/Src/stm32f4xx_hal_msp.c **** * @param hi2s: I2S handle pointer
 176:Core/Src/stm32f4xx_hal_msp.c **** * @retval None
 177:Core/Src/stm32f4xx_hal_msp.c **** */
 178:Core/Src/stm32f4xx_hal_msp.c **** void HAL_I2S_MspDeInit(I2S_HandleTypeDef* hi2s)
 179:Core/Src/stm32f4xx_hal_msp.c **** {
 388              		.loc 1 179 1 view -0
 389              		.cfi_startproc
 390              		@ args = 0, pretend = 0, frame = 0
 391              		@ frame_needed = 0, uses_anonymous_args = 0
 180:Core/Src/stm32f4xx_hal_msp.c ****   if(hi2s->Instance==SPI3)
 392              		.loc 1 180 3 view .LVU124
 393              		.loc 1 180 10 is_stmt 0 view .LVU125
 394 0000 0268     		ldr	r2, [r0]
 395              		.loc 1 180 5 view .LVU126
 396 0002 0E4B     		ldr	r3, .L22
 397 0004 9A42     		cmp	r2, r3
 398 0006 00D0     		beq	.L21
 399 0008 7047     		bx	lr
 400              	.L21:
 179:Core/Src/stm32f4xx_hal_msp.c ****   if(hi2s->Instance==SPI3)
 401              		.loc 1 179 1 view .LVU127
 402 000a 10B5     		push	{r4, lr}
 403              		.cfi_def_cfa_offset 8
 404              		.cfi_offset 4, -8
 405              		.cfi_offset 14, -4
 406 000c 0446     		mov	r4, r0
 181:Core/Src/stm32f4xx_hal_msp.c ****   {
 182:Core/Src/stm32f4xx_hal_msp.c ****   /* USER CODE BEGIN SPI3_MspDeInit 0 */
 183:Core/Src/stm32f4xx_hal_msp.c **** 
 184:Core/Src/stm32f4xx_hal_msp.c ****   /* USER CODE END SPI3_MspDeInit 0 */
 185:Core/Src/stm32f4xx_hal_msp.c ****     /* Peripheral clock disable */
 186:Core/Src/stm32f4xx_hal_msp.c ****     __HAL_RCC_SPI3_CLK_DISABLE();
ARM GAS  C:\Users\jonas\AppData\Local\Temp\cc7akkZT.s 			page 13


 407              		.loc 1 186 5 is_stmt 1 view .LVU128
 408 000e 0C4A     		ldr	r2, .L22+4
 409 0010 136C     		ldr	r3, [r2, #64]
 410 0012 23F40043 		bic	r3, r3, #32768
 411 0016 1364     		str	r3, [r2, #64]
 187:Core/Src/stm32f4xx_hal_msp.c **** 
 188:Core/Src/stm32f4xx_hal_msp.c ****     /**I2S3 GPIO Configuration
 189:Core/Src/stm32f4xx_hal_msp.c ****     PA4     ------> I2S3_WS
 190:Core/Src/stm32f4xx_hal_msp.c ****     PC7     ------> I2S3_MCK
 191:Core/Src/stm32f4xx_hal_msp.c ****     PC10     ------> I2S3_CK
 192:Core/Src/stm32f4xx_hal_msp.c ****     PB5     ------> I2S3_SD
 193:Core/Src/stm32f4xx_hal_msp.c ****     */
 194:Core/Src/stm32f4xx_hal_msp.c ****     HAL_GPIO_DeInit(GPIOA, GPIO_PIN_4);
 412              		.loc 1 194 5 view .LVU129
 413 0018 1021     		movs	r1, #16
 414 001a 0A48     		ldr	r0, .L22+8
 415              	.LVL13:
 416              		.loc 1 194 5 is_stmt 0 view .LVU130
 417 001c FFF7FEFF 		bl	HAL_GPIO_DeInit
 418              	.LVL14:
 195:Core/Src/stm32f4xx_hal_msp.c **** 
 196:Core/Src/stm32f4xx_hal_msp.c ****     HAL_GPIO_DeInit(GPIOC, GPIO_PIN_7|GPIO_PIN_10);
 419              		.loc 1 196 5 is_stmt 1 view .LVU131
 420 0020 4FF49061 		mov	r1, #1152
 421 0024 0848     		ldr	r0, .L22+12
 422 0026 FFF7FEFF 		bl	HAL_GPIO_DeInit
 423              	.LVL15:
 197:Core/Src/stm32f4xx_hal_msp.c **** 
 198:Core/Src/stm32f4xx_hal_msp.c ****     HAL_GPIO_DeInit(GPIOB, GPIO_PIN_5);
 424              		.loc 1 198 5 view .LVU132
 425 002a 2021     		movs	r1, #32
 426 002c 0748     		ldr	r0, .L22+16
 427 002e FFF7FEFF 		bl	HAL_GPIO_DeInit
 428              	.LVL16:
 199:Core/Src/stm32f4xx_hal_msp.c **** 
 200:Core/Src/stm32f4xx_hal_msp.c ****     /* I2S3 DMA DeInit */
 201:Core/Src/stm32f4xx_hal_msp.c ****     HAL_DMA_DeInit(hi2s->hdmatx);
 429              		.loc 1 201 5 view .LVU133
 430 0032 A06B     		ldr	r0, [r4, #56]
 431 0034 FFF7FEFF 		bl	HAL_DMA_DeInit
 432              	.LVL17:
 202:Core/Src/stm32f4xx_hal_msp.c ****   /* USER CODE BEGIN SPI3_MspDeInit 1 */
 203:Core/Src/stm32f4xx_hal_msp.c **** 
 204:Core/Src/stm32f4xx_hal_msp.c ****   /* USER CODE END SPI3_MspDeInit 1 */
 205:Core/Src/stm32f4xx_hal_msp.c ****   }
 206:Core/Src/stm32f4xx_hal_msp.c **** 
 207:Core/Src/stm32f4xx_hal_msp.c **** }
 433              		.loc 1 207 1 is_stmt 0 view .LVU134
 434 0038 10BD     		pop	{r4, pc}
 435              	.LVL18:
 436              	.L23:
 437              		.loc 1 207 1 view .LVU135
 438 003a 00BF     		.align	2
 439              	.L22:
 440 003c 003C0040 		.word	1073757184
 441 0040 00380240 		.word	1073887232
 442 0044 00000240 		.word	1073872896
ARM GAS  C:\Users\jonas\AppData\Local\Temp\cc7akkZT.s 			page 14


 443 0048 00080240 		.word	1073874944
 444 004c 00040240 		.word	1073873920
 445              		.cfi_endproc
 446              	.LFE136:
 448              		.section	.text.HAL_SD_MspInit,"ax",%progbits
 449              		.align	1
 450              		.global	HAL_SD_MspInit
 451              		.syntax unified
 452              		.thumb
 453              		.thumb_func
 455              	HAL_SD_MspInit:
 456              	.LVL19:
 457              	.LFB137:
 208:Core/Src/stm32f4xx_hal_msp.c **** 
 209:Core/Src/stm32f4xx_hal_msp.c **** /**
 210:Core/Src/stm32f4xx_hal_msp.c **** * @brief SD MSP Initialization
 211:Core/Src/stm32f4xx_hal_msp.c **** * This function configures the hardware resources used in this example
 212:Core/Src/stm32f4xx_hal_msp.c **** * @param hsd: SD handle pointer
 213:Core/Src/stm32f4xx_hal_msp.c **** * @retval None
 214:Core/Src/stm32f4xx_hal_msp.c **** */
 215:Core/Src/stm32f4xx_hal_msp.c **** void HAL_SD_MspInit(SD_HandleTypeDef* hsd)
 216:Core/Src/stm32f4xx_hal_msp.c **** {
 458              		.loc 1 216 1 is_stmt 1 view -0
 459              		.cfi_startproc
 460              		@ args = 0, pretend = 0, frame = 32
 461              		@ frame_needed = 0, uses_anonymous_args = 0
 462              		.loc 1 216 1 is_stmt 0 view .LVU137
 463 0000 2DE9F04F 		push	{r4, r5, r6, r7, r8, r9, r10, fp, lr}
 464              		.cfi_def_cfa_offset 36
 465              		.cfi_offset 4, -36
 466              		.cfi_offset 5, -32
 467              		.cfi_offset 6, -28
 468              		.cfi_offset 7, -24
 469              		.cfi_offset 8, -20
 470              		.cfi_offset 9, -16
 471              		.cfi_offset 10, -12
 472              		.cfi_offset 11, -8
 473              		.cfi_offset 14, -4
 474 0004 89B0     		sub	sp, sp, #36
 475              		.cfi_def_cfa_offset 72
 217:Core/Src/stm32f4xx_hal_msp.c ****   GPIO_InitTypeDef GPIO_InitStruct = {0};
 476              		.loc 1 217 3 is_stmt 1 view .LVU138
 477              		.loc 1 217 20 is_stmt 0 view .LVU139
 478 0006 0023     		movs	r3, #0
 479 0008 0393     		str	r3, [sp, #12]
 480 000a 0493     		str	r3, [sp, #16]
 481 000c 0593     		str	r3, [sp, #20]
 482 000e 0693     		str	r3, [sp, #24]
 483 0010 0793     		str	r3, [sp, #28]
 218:Core/Src/stm32f4xx_hal_msp.c ****   if(hsd->Instance==SDIO)
 484              		.loc 1 218 3 is_stmt 1 view .LVU140
 485              		.loc 1 218 9 is_stmt 0 view .LVU141
 486 0012 0268     		ldr	r2, [r0]
 487              		.loc 1 218 5 view .LVU142
 488 0014 594B     		ldr	r3, .L32
 489 0016 9A42     		cmp	r2, r3
 490 0018 02D0     		beq	.L29
ARM GAS  C:\Users\jonas\AppData\Local\Temp\cc7akkZT.s 			page 15


 491              	.LVL20:
 492              	.L24:
 219:Core/Src/stm32f4xx_hal_msp.c ****   {
 220:Core/Src/stm32f4xx_hal_msp.c ****   /* USER CODE BEGIN SDIO_MspInit 0 */
 221:Core/Src/stm32f4xx_hal_msp.c **** 
 222:Core/Src/stm32f4xx_hal_msp.c ****   /* USER CODE END SDIO_MspInit 0 */
 223:Core/Src/stm32f4xx_hal_msp.c ****     /* Peripheral clock enable */
 224:Core/Src/stm32f4xx_hal_msp.c ****     __HAL_RCC_SDIO_CLK_ENABLE();
 225:Core/Src/stm32f4xx_hal_msp.c **** 
 226:Core/Src/stm32f4xx_hal_msp.c ****     __HAL_RCC_GPIOC_CLK_ENABLE();
 227:Core/Src/stm32f4xx_hal_msp.c ****     __HAL_RCC_GPIOD_CLK_ENABLE();
 228:Core/Src/stm32f4xx_hal_msp.c ****     /**SDIO GPIO Configuration
 229:Core/Src/stm32f4xx_hal_msp.c ****     PC8     ------> SDIO_D0
 230:Core/Src/stm32f4xx_hal_msp.c ****     PC12     ------> SDIO_CK
 231:Core/Src/stm32f4xx_hal_msp.c ****     PD2     ------> SDIO_CMD
 232:Core/Src/stm32f4xx_hal_msp.c ****     */
 233:Core/Src/stm32f4xx_hal_msp.c ****     GPIO_InitStruct.Pin = GPIO_PIN_8;
 234:Core/Src/stm32f4xx_hal_msp.c ****     GPIO_InitStruct.Mode = GPIO_MODE_AF_PP;
 235:Core/Src/stm32f4xx_hal_msp.c ****     GPIO_InitStruct.Pull = GPIO_PULLUP;
 236:Core/Src/stm32f4xx_hal_msp.c ****     GPIO_InitStruct.Speed = GPIO_SPEED_FREQ_VERY_HIGH;
 237:Core/Src/stm32f4xx_hal_msp.c ****     GPIO_InitStruct.Alternate = GPIO_AF12_SDIO;
 238:Core/Src/stm32f4xx_hal_msp.c ****     HAL_GPIO_Init(GPIOC, &GPIO_InitStruct);
 239:Core/Src/stm32f4xx_hal_msp.c **** 
 240:Core/Src/stm32f4xx_hal_msp.c ****     GPIO_InitStruct.Pin = GPIO_PIN_12;
 241:Core/Src/stm32f4xx_hal_msp.c ****     GPIO_InitStruct.Mode = GPIO_MODE_AF_PP;
 242:Core/Src/stm32f4xx_hal_msp.c ****     GPIO_InitStruct.Pull = GPIO_NOPULL;
 243:Core/Src/stm32f4xx_hal_msp.c ****     GPIO_InitStruct.Speed = GPIO_SPEED_FREQ_VERY_HIGH;
 244:Core/Src/stm32f4xx_hal_msp.c ****     GPIO_InitStruct.Alternate = GPIO_AF12_SDIO;
 245:Core/Src/stm32f4xx_hal_msp.c ****     HAL_GPIO_Init(GPIOC, &GPIO_InitStruct);
 246:Core/Src/stm32f4xx_hal_msp.c **** 
 247:Core/Src/stm32f4xx_hal_msp.c ****     GPIO_InitStruct.Pin = GPIO_PIN_2;
 248:Core/Src/stm32f4xx_hal_msp.c ****     GPIO_InitStruct.Mode = GPIO_MODE_AF_PP;
 249:Core/Src/stm32f4xx_hal_msp.c ****     GPIO_InitStruct.Pull = GPIO_PULLUP;
 250:Core/Src/stm32f4xx_hal_msp.c ****     GPIO_InitStruct.Speed = GPIO_SPEED_FREQ_VERY_HIGH;
 251:Core/Src/stm32f4xx_hal_msp.c ****     GPIO_InitStruct.Alternate = GPIO_AF12_SDIO;
 252:Core/Src/stm32f4xx_hal_msp.c ****     HAL_GPIO_Init(GPIOD, &GPIO_InitStruct);
 253:Core/Src/stm32f4xx_hal_msp.c **** 
 254:Core/Src/stm32f4xx_hal_msp.c ****     /* SDIO DMA Init */
 255:Core/Src/stm32f4xx_hal_msp.c ****     /* SDIO_RX Init */
 256:Core/Src/stm32f4xx_hal_msp.c ****     hdma_sdio_rx.Instance = DMA2_Stream3;
 257:Core/Src/stm32f4xx_hal_msp.c ****     hdma_sdio_rx.Init.Channel = DMA_CHANNEL_4;
 258:Core/Src/stm32f4xx_hal_msp.c ****     hdma_sdio_rx.Init.Direction = DMA_PERIPH_TO_MEMORY;
 259:Core/Src/stm32f4xx_hal_msp.c ****     hdma_sdio_rx.Init.PeriphInc = DMA_PINC_DISABLE;
 260:Core/Src/stm32f4xx_hal_msp.c ****     hdma_sdio_rx.Init.MemInc = DMA_MINC_ENABLE;
 261:Core/Src/stm32f4xx_hal_msp.c ****     hdma_sdio_rx.Init.PeriphDataAlignment = DMA_PDATAALIGN_WORD;
 262:Core/Src/stm32f4xx_hal_msp.c ****     hdma_sdio_rx.Init.MemDataAlignment = DMA_MDATAALIGN_WORD;
 263:Core/Src/stm32f4xx_hal_msp.c ****     hdma_sdio_rx.Init.Mode = DMA_PFCTRL;
 264:Core/Src/stm32f4xx_hal_msp.c ****     hdma_sdio_rx.Init.Priority = DMA_PRIORITY_LOW;
 265:Core/Src/stm32f4xx_hal_msp.c ****     hdma_sdio_rx.Init.FIFOMode = DMA_FIFOMODE_ENABLE;
 266:Core/Src/stm32f4xx_hal_msp.c ****     hdma_sdio_rx.Init.FIFOThreshold = DMA_FIFO_THRESHOLD_FULL;
 267:Core/Src/stm32f4xx_hal_msp.c ****     hdma_sdio_rx.Init.MemBurst = DMA_MBURST_INC4;
 268:Core/Src/stm32f4xx_hal_msp.c ****     hdma_sdio_rx.Init.PeriphBurst = DMA_PBURST_INC4;
 269:Core/Src/stm32f4xx_hal_msp.c ****     if (HAL_DMA_Init(&hdma_sdio_rx) != HAL_OK)
 270:Core/Src/stm32f4xx_hal_msp.c ****     {
 271:Core/Src/stm32f4xx_hal_msp.c ****       Error_Handler();
 272:Core/Src/stm32f4xx_hal_msp.c ****     }
 273:Core/Src/stm32f4xx_hal_msp.c **** 
ARM GAS  C:\Users\jonas\AppData\Local\Temp\cc7akkZT.s 			page 16


 274:Core/Src/stm32f4xx_hal_msp.c ****     __HAL_LINKDMA(hsd,hdmarx,hdma_sdio_rx);
 275:Core/Src/stm32f4xx_hal_msp.c **** 
 276:Core/Src/stm32f4xx_hal_msp.c ****     /* SDIO_TX Init */
 277:Core/Src/stm32f4xx_hal_msp.c ****     hdma_sdio_tx.Instance = DMA2_Stream6;
 278:Core/Src/stm32f4xx_hal_msp.c ****     hdma_sdio_tx.Init.Channel = DMA_CHANNEL_4;
 279:Core/Src/stm32f4xx_hal_msp.c ****     hdma_sdio_tx.Init.Direction = DMA_MEMORY_TO_PERIPH;
 280:Core/Src/stm32f4xx_hal_msp.c ****     hdma_sdio_tx.Init.PeriphInc = DMA_PINC_DISABLE;
 281:Core/Src/stm32f4xx_hal_msp.c ****     hdma_sdio_tx.Init.MemInc = DMA_MINC_ENABLE;
 282:Core/Src/stm32f4xx_hal_msp.c ****     hdma_sdio_tx.Init.PeriphDataAlignment = DMA_PDATAALIGN_WORD;
 283:Core/Src/stm32f4xx_hal_msp.c ****     hdma_sdio_tx.Init.MemDataAlignment = DMA_MDATAALIGN_WORD;
 284:Core/Src/stm32f4xx_hal_msp.c ****     hdma_sdio_tx.Init.Mode = DMA_PFCTRL;
 285:Core/Src/stm32f4xx_hal_msp.c ****     hdma_sdio_tx.Init.Priority = DMA_PRIORITY_LOW;
 286:Core/Src/stm32f4xx_hal_msp.c ****     hdma_sdio_tx.Init.FIFOMode = DMA_FIFOMODE_ENABLE;
 287:Core/Src/stm32f4xx_hal_msp.c ****     hdma_sdio_tx.Init.FIFOThreshold = DMA_FIFO_THRESHOLD_FULL;
 288:Core/Src/stm32f4xx_hal_msp.c ****     hdma_sdio_tx.Init.MemBurst = DMA_MBURST_INC4;
 289:Core/Src/stm32f4xx_hal_msp.c ****     hdma_sdio_tx.Init.PeriphBurst = DMA_PBURST_INC4;
 290:Core/Src/stm32f4xx_hal_msp.c ****     if (HAL_DMA_Init(&hdma_sdio_tx) != HAL_OK)
 291:Core/Src/stm32f4xx_hal_msp.c ****     {
 292:Core/Src/stm32f4xx_hal_msp.c ****       Error_Handler();
 293:Core/Src/stm32f4xx_hal_msp.c ****     }
 294:Core/Src/stm32f4xx_hal_msp.c **** 
 295:Core/Src/stm32f4xx_hal_msp.c ****     __HAL_LINKDMA(hsd,hdmatx,hdma_sdio_tx);
 296:Core/Src/stm32f4xx_hal_msp.c **** 
 297:Core/Src/stm32f4xx_hal_msp.c ****     /* SDIO interrupt Init */
 298:Core/Src/stm32f4xx_hal_msp.c ****     HAL_NVIC_SetPriority(SDIO_IRQn, 0, 0);
 299:Core/Src/stm32f4xx_hal_msp.c ****     HAL_NVIC_EnableIRQ(SDIO_IRQn);
 300:Core/Src/stm32f4xx_hal_msp.c ****   /* USER CODE BEGIN SDIO_MspInit 1 */
 301:Core/Src/stm32f4xx_hal_msp.c **** 
 302:Core/Src/stm32f4xx_hal_msp.c ****   /* USER CODE END SDIO_MspInit 1 */
 303:Core/Src/stm32f4xx_hal_msp.c ****   }
 304:Core/Src/stm32f4xx_hal_msp.c **** 
 305:Core/Src/stm32f4xx_hal_msp.c **** }
 493              		.loc 1 305 1 view .LVU143
 494 001a 09B0     		add	sp, sp, #36
 495              		.cfi_remember_state
 496              		.cfi_def_cfa_offset 36
 497              		@ sp needed
 498 001c BDE8F08F 		pop	{r4, r5, r6, r7, r8, r9, r10, fp, pc}
 499              	.LVL21:
 500              	.L29:
 501              		.cfi_restore_state
 502              		.loc 1 305 1 view .LVU144
 503 0020 0446     		mov	r4, r0
 224:Core/Src/stm32f4xx_hal_msp.c **** 
 504              		.loc 1 224 5 is_stmt 1 view .LVU145
 505              	.LBB8:
 224:Core/Src/stm32f4xx_hal_msp.c **** 
 506              		.loc 1 224 5 view .LVU146
 507 0022 0025     		movs	r5, #0
 508 0024 0095     		str	r5, [sp]
 224:Core/Src/stm32f4xx_hal_msp.c **** 
 509              		.loc 1 224 5 view .LVU147
 510 0026 03F58633 		add	r3, r3, #68608
 511 002a 5A6C     		ldr	r2, [r3, #68]
 512 002c 42F40062 		orr	r2, r2, #2048
 513 0030 5A64     		str	r2, [r3, #68]
 224:Core/Src/stm32f4xx_hal_msp.c **** 
ARM GAS  C:\Users\jonas\AppData\Local\Temp\cc7akkZT.s 			page 17


 514              		.loc 1 224 5 view .LVU148
 515 0032 5A6C     		ldr	r2, [r3, #68]
 516 0034 02F40062 		and	r2, r2, #2048
 517 0038 0092     		str	r2, [sp]
 224:Core/Src/stm32f4xx_hal_msp.c **** 
 518              		.loc 1 224 5 view .LVU149
 519 003a 009A     		ldr	r2, [sp]
 520              	.LBE8:
 224:Core/Src/stm32f4xx_hal_msp.c **** 
 521              		.loc 1 224 5 view .LVU150
 226:Core/Src/stm32f4xx_hal_msp.c ****     __HAL_RCC_GPIOD_CLK_ENABLE();
 522              		.loc 1 226 5 view .LVU151
 523              	.LBB9:
 226:Core/Src/stm32f4xx_hal_msp.c ****     __HAL_RCC_GPIOD_CLK_ENABLE();
 524              		.loc 1 226 5 view .LVU152
 525 003c 0195     		str	r5, [sp, #4]
 226:Core/Src/stm32f4xx_hal_msp.c ****     __HAL_RCC_GPIOD_CLK_ENABLE();
 526              		.loc 1 226 5 view .LVU153
 527 003e 1A6B     		ldr	r2, [r3, #48]
 528 0040 42F00402 		orr	r2, r2, #4
 529 0044 1A63     		str	r2, [r3, #48]
 226:Core/Src/stm32f4xx_hal_msp.c ****     __HAL_RCC_GPIOD_CLK_ENABLE();
 530              		.loc 1 226 5 view .LVU154
 531 0046 1A6B     		ldr	r2, [r3, #48]
 532 0048 02F00402 		and	r2, r2, #4
 533 004c 0192     		str	r2, [sp, #4]
 226:Core/Src/stm32f4xx_hal_msp.c ****     __HAL_RCC_GPIOD_CLK_ENABLE();
 534              		.loc 1 226 5 view .LVU155
 535 004e 019A     		ldr	r2, [sp, #4]
 536              	.LBE9:
 226:Core/Src/stm32f4xx_hal_msp.c ****     __HAL_RCC_GPIOD_CLK_ENABLE();
 537              		.loc 1 226 5 view .LVU156
 227:Core/Src/stm32f4xx_hal_msp.c ****     /**SDIO GPIO Configuration
 538              		.loc 1 227 5 view .LVU157
 539              	.LBB10:
 227:Core/Src/stm32f4xx_hal_msp.c ****     /**SDIO GPIO Configuration
 540              		.loc 1 227 5 view .LVU158
 541 0050 0295     		str	r5, [sp, #8]
 227:Core/Src/stm32f4xx_hal_msp.c ****     /**SDIO GPIO Configuration
 542              		.loc 1 227 5 view .LVU159
 543 0052 1A6B     		ldr	r2, [r3, #48]
 544 0054 42F00802 		orr	r2, r2, #8
 545 0058 1A63     		str	r2, [r3, #48]
 227:Core/Src/stm32f4xx_hal_msp.c ****     /**SDIO GPIO Configuration
 546              		.loc 1 227 5 view .LVU160
 547 005a 1B6B     		ldr	r3, [r3, #48]
 548 005c 03F00803 		and	r3, r3, #8
 549 0060 0293     		str	r3, [sp, #8]
 227:Core/Src/stm32f4xx_hal_msp.c ****     /**SDIO GPIO Configuration
 550              		.loc 1 227 5 view .LVU161
 551 0062 029B     		ldr	r3, [sp, #8]
 552              	.LBE10:
 227:Core/Src/stm32f4xx_hal_msp.c ****     /**SDIO GPIO Configuration
 553              		.loc 1 227 5 view .LVU162
 233:Core/Src/stm32f4xx_hal_msp.c ****     GPIO_InitStruct.Mode = GPIO_MODE_AF_PP;
 554              		.loc 1 233 5 view .LVU163
 233:Core/Src/stm32f4xx_hal_msp.c ****     GPIO_InitStruct.Mode = GPIO_MODE_AF_PP;
ARM GAS  C:\Users\jonas\AppData\Local\Temp\cc7akkZT.s 			page 18


 555              		.loc 1 233 25 is_stmt 0 view .LVU164
 556 0064 4FF48073 		mov	r3, #256
 557 0068 0393     		str	r3, [sp, #12]
 234:Core/Src/stm32f4xx_hal_msp.c ****     GPIO_InitStruct.Pull = GPIO_PULLUP;
 558              		.loc 1 234 5 is_stmt 1 view .LVU165
 234:Core/Src/stm32f4xx_hal_msp.c ****     GPIO_InitStruct.Pull = GPIO_PULLUP;
 559              		.loc 1 234 26 is_stmt 0 view .LVU166
 560 006a 4FF00208 		mov	r8, #2
 561 006e CDF81080 		str	r8, [sp, #16]
 235:Core/Src/stm32f4xx_hal_msp.c ****     GPIO_InitStruct.Speed = GPIO_SPEED_FREQ_VERY_HIGH;
 562              		.loc 1 235 5 is_stmt 1 view .LVU167
 235:Core/Src/stm32f4xx_hal_msp.c ****     GPIO_InitStruct.Speed = GPIO_SPEED_FREQ_VERY_HIGH;
 563              		.loc 1 235 26 is_stmt 0 view .LVU168
 564 0072 4FF0010B 		mov	fp, #1
 565 0076 CDF814B0 		str	fp, [sp, #20]
 236:Core/Src/stm32f4xx_hal_msp.c ****     GPIO_InitStruct.Alternate = GPIO_AF12_SDIO;
 566              		.loc 1 236 5 is_stmt 1 view .LVU169
 236:Core/Src/stm32f4xx_hal_msp.c ****     GPIO_InitStruct.Alternate = GPIO_AF12_SDIO;
 567              		.loc 1 236 27 is_stmt 0 view .LVU170
 568 007a 0326     		movs	r6, #3
 569 007c 0696     		str	r6, [sp, #24]
 237:Core/Src/stm32f4xx_hal_msp.c ****     HAL_GPIO_Init(GPIOC, &GPIO_InitStruct);
 570              		.loc 1 237 5 is_stmt 1 view .LVU171
 237:Core/Src/stm32f4xx_hal_msp.c ****     HAL_GPIO_Init(GPIOC, &GPIO_InitStruct);
 571              		.loc 1 237 31 is_stmt 0 view .LVU172
 572 007e 0C27     		movs	r7, #12
 573 0080 0797     		str	r7, [sp, #28]
 238:Core/Src/stm32f4xx_hal_msp.c **** 
 574              		.loc 1 238 5 is_stmt 1 view .LVU173
 575 0082 DFF81091 		ldr	r9, .L32+24
 576 0086 0DEB0701 		add	r1, sp, r7
 577 008a 4846     		mov	r0, r9
 578              	.LVL22:
 238:Core/Src/stm32f4xx_hal_msp.c **** 
 579              		.loc 1 238 5 is_stmt 0 view .LVU174
 580 008c FFF7FEFF 		bl	HAL_GPIO_Init
 581              	.LVL23:
 240:Core/Src/stm32f4xx_hal_msp.c ****     GPIO_InitStruct.Mode = GPIO_MODE_AF_PP;
 582              		.loc 1 240 5 is_stmt 1 view .LVU175
 240:Core/Src/stm32f4xx_hal_msp.c ****     GPIO_InitStruct.Mode = GPIO_MODE_AF_PP;
 583              		.loc 1 240 25 is_stmt 0 view .LVU176
 584 0090 4FF4805A 		mov	r10, #4096
 585 0094 CDF80CA0 		str	r10, [sp, #12]
 241:Core/Src/stm32f4xx_hal_msp.c ****     GPIO_InitStruct.Pull = GPIO_NOPULL;
 586              		.loc 1 241 5 is_stmt 1 view .LVU177
 241:Core/Src/stm32f4xx_hal_msp.c ****     GPIO_InitStruct.Pull = GPIO_NOPULL;
 587              		.loc 1 241 26 is_stmt 0 view .LVU178
 588 0098 CDF81080 		str	r8, [sp, #16]
 242:Core/Src/stm32f4xx_hal_msp.c ****     GPIO_InitStruct.Speed = GPIO_SPEED_FREQ_VERY_HIGH;
 589              		.loc 1 242 5 is_stmt 1 view .LVU179
 242:Core/Src/stm32f4xx_hal_msp.c ****     GPIO_InitStruct.Speed = GPIO_SPEED_FREQ_VERY_HIGH;
 590              		.loc 1 242 26 is_stmt 0 view .LVU180
 591 009c 0595     		str	r5, [sp, #20]
 243:Core/Src/stm32f4xx_hal_msp.c ****     GPIO_InitStruct.Alternate = GPIO_AF12_SDIO;
 592              		.loc 1 243 5 is_stmt 1 view .LVU181
 243:Core/Src/stm32f4xx_hal_msp.c ****     GPIO_InitStruct.Alternate = GPIO_AF12_SDIO;
 593              		.loc 1 243 27 is_stmt 0 view .LVU182
ARM GAS  C:\Users\jonas\AppData\Local\Temp\cc7akkZT.s 			page 19


 594 009e 0696     		str	r6, [sp, #24]
 244:Core/Src/stm32f4xx_hal_msp.c ****     HAL_GPIO_Init(GPIOC, &GPIO_InitStruct);
 595              		.loc 1 244 5 is_stmt 1 view .LVU183
 244:Core/Src/stm32f4xx_hal_msp.c ****     HAL_GPIO_Init(GPIOC, &GPIO_InitStruct);
 596              		.loc 1 244 31 is_stmt 0 view .LVU184
 597 00a0 0797     		str	r7, [sp, #28]
 245:Core/Src/stm32f4xx_hal_msp.c **** 
 598              		.loc 1 245 5 is_stmt 1 view .LVU185
 599 00a2 0DEB0701 		add	r1, sp, r7
 600 00a6 4846     		mov	r0, r9
 601 00a8 FFF7FEFF 		bl	HAL_GPIO_Init
 602              	.LVL24:
 247:Core/Src/stm32f4xx_hal_msp.c ****     GPIO_InitStruct.Mode = GPIO_MODE_AF_PP;
 603              		.loc 1 247 5 view .LVU186
 247:Core/Src/stm32f4xx_hal_msp.c ****     GPIO_InitStruct.Mode = GPIO_MODE_AF_PP;
 604              		.loc 1 247 25 is_stmt 0 view .LVU187
 605 00ac 4FF00409 		mov	r9, #4
 606 00b0 CDF80C90 		str	r9, [sp, #12]
 248:Core/Src/stm32f4xx_hal_msp.c ****     GPIO_InitStruct.Pull = GPIO_PULLUP;
 607              		.loc 1 248 5 is_stmt 1 view .LVU188
 248:Core/Src/stm32f4xx_hal_msp.c ****     GPIO_InitStruct.Pull = GPIO_PULLUP;
 608              		.loc 1 248 26 is_stmt 0 view .LVU189
 609 00b4 CDF81080 		str	r8, [sp, #16]
 249:Core/Src/stm32f4xx_hal_msp.c ****     GPIO_InitStruct.Speed = GPIO_SPEED_FREQ_VERY_HIGH;
 610              		.loc 1 249 5 is_stmt 1 view .LVU190
 249:Core/Src/stm32f4xx_hal_msp.c ****     GPIO_InitStruct.Speed = GPIO_SPEED_FREQ_VERY_HIGH;
 611              		.loc 1 249 26 is_stmt 0 view .LVU191
 612 00b8 CDF814B0 		str	fp, [sp, #20]
 250:Core/Src/stm32f4xx_hal_msp.c ****     GPIO_InitStruct.Alternate = GPIO_AF12_SDIO;
 613              		.loc 1 250 5 is_stmt 1 view .LVU192
 250:Core/Src/stm32f4xx_hal_msp.c ****     GPIO_InitStruct.Alternate = GPIO_AF12_SDIO;
 614              		.loc 1 250 27 is_stmt 0 view .LVU193
 615 00bc 0696     		str	r6, [sp, #24]
 251:Core/Src/stm32f4xx_hal_msp.c ****     HAL_GPIO_Init(GPIOD, &GPIO_InitStruct);
 616              		.loc 1 251 5 is_stmt 1 view .LVU194
 251:Core/Src/stm32f4xx_hal_msp.c ****     HAL_GPIO_Init(GPIOD, &GPIO_InitStruct);
 617              		.loc 1 251 31 is_stmt 0 view .LVU195
 618 00be 0797     		str	r7, [sp, #28]
 252:Core/Src/stm32f4xx_hal_msp.c **** 
 619              		.loc 1 252 5 is_stmt 1 view .LVU196
 620 00c0 0DEB0701 		add	r1, sp, r7
 621 00c4 2E48     		ldr	r0, .L32+4
 622 00c6 FFF7FEFF 		bl	HAL_GPIO_Init
 623              	.LVL25:
 256:Core/Src/stm32f4xx_hal_msp.c ****     hdma_sdio_rx.Init.Channel = DMA_CHANNEL_4;
 624              		.loc 1 256 5 view .LVU197
 256:Core/Src/stm32f4xx_hal_msp.c ****     hdma_sdio_rx.Init.Channel = DMA_CHANNEL_4;
 625              		.loc 1 256 27 is_stmt 0 view .LVU198
 626 00ca 2E48     		ldr	r0, .L32+8
 627 00cc 2E4B     		ldr	r3, .L32+12
 628 00ce 0360     		str	r3, [r0]
 257:Core/Src/stm32f4xx_hal_msp.c ****     hdma_sdio_rx.Init.Direction = DMA_PERIPH_TO_MEMORY;
 629              		.loc 1 257 5 is_stmt 1 view .LVU199
 257:Core/Src/stm32f4xx_hal_msp.c ****     hdma_sdio_rx.Init.Direction = DMA_PERIPH_TO_MEMORY;
 630              		.loc 1 257 31 is_stmt 0 view .LVU200
 631 00d0 4FF00063 		mov	r3, #134217728
 632 00d4 4360     		str	r3, [r0, #4]
ARM GAS  C:\Users\jonas\AppData\Local\Temp\cc7akkZT.s 			page 20


 258:Core/Src/stm32f4xx_hal_msp.c ****     hdma_sdio_rx.Init.PeriphInc = DMA_PINC_DISABLE;
 633              		.loc 1 258 5 is_stmt 1 view .LVU201
 258:Core/Src/stm32f4xx_hal_msp.c ****     hdma_sdio_rx.Init.PeriphInc = DMA_PINC_DISABLE;
 634              		.loc 1 258 33 is_stmt 0 view .LVU202
 635 00d6 8560     		str	r5, [r0, #8]
 259:Core/Src/stm32f4xx_hal_msp.c ****     hdma_sdio_rx.Init.MemInc = DMA_MINC_ENABLE;
 636              		.loc 1 259 5 is_stmt 1 view .LVU203
 259:Core/Src/stm32f4xx_hal_msp.c ****     hdma_sdio_rx.Init.MemInc = DMA_MINC_ENABLE;
 637              		.loc 1 259 33 is_stmt 0 view .LVU204
 638 00d8 C560     		str	r5, [r0, #12]
 260:Core/Src/stm32f4xx_hal_msp.c ****     hdma_sdio_rx.Init.PeriphDataAlignment = DMA_PDATAALIGN_WORD;
 639              		.loc 1 260 5 is_stmt 1 view .LVU205
 260:Core/Src/stm32f4xx_hal_msp.c ****     hdma_sdio_rx.Init.PeriphDataAlignment = DMA_PDATAALIGN_WORD;
 640              		.loc 1 260 30 is_stmt 0 view .LVU206
 641 00da 4FF48063 		mov	r3, #1024
 642 00de 0361     		str	r3, [r0, #16]
 261:Core/Src/stm32f4xx_hal_msp.c ****     hdma_sdio_rx.Init.MemDataAlignment = DMA_MDATAALIGN_WORD;
 643              		.loc 1 261 5 is_stmt 1 view .LVU207
 261:Core/Src/stm32f4xx_hal_msp.c ****     hdma_sdio_rx.Init.MemDataAlignment = DMA_MDATAALIGN_WORD;
 644              		.loc 1 261 43 is_stmt 0 view .LVU208
 645 00e0 C0F814A0 		str	r10, [r0, #20]
 262:Core/Src/stm32f4xx_hal_msp.c ****     hdma_sdio_rx.Init.Mode = DMA_PFCTRL;
 646              		.loc 1 262 5 is_stmt 1 view .LVU209
 262:Core/Src/stm32f4xx_hal_msp.c ****     hdma_sdio_rx.Init.Mode = DMA_PFCTRL;
 647              		.loc 1 262 40 is_stmt 0 view .LVU210
 648 00e4 4FF48043 		mov	r3, #16384
 649 00e8 8361     		str	r3, [r0, #24]
 263:Core/Src/stm32f4xx_hal_msp.c ****     hdma_sdio_rx.Init.Priority = DMA_PRIORITY_LOW;
 650              		.loc 1 263 5 is_stmt 1 view .LVU211
 263:Core/Src/stm32f4xx_hal_msp.c ****     hdma_sdio_rx.Init.Priority = DMA_PRIORITY_LOW;
 651              		.loc 1 263 28 is_stmt 0 view .LVU212
 652 00ea 2023     		movs	r3, #32
 653 00ec C361     		str	r3, [r0, #28]
 264:Core/Src/stm32f4xx_hal_msp.c ****     hdma_sdio_rx.Init.FIFOMode = DMA_FIFOMODE_ENABLE;
 654              		.loc 1 264 5 is_stmt 1 view .LVU213
 264:Core/Src/stm32f4xx_hal_msp.c ****     hdma_sdio_rx.Init.FIFOMode = DMA_FIFOMODE_ENABLE;
 655              		.loc 1 264 32 is_stmt 0 view .LVU214
 656 00ee 0562     		str	r5, [r0, #32]
 265:Core/Src/stm32f4xx_hal_msp.c ****     hdma_sdio_rx.Init.FIFOThreshold = DMA_FIFO_THRESHOLD_FULL;
 657              		.loc 1 265 5 is_stmt 1 view .LVU215
 265:Core/Src/stm32f4xx_hal_msp.c ****     hdma_sdio_rx.Init.FIFOThreshold = DMA_FIFO_THRESHOLD_FULL;
 658              		.loc 1 265 32 is_stmt 0 view .LVU216
 659 00f0 C0F82490 		str	r9, [r0, #36]
 266:Core/Src/stm32f4xx_hal_msp.c ****     hdma_sdio_rx.Init.MemBurst = DMA_MBURST_INC4;
 660              		.loc 1 266 5 is_stmt 1 view .LVU217
 266:Core/Src/stm32f4xx_hal_msp.c ****     hdma_sdio_rx.Init.MemBurst = DMA_MBURST_INC4;
 661              		.loc 1 266 37 is_stmt 0 view .LVU218
 662 00f4 8662     		str	r6, [r0, #40]
 267:Core/Src/stm32f4xx_hal_msp.c ****     hdma_sdio_rx.Init.PeriphBurst = DMA_PBURST_INC4;
 663              		.loc 1 267 5 is_stmt 1 view .LVU219
 267:Core/Src/stm32f4xx_hal_msp.c ****     hdma_sdio_rx.Init.PeriphBurst = DMA_PBURST_INC4;
 664              		.loc 1 267 32 is_stmt 0 view .LVU220
 665 00f6 4FF40003 		mov	r3, #8388608
 666 00fa C362     		str	r3, [r0, #44]
 268:Core/Src/stm32f4xx_hal_msp.c ****     if (HAL_DMA_Init(&hdma_sdio_rx) != HAL_OK)
 667              		.loc 1 268 5 is_stmt 1 view .LVU221
 268:Core/Src/stm32f4xx_hal_msp.c ****     if (HAL_DMA_Init(&hdma_sdio_rx) != HAL_OK)
ARM GAS  C:\Users\jonas\AppData\Local\Temp\cc7akkZT.s 			page 21


 668              		.loc 1 268 35 is_stmt 0 view .LVU222
 669 00fc 4FF40013 		mov	r3, #2097152
 670 0100 0363     		str	r3, [r0, #48]
 269:Core/Src/stm32f4xx_hal_msp.c ****     {
 671              		.loc 1 269 5 is_stmt 1 view .LVU223
 269:Core/Src/stm32f4xx_hal_msp.c ****     {
 672              		.loc 1 269 9 is_stmt 0 view .LVU224
 673 0102 FFF7FEFF 		bl	HAL_DMA_Init
 674              	.LVL26:
 269:Core/Src/stm32f4xx_hal_msp.c ****     {
 675              		.loc 1 269 8 discriminator 1 view .LVU225
 676 0106 0028     		cmp	r0, #0
 677 0108 31D1     		bne	.L30
 678              	.L26:
 274:Core/Src/stm32f4xx_hal_msp.c **** 
 679              		.loc 1 274 5 is_stmt 1 view .LVU226
 274:Core/Src/stm32f4xx_hal_msp.c **** 
 680              		.loc 1 274 5 view .LVU227
 681 010a 1E4B     		ldr	r3, .L32+8
 682 010c 2364     		str	r3, [r4, #64]
 274:Core/Src/stm32f4xx_hal_msp.c **** 
 683              		.loc 1 274 5 view .LVU228
 684 010e 9C63     		str	r4, [r3, #56]
 274:Core/Src/stm32f4xx_hal_msp.c **** 
 685              		.loc 1 274 5 view .LVU229
 277:Core/Src/stm32f4xx_hal_msp.c ****     hdma_sdio_tx.Init.Channel = DMA_CHANNEL_4;
 686              		.loc 1 277 5 view .LVU230
 277:Core/Src/stm32f4xx_hal_msp.c ****     hdma_sdio_tx.Init.Channel = DMA_CHANNEL_4;
 687              		.loc 1 277 27 is_stmt 0 view .LVU231
 688 0110 1E48     		ldr	r0, .L32+16
 689 0112 1F4B     		ldr	r3, .L32+20
 690 0114 0360     		str	r3, [r0]
 278:Core/Src/stm32f4xx_hal_msp.c ****     hdma_sdio_tx.Init.Direction = DMA_MEMORY_TO_PERIPH;
 691              		.loc 1 278 5 is_stmt 1 view .LVU232
 278:Core/Src/stm32f4xx_hal_msp.c ****     hdma_sdio_tx.Init.Direction = DMA_MEMORY_TO_PERIPH;
 692              		.loc 1 278 31 is_stmt 0 view .LVU233
 693 0116 4FF00063 		mov	r3, #134217728
 694 011a 4360     		str	r3, [r0, #4]
 279:Core/Src/stm32f4xx_hal_msp.c ****     hdma_sdio_tx.Init.PeriphInc = DMA_PINC_DISABLE;
 695              		.loc 1 279 5 is_stmt 1 view .LVU234
 279:Core/Src/stm32f4xx_hal_msp.c ****     hdma_sdio_tx.Init.PeriphInc = DMA_PINC_DISABLE;
 696              		.loc 1 279 33 is_stmt 0 view .LVU235
 697 011c 4023     		movs	r3, #64
 698 011e 8360     		str	r3, [r0, #8]
 280:Core/Src/stm32f4xx_hal_msp.c ****     hdma_sdio_tx.Init.MemInc = DMA_MINC_ENABLE;
 699              		.loc 1 280 5 is_stmt 1 view .LVU236
 280:Core/Src/stm32f4xx_hal_msp.c ****     hdma_sdio_tx.Init.MemInc = DMA_MINC_ENABLE;
 700              		.loc 1 280 33 is_stmt 0 view .LVU237
 701 0120 0023     		movs	r3, #0
 702 0122 C360     		str	r3, [r0, #12]
 281:Core/Src/stm32f4xx_hal_msp.c ****     hdma_sdio_tx.Init.PeriphDataAlignment = DMA_PDATAALIGN_WORD;
 703              		.loc 1 281 5 is_stmt 1 view .LVU238
 281:Core/Src/stm32f4xx_hal_msp.c ****     hdma_sdio_tx.Init.PeriphDataAlignment = DMA_PDATAALIGN_WORD;
 704              		.loc 1 281 30 is_stmt 0 view .LVU239
 705 0124 4FF48062 		mov	r2, #1024
 706 0128 0261     		str	r2, [r0, #16]
 282:Core/Src/stm32f4xx_hal_msp.c ****     hdma_sdio_tx.Init.MemDataAlignment = DMA_MDATAALIGN_WORD;
ARM GAS  C:\Users\jonas\AppData\Local\Temp\cc7akkZT.s 			page 22


 707              		.loc 1 282 5 is_stmt 1 view .LVU240
 282:Core/Src/stm32f4xx_hal_msp.c ****     hdma_sdio_tx.Init.MemDataAlignment = DMA_MDATAALIGN_WORD;
 708              		.loc 1 282 43 is_stmt 0 view .LVU241
 709 012a 4FF48052 		mov	r2, #4096
 710 012e 4261     		str	r2, [r0, #20]
 283:Core/Src/stm32f4xx_hal_msp.c ****     hdma_sdio_tx.Init.Mode = DMA_PFCTRL;
 711              		.loc 1 283 5 is_stmt 1 view .LVU242
 283:Core/Src/stm32f4xx_hal_msp.c ****     hdma_sdio_tx.Init.Mode = DMA_PFCTRL;
 712              		.loc 1 283 40 is_stmt 0 view .LVU243
 713 0130 4FF48042 		mov	r2, #16384
 714 0134 8261     		str	r2, [r0, #24]
 284:Core/Src/stm32f4xx_hal_msp.c ****     hdma_sdio_tx.Init.Priority = DMA_PRIORITY_LOW;
 715              		.loc 1 284 5 is_stmt 1 view .LVU244
 284:Core/Src/stm32f4xx_hal_msp.c ****     hdma_sdio_tx.Init.Priority = DMA_PRIORITY_LOW;
 716              		.loc 1 284 28 is_stmt 0 view .LVU245
 717 0136 2022     		movs	r2, #32
 718 0138 C261     		str	r2, [r0, #28]
 285:Core/Src/stm32f4xx_hal_msp.c ****     hdma_sdio_tx.Init.FIFOMode = DMA_FIFOMODE_ENABLE;
 719              		.loc 1 285 5 is_stmt 1 view .LVU246
 285:Core/Src/stm32f4xx_hal_msp.c ****     hdma_sdio_tx.Init.FIFOMode = DMA_FIFOMODE_ENABLE;
 720              		.loc 1 285 32 is_stmt 0 view .LVU247
 721 013a 0362     		str	r3, [r0, #32]
 286:Core/Src/stm32f4xx_hal_msp.c ****     hdma_sdio_tx.Init.FIFOThreshold = DMA_FIFO_THRESHOLD_FULL;
 722              		.loc 1 286 5 is_stmt 1 view .LVU248
 286:Core/Src/stm32f4xx_hal_msp.c ****     hdma_sdio_tx.Init.FIFOThreshold = DMA_FIFO_THRESHOLD_FULL;
 723              		.loc 1 286 32 is_stmt 0 view .LVU249
 724 013c 0423     		movs	r3, #4
 725 013e 4362     		str	r3, [r0, #36]
 287:Core/Src/stm32f4xx_hal_msp.c ****     hdma_sdio_tx.Init.MemBurst = DMA_MBURST_INC4;
 726              		.loc 1 287 5 is_stmt 1 view .LVU250
 287:Core/Src/stm32f4xx_hal_msp.c ****     hdma_sdio_tx.Init.MemBurst = DMA_MBURST_INC4;
 727              		.loc 1 287 37 is_stmt 0 view .LVU251
 728 0140 0323     		movs	r3, #3
 729 0142 8362     		str	r3, [r0, #40]
 288:Core/Src/stm32f4xx_hal_msp.c ****     hdma_sdio_tx.Init.PeriphBurst = DMA_PBURST_INC4;
 730              		.loc 1 288 5 is_stmt 1 view .LVU252
 288:Core/Src/stm32f4xx_hal_msp.c ****     hdma_sdio_tx.Init.PeriphBurst = DMA_PBURST_INC4;
 731              		.loc 1 288 32 is_stmt 0 view .LVU253
 732 0144 4FF40003 		mov	r3, #8388608
 733 0148 C362     		str	r3, [r0, #44]
 289:Core/Src/stm32f4xx_hal_msp.c ****     if (HAL_DMA_Init(&hdma_sdio_tx) != HAL_OK)
 734              		.loc 1 289 5 is_stmt 1 view .LVU254
 289:Core/Src/stm32f4xx_hal_msp.c ****     if (HAL_DMA_Init(&hdma_sdio_tx) != HAL_OK)
 735              		.loc 1 289 35 is_stmt 0 view .LVU255
 736 014a 4FF40013 		mov	r3, #2097152
 737 014e 0363     		str	r3, [r0, #48]
 290:Core/Src/stm32f4xx_hal_msp.c ****     {
 738              		.loc 1 290 5 is_stmt 1 view .LVU256
 290:Core/Src/stm32f4xx_hal_msp.c ****     {
 739              		.loc 1 290 9 is_stmt 0 view .LVU257
 740 0150 FFF7FEFF 		bl	HAL_DMA_Init
 741              	.LVL27:
 290:Core/Src/stm32f4xx_hal_msp.c ****     {
 742              		.loc 1 290 8 discriminator 1 view .LVU258
 743 0154 70B9     		cbnz	r0, .L31
 744              	.L27:
 295:Core/Src/stm32f4xx_hal_msp.c **** 
ARM GAS  C:\Users\jonas\AppData\Local\Temp\cc7akkZT.s 			page 23


 745              		.loc 1 295 5 is_stmt 1 view .LVU259
 295:Core/Src/stm32f4xx_hal_msp.c **** 
 746              		.loc 1 295 5 view .LVU260
 747 0156 0D4B     		ldr	r3, .L32+16
 748 0158 E363     		str	r3, [r4, #60]
 295:Core/Src/stm32f4xx_hal_msp.c **** 
 749              		.loc 1 295 5 view .LVU261
 750 015a 9C63     		str	r4, [r3, #56]
 295:Core/Src/stm32f4xx_hal_msp.c **** 
 751              		.loc 1 295 5 view .LVU262
 298:Core/Src/stm32f4xx_hal_msp.c ****     HAL_NVIC_EnableIRQ(SDIO_IRQn);
 752              		.loc 1 298 5 view .LVU263
 753 015c 0022     		movs	r2, #0
 754 015e 1146     		mov	r1, r2
 755 0160 3120     		movs	r0, #49
 756 0162 FFF7FEFF 		bl	HAL_NVIC_SetPriority
 757              	.LVL28:
 299:Core/Src/stm32f4xx_hal_msp.c ****   /* USER CODE BEGIN SDIO_MspInit 1 */
 758              		.loc 1 299 5 view .LVU264
 759 0166 3120     		movs	r0, #49
 760 0168 FFF7FEFF 		bl	HAL_NVIC_EnableIRQ
 761              	.LVL29:
 762              		.loc 1 305 1 is_stmt 0 view .LVU265
 763 016c 55E7     		b	.L24
 764              	.L30:
 271:Core/Src/stm32f4xx_hal_msp.c ****     }
 765              		.loc 1 271 7 is_stmt 1 view .LVU266
 766 016e FFF7FEFF 		bl	Error_Handler
 767              	.LVL30:
 768 0172 CAE7     		b	.L26
 769              	.L31:
 292:Core/Src/stm32f4xx_hal_msp.c ****     }
 770              		.loc 1 292 7 view .LVU267
 771 0174 FFF7FEFF 		bl	Error_Handler
 772              	.LVL31:
 773 0178 EDE7     		b	.L27
 774              	.L33:
 775 017a 00BF     		.align	2
 776              	.L32:
 777 017c 002C0140 		.word	1073818624
 778 0180 000C0240 		.word	1073875968
 779 0184 00000000 		.word	hdma_sdio_rx
 780 0188 58640240 		.word	1073898584
 781 018c 00000000 		.word	hdma_sdio_tx
 782 0190 A0640240 		.word	1073898656
 783 0194 00080240 		.word	1073874944
 784              		.cfi_endproc
 785              	.LFE137:
 787              		.section	.text.HAL_SD_MspDeInit,"ax",%progbits
 788              		.align	1
 789              		.global	HAL_SD_MspDeInit
 790              		.syntax unified
 791              		.thumb
 792              		.thumb_func
 794              	HAL_SD_MspDeInit:
 795              	.LVL32:
 796              	.LFB138:
ARM GAS  C:\Users\jonas\AppData\Local\Temp\cc7akkZT.s 			page 24


 306:Core/Src/stm32f4xx_hal_msp.c **** 
 307:Core/Src/stm32f4xx_hal_msp.c **** /**
 308:Core/Src/stm32f4xx_hal_msp.c **** * @brief SD MSP De-Initialization
 309:Core/Src/stm32f4xx_hal_msp.c **** * This function freeze the hardware resources used in this example
 310:Core/Src/stm32f4xx_hal_msp.c **** * @param hsd: SD handle pointer
 311:Core/Src/stm32f4xx_hal_msp.c **** * @retval None
 312:Core/Src/stm32f4xx_hal_msp.c **** */
 313:Core/Src/stm32f4xx_hal_msp.c **** void HAL_SD_MspDeInit(SD_HandleTypeDef* hsd)
 314:Core/Src/stm32f4xx_hal_msp.c **** {
 797              		.loc 1 314 1 view -0
 798              		.cfi_startproc
 799              		@ args = 0, pretend = 0, frame = 0
 800              		@ frame_needed = 0, uses_anonymous_args = 0
 315:Core/Src/stm32f4xx_hal_msp.c ****   if(hsd->Instance==SDIO)
 801              		.loc 1 315 3 view .LVU269
 802              		.loc 1 315 9 is_stmt 0 view .LVU270
 803 0000 0268     		ldr	r2, [r0]
 804              		.loc 1 315 5 view .LVU271
 805 0002 0F4B     		ldr	r3, .L41
 806 0004 9A42     		cmp	r2, r3
 807 0006 00D0     		beq	.L40
 808 0008 7047     		bx	lr
 809              	.L40:
 314:Core/Src/stm32f4xx_hal_msp.c ****   if(hsd->Instance==SDIO)
 810              		.loc 1 314 1 view .LVU272
 811 000a 10B5     		push	{r4, lr}
 812              		.cfi_def_cfa_offset 8
 813              		.cfi_offset 4, -8
 814              		.cfi_offset 14, -4
 815 000c 0446     		mov	r4, r0
 316:Core/Src/stm32f4xx_hal_msp.c ****   {
 317:Core/Src/stm32f4xx_hal_msp.c ****   /* USER CODE BEGIN SDIO_MspDeInit 0 */
 318:Core/Src/stm32f4xx_hal_msp.c **** 
 319:Core/Src/stm32f4xx_hal_msp.c ****   /* USER CODE END SDIO_MspDeInit 0 */
 320:Core/Src/stm32f4xx_hal_msp.c ****     /* Peripheral clock disable */
 321:Core/Src/stm32f4xx_hal_msp.c ****     __HAL_RCC_SDIO_CLK_DISABLE();
 816              		.loc 1 321 5 is_stmt 1 view .LVU273
 817 000e 0D4A     		ldr	r2, .L41+4
 818 0010 536C     		ldr	r3, [r2, #68]
 819 0012 23F40063 		bic	r3, r3, #2048
 820 0016 5364     		str	r3, [r2, #68]
 322:Core/Src/stm32f4xx_hal_msp.c **** 
 323:Core/Src/stm32f4xx_hal_msp.c ****     /**SDIO GPIO Configuration
 324:Core/Src/stm32f4xx_hal_msp.c ****     PC8     ------> SDIO_D0
 325:Core/Src/stm32f4xx_hal_msp.c ****     PC12     ------> SDIO_CK
 326:Core/Src/stm32f4xx_hal_msp.c ****     PD2     ------> SDIO_CMD
 327:Core/Src/stm32f4xx_hal_msp.c ****     */
 328:Core/Src/stm32f4xx_hal_msp.c ****     HAL_GPIO_DeInit(GPIOC, GPIO_PIN_8|GPIO_PIN_12);
 821              		.loc 1 328 5 view .LVU274
 822 0018 4FF48851 		mov	r1, #4352
 823 001c 0A48     		ldr	r0, .L41+8
 824              	.LVL33:
 825              		.loc 1 328 5 is_stmt 0 view .LVU275
 826 001e FFF7FEFF 		bl	HAL_GPIO_DeInit
 827              	.LVL34:
 329:Core/Src/stm32f4xx_hal_msp.c **** 
 330:Core/Src/stm32f4xx_hal_msp.c ****     HAL_GPIO_DeInit(GPIOD, GPIO_PIN_2);
ARM GAS  C:\Users\jonas\AppData\Local\Temp\cc7akkZT.s 			page 25


 828              		.loc 1 330 5 is_stmt 1 view .LVU276
 829 0022 0421     		movs	r1, #4
 830 0024 0948     		ldr	r0, .L41+12
 831 0026 FFF7FEFF 		bl	HAL_GPIO_DeInit
 832              	.LVL35:
 331:Core/Src/stm32f4xx_hal_msp.c **** 
 332:Core/Src/stm32f4xx_hal_msp.c ****     /* SDIO DMA DeInit */
 333:Core/Src/stm32f4xx_hal_msp.c ****     HAL_DMA_DeInit(hsd->hdmarx);
 833              		.loc 1 333 5 view .LVU277
 834 002a 206C     		ldr	r0, [r4, #64]
 835 002c FFF7FEFF 		bl	HAL_DMA_DeInit
 836              	.LVL36:
 334:Core/Src/stm32f4xx_hal_msp.c ****     HAL_DMA_DeInit(hsd->hdmatx);
 837              		.loc 1 334 5 view .LVU278
 838 0030 E06B     		ldr	r0, [r4, #60]
 839 0032 FFF7FEFF 		bl	HAL_DMA_DeInit
 840              	.LVL37:
 335:Core/Src/stm32f4xx_hal_msp.c **** 
 336:Core/Src/stm32f4xx_hal_msp.c ****     /* SDIO interrupt DeInit */
 337:Core/Src/stm32f4xx_hal_msp.c ****     HAL_NVIC_DisableIRQ(SDIO_IRQn);
 841              		.loc 1 337 5 view .LVU279
 842 0036 3120     		movs	r0, #49
 843 0038 FFF7FEFF 		bl	HAL_NVIC_DisableIRQ
 844              	.LVL38:
 338:Core/Src/stm32f4xx_hal_msp.c ****   /* USER CODE BEGIN SDIO_MspDeInit 1 */
 339:Core/Src/stm32f4xx_hal_msp.c **** 
 340:Core/Src/stm32f4xx_hal_msp.c ****   /* USER CODE END SDIO_MspDeInit 1 */
 341:Core/Src/stm32f4xx_hal_msp.c ****   }
 342:Core/Src/stm32f4xx_hal_msp.c **** 
 343:Core/Src/stm32f4xx_hal_msp.c **** }
 845              		.loc 1 343 1 is_stmt 0 view .LVU280
 846 003c 10BD     		pop	{r4, pc}
 847              	.LVL39:
 848              	.L42:
 849              		.loc 1 343 1 view .LVU281
 850 003e 00BF     		.align	2
 851              	.L41:
 852 0040 002C0140 		.word	1073818624
 853 0044 00380240 		.word	1073887232
 854 0048 00080240 		.word	1073874944
 855 004c 000C0240 		.word	1073875968
 856              		.cfi_endproc
 857              	.LFE138:
 859              		.section	.text.HAL_UART_MspInit,"ax",%progbits
 860              		.align	1
 861              		.global	HAL_UART_MspInit
 862              		.syntax unified
 863              		.thumb
 864              		.thumb_func
 866              	HAL_UART_MspInit:
 867              	.LVL40:
 868              	.LFB139:
 344:Core/Src/stm32f4xx_hal_msp.c **** 
 345:Core/Src/stm32f4xx_hal_msp.c **** /**
 346:Core/Src/stm32f4xx_hal_msp.c **** * @brief UART MSP Initialization
 347:Core/Src/stm32f4xx_hal_msp.c **** * This function configures the hardware resources used in this example
 348:Core/Src/stm32f4xx_hal_msp.c **** * @param huart: UART handle pointer
ARM GAS  C:\Users\jonas\AppData\Local\Temp\cc7akkZT.s 			page 26


 349:Core/Src/stm32f4xx_hal_msp.c **** * @retval None
 350:Core/Src/stm32f4xx_hal_msp.c **** */
 351:Core/Src/stm32f4xx_hal_msp.c **** void HAL_UART_MspInit(UART_HandleTypeDef* huart)
 352:Core/Src/stm32f4xx_hal_msp.c **** {
 869              		.loc 1 352 1 is_stmt 1 view -0
 870              		.cfi_startproc
 871              		@ args = 0, pretend = 0, frame = 32
 872              		@ frame_needed = 0, uses_anonymous_args = 0
 873              		.loc 1 352 1 is_stmt 0 view .LVU283
 874 0000 10B5     		push	{r4, lr}
 875              		.cfi_def_cfa_offset 8
 876              		.cfi_offset 4, -8
 877              		.cfi_offset 14, -4
 878 0002 88B0     		sub	sp, sp, #32
 879              		.cfi_def_cfa_offset 40
 353:Core/Src/stm32f4xx_hal_msp.c ****   GPIO_InitTypeDef GPIO_InitStruct = {0};
 880              		.loc 1 353 3 is_stmt 1 view .LVU284
 881              		.loc 1 353 20 is_stmt 0 view .LVU285
 882 0004 0023     		movs	r3, #0
 883 0006 0393     		str	r3, [sp, #12]
 884 0008 0493     		str	r3, [sp, #16]
 885 000a 0593     		str	r3, [sp, #20]
 886 000c 0693     		str	r3, [sp, #24]
 887 000e 0793     		str	r3, [sp, #28]
 354:Core/Src/stm32f4xx_hal_msp.c ****   if(huart->Instance==USART2)
 888              		.loc 1 354 3 is_stmt 1 view .LVU286
 889              		.loc 1 354 11 is_stmt 0 view .LVU287
 890 0010 0268     		ldr	r2, [r0]
 891              		.loc 1 354 5 view .LVU288
 892 0012 174B     		ldr	r3, .L47
 893 0014 9A42     		cmp	r2, r3
 894 0016 01D0     		beq	.L46
 895              	.LVL41:
 896              	.L43:
 355:Core/Src/stm32f4xx_hal_msp.c ****   {
 356:Core/Src/stm32f4xx_hal_msp.c ****   /* USER CODE BEGIN USART2_MspInit 0 */
 357:Core/Src/stm32f4xx_hal_msp.c **** 
 358:Core/Src/stm32f4xx_hal_msp.c ****   /* USER CODE END USART2_MspInit 0 */
 359:Core/Src/stm32f4xx_hal_msp.c ****     /* Peripheral clock enable */
 360:Core/Src/stm32f4xx_hal_msp.c ****     __HAL_RCC_USART2_CLK_ENABLE();
 361:Core/Src/stm32f4xx_hal_msp.c **** 
 362:Core/Src/stm32f4xx_hal_msp.c ****     __HAL_RCC_GPIOA_CLK_ENABLE();
 363:Core/Src/stm32f4xx_hal_msp.c ****     /**USART2 GPIO Configuration
 364:Core/Src/stm32f4xx_hal_msp.c ****     PA2     ------> USART2_TX
 365:Core/Src/stm32f4xx_hal_msp.c ****     PA3     ------> USART2_RX
 366:Core/Src/stm32f4xx_hal_msp.c ****     */
 367:Core/Src/stm32f4xx_hal_msp.c ****     GPIO_InitStruct.Pin = USART_TX_Pin|USART_RX_Pin;
 368:Core/Src/stm32f4xx_hal_msp.c ****     GPIO_InitStruct.Mode = GPIO_MODE_AF_PP;
 369:Core/Src/stm32f4xx_hal_msp.c ****     GPIO_InitStruct.Pull = GPIO_NOPULL;
 370:Core/Src/stm32f4xx_hal_msp.c ****     GPIO_InitStruct.Speed = GPIO_SPEED_FREQ_LOW;
 371:Core/Src/stm32f4xx_hal_msp.c ****     GPIO_InitStruct.Alternate = GPIO_AF7_USART2;
 372:Core/Src/stm32f4xx_hal_msp.c ****     HAL_GPIO_Init(GPIOA, &GPIO_InitStruct);
 373:Core/Src/stm32f4xx_hal_msp.c **** 
 374:Core/Src/stm32f4xx_hal_msp.c ****     /* USART2 interrupt Init */
 375:Core/Src/stm32f4xx_hal_msp.c ****     HAL_NVIC_SetPriority(USART2_IRQn, 0, 0);
 376:Core/Src/stm32f4xx_hal_msp.c ****     HAL_NVIC_EnableIRQ(USART2_IRQn);
 377:Core/Src/stm32f4xx_hal_msp.c ****   /* USER CODE BEGIN USART2_MspInit 1 */
ARM GAS  C:\Users\jonas\AppData\Local\Temp\cc7akkZT.s 			page 27


 378:Core/Src/stm32f4xx_hal_msp.c **** 
 379:Core/Src/stm32f4xx_hal_msp.c ****   /* USER CODE END USART2_MspInit 1 */
 380:Core/Src/stm32f4xx_hal_msp.c ****   }
 381:Core/Src/stm32f4xx_hal_msp.c **** 
 382:Core/Src/stm32f4xx_hal_msp.c **** }
 897              		.loc 1 382 1 view .LVU289
 898 0018 08B0     		add	sp, sp, #32
 899              		.cfi_remember_state
 900              		.cfi_def_cfa_offset 8
 901              		@ sp needed
 902 001a 10BD     		pop	{r4, pc}
 903              	.LVL42:
 904              	.L46:
 905              		.cfi_restore_state
 360:Core/Src/stm32f4xx_hal_msp.c **** 
 906              		.loc 1 360 5 is_stmt 1 view .LVU290
 907              	.LBB11:
 360:Core/Src/stm32f4xx_hal_msp.c **** 
 908              		.loc 1 360 5 view .LVU291
 909 001c 0024     		movs	r4, #0
 910 001e 0194     		str	r4, [sp, #4]
 360:Core/Src/stm32f4xx_hal_msp.c **** 
 911              		.loc 1 360 5 view .LVU292
 912 0020 03F5FA33 		add	r3, r3, #128000
 913 0024 1A6C     		ldr	r2, [r3, #64]
 914 0026 42F40032 		orr	r2, r2, #131072
 915 002a 1A64     		str	r2, [r3, #64]
 360:Core/Src/stm32f4xx_hal_msp.c **** 
 916              		.loc 1 360 5 view .LVU293
 917 002c 1A6C     		ldr	r2, [r3, #64]
 918 002e 02F40032 		and	r2, r2, #131072
 919 0032 0192     		str	r2, [sp, #4]
 360:Core/Src/stm32f4xx_hal_msp.c **** 
 920              		.loc 1 360 5 view .LVU294
 921 0034 019A     		ldr	r2, [sp, #4]
 922              	.LBE11:
 360:Core/Src/stm32f4xx_hal_msp.c **** 
 923              		.loc 1 360 5 view .LVU295
 362:Core/Src/stm32f4xx_hal_msp.c ****     /**USART2 GPIO Configuration
 924              		.loc 1 362 5 view .LVU296
 925              	.LBB12:
 362:Core/Src/stm32f4xx_hal_msp.c ****     /**USART2 GPIO Configuration
 926              		.loc 1 362 5 view .LVU297
 927 0036 0294     		str	r4, [sp, #8]
 362:Core/Src/stm32f4xx_hal_msp.c ****     /**USART2 GPIO Configuration
 928              		.loc 1 362 5 view .LVU298
 929 0038 1A6B     		ldr	r2, [r3, #48]
 930 003a 42F00102 		orr	r2, r2, #1
 931 003e 1A63     		str	r2, [r3, #48]
 362:Core/Src/stm32f4xx_hal_msp.c ****     /**USART2 GPIO Configuration
 932              		.loc 1 362 5 view .LVU299
 933 0040 1B6B     		ldr	r3, [r3, #48]
 934 0042 03F00103 		and	r3, r3, #1
 935 0046 0293     		str	r3, [sp, #8]
 362:Core/Src/stm32f4xx_hal_msp.c ****     /**USART2 GPIO Configuration
 936              		.loc 1 362 5 view .LVU300
 937 0048 029B     		ldr	r3, [sp, #8]
ARM GAS  C:\Users\jonas\AppData\Local\Temp\cc7akkZT.s 			page 28


 938              	.LBE12:
 362:Core/Src/stm32f4xx_hal_msp.c ****     /**USART2 GPIO Configuration
 939              		.loc 1 362 5 view .LVU301
 367:Core/Src/stm32f4xx_hal_msp.c ****     GPIO_InitStruct.Mode = GPIO_MODE_AF_PP;
 940              		.loc 1 367 5 view .LVU302
 367:Core/Src/stm32f4xx_hal_msp.c ****     GPIO_InitStruct.Mode = GPIO_MODE_AF_PP;
 941              		.loc 1 367 25 is_stmt 0 view .LVU303
 942 004a 0C23     		movs	r3, #12
 943 004c 0393     		str	r3, [sp, #12]
 368:Core/Src/stm32f4xx_hal_msp.c ****     GPIO_InitStruct.Pull = GPIO_NOPULL;
 944              		.loc 1 368 5 is_stmt 1 view .LVU304
 368:Core/Src/stm32f4xx_hal_msp.c ****     GPIO_InitStruct.Pull = GPIO_NOPULL;
 945              		.loc 1 368 26 is_stmt 0 view .LVU305
 946 004e 0223     		movs	r3, #2
 947 0050 0493     		str	r3, [sp, #16]
 369:Core/Src/stm32f4xx_hal_msp.c ****     GPIO_InitStruct.Speed = GPIO_SPEED_FREQ_LOW;
 948              		.loc 1 369 5 is_stmt 1 view .LVU306
 370:Core/Src/stm32f4xx_hal_msp.c ****     GPIO_InitStruct.Alternate = GPIO_AF7_USART2;
 949              		.loc 1 370 5 view .LVU307
 371:Core/Src/stm32f4xx_hal_msp.c ****     HAL_GPIO_Init(GPIOA, &GPIO_InitStruct);
 950              		.loc 1 371 5 view .LVU308
 371:Core/Src/stm32f4xx_hal_msp.c ****     HAL_GPIO_Init(GPIOA, &GPIO_InitStruct);
 951              		.loc 1 371 31 is_stmt 0 view .LVU309
 952 0052 0723     		movs	r3, #7
 953 0054 0793     		str	r3, [sp, #28]
 372:Core/Src/stm32f4xx_hal_msp.c **** 
 954              		.loc 1 372 5 is_stmt 1 view .LVU310
 955 0056 03A9     		add	r1, sp, #12
 956 0058 0648     		ldr	r0, .L47+4
 957              	.LVL43:
 372:Core/Src/stm32f4xx_hal_msp.c **** 
 958              		.loc 1 372 5 is_stmt 0 view .LVU311
 959 005a FFF7FEFF 		bl	HAL_GPIO_Init
 960              	.LVL44:
 375:Core/Src/stm32f4xx_hal_msp.c ****     HAL_NVIC_EnableIRQ(USART2_IRQn);
 961              		.loc 1 375 5 is_stmt 1 view .LVU312
 962 005e 2246     		mov	r2, r4
 963 0060 2146     		mov	r1, r4
 964 0062 2620     		movs	r0, #38
 965 0064 FFF7FEFF 		bl	HAL_NVIC_SetPriority
 966              	.LVL45:
 376:Core/Src/stm32f4xx_hal_msp.c ****   /* USER CODE BEGIN USART2_MspInit 1 */
 967              		.loc 1 376 5 view .LVU313
 968 0068 2620     		movs	r0, #38
 969 006a FFF7FEFF 		bl	HAL_NVIC_EnableIRQ
 970              	.LVL46:
 971              		.loc 1 382 1 is_stmt 0 view .LVU314
 972 006e D3E7     		b	.L43
 973              	.L48:
 974              		.align	2
 975              	.L47:
 976 0070 00440040 		.word	1073759232
 977 0074 00000240 		.word	1073872896
 978              		.cfi_endproc
 979              	.LFE139:
 981              		.section	.text.HAL_UART_MspDeInit,"ax",%progbits
 982              		.align	1
ARM GAS  C:\Users\jonas\AppData\Local\Temp\cc7akkZT.s 			page 29


 983              		.global	HAL_UART_MspDeInit
 984              		.syntax unified
 985              		.thumb
 986              		.thumb_func
 988              	HAL_UART_MspDeInit:
 989              	.LVL47:
 990              	.LFB140:
 383:Core/Src/stm32f4xx_hal_msp.c **** 
 384:Core/Src/stm32f4xx_hal_msp.c **** /**
 385:Core/Src/stm32f4xx_hal_msp.c **** * @brief UART MSP De-Initialization
 386:Core/Src/stm32f4xx_hal_msp.c **** * This function freeze the hardware resources used in this example
 387:Core/Src/stm32f4xx_hal_msp.c **** * @param huart: UART handle pointer
 388:Core/Src/stm32f4xx_hal_msp.c **** * @retval None
 389:Core/Src/stm32f4xx_hal_msp.c **** */
 390:Core/Src/stm32f4xx_hal_msp.c **** void HAL_UART_MspDeInit(UART_HandleTypeDef* huart)
 391:Core/Src/stm32f4xx_hal_msp.c **** {
 991              		.loc 1 391 1 is_stmt 1 view -0
 992              		.cfi_startproc
 993              		@ args = 0, pretend = 0, frame = 0
 994              		@ frame_needed = 0, uses_anonymous_args = 0
 995              		.loc 1 391 1 is_stmt 0 view .LVU316
 996 0000 08B5     		push	{r3, lr}
 997              		.cfi_def_cfa_offset 8
 998              		.cfi_offset 3, -8
 999              		.cfi_offset 14, -4
 392:Core/Src/stm32f4xx_hal_msp.c ****   if(huart->Instance==USART2)
 1000              		.loc 1 392 3 is_stmt 1 view .LVU317
 1001              		.loc 1 392 11 is_stmt 0 view .LVU318
 1002 0002 0268     		ldr	r2, [r0]
 1003              		.loc 1 392 5 view .LVU319
 1004 0004 084B     		ldr	r3, .L53
 1005 0006 9A42     		cmp	r2, r3
 1006 0008 00D0     		beq	.L52
 1007              	.LVL48:
 1008              	.L49:
 393:Core/Src/stm32f4xx_hal_msp.c ****   {
 394:Core/Src/stm32f4xx_hal_msp.c ****   /* USER CODE BEGIN USART2_MspDeInit 0 */
 395:Core/Src/stm32f4xx_hal_msp.c **** 
 396:Core/Src/stm32f4xx_hal_msp.c ****   /* USER CODE END USART2_MspDeInit 0 */
 397:Core/Src/stm32f4xx_hal_msp.c ****     /* Peripheral clock disable */
 398:Core/Src/stm32f4xx_hal_msp.c ****     __HAL_RCC_USART2_CLK_DISABLE();
 399:Core/Src/stm32f4xx_hal_msp.c **** 
 400:Core/Src/stm32f4xx_hal_msp.c ****     /**USART2 GPIO Configuration
 401:Core/Src/stm32f4xx_hal_msp.c ****     PA2     ------> USART2_TX
 402:Core/Src/stm32f4xx_hal_msp.c ****     PA3     ------> USART2_RX
 403:Core/Src/stm32f4xx_hal_msp.c ****     */
 404:Core/Src/stm32f4xx_hal_msp.c ****     HAL_GPIO_DeInit(GPIOA, USART_TX_Pin|USART_RX_Pin);
 405:Core/Src/stm32f4xx_hal_msp.c **** 
 406:Core/Src/stm32f4xx_hal_msp.c ****     /* USART2 interrupt DeInit */
 407:Core/Src/stm32f4xx_hal_msp.c ****     HAL_NVIC_DisableIRQ(USART2_IRQn);
 408:Core/Src/stm32f4xx_hal_msp.c ****   /* USER CODE BEGIN USART2_MspDeInit 1 */
 409:Core/Src/stm32f4xx_hal_msp.c **** 
 410:Core/Src/stm32f4xx_hal_msp.c ****   /* USER CODE END USART2_MspDeInit 1 */
 411:Core/Src/stm32f4xx_hal_msp.c ****   }
 412:Core/Src/stm32f4xx_hal_msp.c **** 
 413:Core/Src/stm32f4xx_hal_msp.c **** }
 1009              		.loc 1 413 1 view .LVU320
ARM GAS  C:\Users\jonas\AppData\Local\Temp\cc7akkZT.s 			page 30


 1010 000a 08BD     		pop	{r3, pc}
 1011              	.LVL49:
 1012              	.L52:
 398:Core/Src/stm32f4xx_hal_msp.c **** 
 1013              		.loc 1 398 5 is_stmt 1 view .LVU321
 1014 000c 074A     		ldr	r2, .L53+4
 1015 000e 136C     		ldr	r3, [r2, #64]
 1016 0010 23F40033 		bic	r3, r3, #131072
 1017 0014 1364     		str	r3, [r2, #64]
 404:Core/Src/stm32f4xx_hal_msp.c **** 
 1018              		.loc 1 404 5 view .LVU322
 1019 0016 0C21     		movs	r1, #12
 1020 0018 0548     		ldr	r0, .L53+8
 1021              	.LVL50:
 404:Core/Src/stm32f4xx_hal_msp.c **** 
 1022              		.loc 1 404 5 is_stmt 0 view .LVU323
 1023 001a FFF7FEFF 		bl	HAL_GPIO_DeInit
 1024              	.LVL51:
 407:Core/Src/stm32f4xx_hal_msp.c ****   /* USER CODE BEGIN USART2_MspDeInit 1 */
 1025              		.loc 1 407 5 is_stmt 1 view .LVU324
 1026 001e 2620     		movs	r0, #38
 1027 0020 FFF7FEFF 		bl	HAL_NVIC_DisableIRQ
 1028              	.LVL52:
 1029              		.loc 1 413 1 is_stmt 0 view .LVU325
 1030 0024 F1E7     		b	.L49
 1031              	.L54:
 1032 0026 00BF     		.align	2
 1033              	.L53:
 1034 0028 00440040 		.word	1073759232
 1035 002c 00380240 		.word	1073887232
 1036 0030 00000240 		.word	1073872896
 1037              		.cfi_endproc
 1038              	.LFE140:
 1040              		.text
 1041              	.Letext0:
 1042              		.file 2 "Drivers/CMSIS/Device/ST/STM32F4xx/Include/stm32f401xe.h"
 1043              		.file 3 "C:/Users/jonas/AppData/Roaming/VSCodium/User/globalStorage/bmd.stm32-for-vscode/@xpack-de
 1044              		.file 4 "C:/Users/jonas/AppData/Roaming/VSCodium/User/globalStorage/bmd.stm32-for-vscode/@xpack-de
 1045              		.file 5 "Drivers/STM32F4xx_HAL_Driver/Inc/stm32f4xx_hal_def.h"
 1046              		.file 6 "Drivers/STM32F4xx_HAL_Driver/Inc/stm32f4xx_hal_rcc_ex.h"
 1047              		.file 7 "Drivers/STM32F4xx_HAL_Driver/Inc/stm32f4xx_hal_gpio.h"
 1048              		.file 8 "Drivers/STM32F4xx_HAL_Driver/Inc/stm32f4xx_hal_dma.h"
 1049              		.file 9 "Drivers/STM32F4xx_HAL_Driver/Inc/stm32f4xx_hal_i2s.h"
 1050              		.file 10 "Drivers/STM32F4xx_HAL_Driver/Inc/stm32f4xx_ll_sdmmc.h"
 1051              		.file 11 "Drivers/STM32F4xx_HAL_Driver/Inc/stm32f4xx_hal_sd.h"
 1052              		.file 12 "Drivers/STM32F4xx_HAL_Driver/Inc/stm32f4xx_hal_uart.h"
 1053              		.file 13 "Drivers/STM32F4xx_HAL_Driver/Inc/stm32f4xx_hal_cortex.h"
 1054              		.file 14 "Core/Inc/main.h"
ARM GAS  C:\Users\jonas\AppData\Local\Temp\cc7akkZT.s 			page 31

