ARM GAS  C:\Users\jonas\AppData\Local\Temp\ccfEABuq.s 			page 1


   1              		.cpu cortex-m4
   2              		.arch armv7e-m
   3              		.fpu fpv4-sp-d16
   4              		.eabi_attribute 27, 1
   5              		.eabi_attribute 28, 1
   6              		.eabi_attribute 20, 1
   7              		.eabi_attribute 21, 1
   8              		.eabi_attribute 23, 3
   9              		.eabi_attribute 24, 1
  10              		.eabi_attribute 25, 1
  11              		.eabi_attribute 26, 1
  12              		.eabi_attribute 30, 1
  13              		.eabi_attribute 34, 1
  14              		.eabi_attribute 18, 4
  15              		.file	"wavDecoder.c"
  16              		.text
  17              	.Ltext0:
  18              		.cfi_sections	.debug_frame
  19              		.file 1 "Core/Src/wavDecoder.c"
  20              		.section	.text.checkWav,"ax",%progbits
  21              		.align	1
  22              		.global	checkWav
  23              		.syntax unified
  24              		.thumb
  25              		.thumb_func
  27              	checkWav:
  28              	.LVL0:
  29              	.LFB134:
   1:Core/Src/wavDecoder.c **** #include "fatfs.h"
   2:Core/Src/wavDecoder.c **** #include "wavDecoder.h"
   3:Core/Src/wavDecoder.c **** #include "string.h"
   4:Core/Src/wavDecoder.c **** 
   5:Core/Src/wavDecoder.c **** // load .wav header and check for valid header members
   6:Core/Src/wavDecoder.c **** uint8_t checkWav(FIL *file, wav_header_t *wavHeader) {
  30              		.loc 1 6 54 view -0
  31              		.cfi_startproc
  32              		@ args = 0, pretend = 0, frame = 8
  33              		@ frame_needed = 0, uses_anonymous_args = 0
  34              		.loc 1 6 54 is_stmt 0 view .LVU1
  35 0000 70B5     		push	{r4, r5, r6, lr}
  36              		.cfi_def_cfa_offset 16
  37              		.cfi_offset 4, -16
  38              		.cfi_offset 5, -12
  39              		.cfi_offset 6, -8
  40              		.cfi_offset 14, -4
  41 0002 82B0     		sub	sp, sp, #8
  42              		.cfi_def_cfa_offset 24
  43 0004 0546     		mov	r5, r0
  44 0006 0C46     		mov	r4, r1
   7:Core/Src/wavDecoder.c ****     uint8_t wav_OK = 1;
  45              		.loc 1 7 5 is_stmt 1 view .LVU2
  46              	.LVL1:
   8:Core/Src/wavDecoder.c ****     UINT count = 0;
  47              		.loc 1 8 5 view .LVU3
  48              		.loc 1 8 10 is_stmt 0 view .LVU4
  49 0008 0023     		movs	r3, #0
  50 000a 0193     		str	r3, [sp, #4]
ARM GAS  C:\Users\jonas\AppData\Local\Temp\ccfEABuq.s 			page 2


   9:Core/Src/wavDecoder.c **** 
  10:Core/Src/wavDecoder.c ****     // Read RIFF header and first Chunki
  11:Core/Src/wavDecoder.c ****     if (f_read(file, wavHeader, sizeof(uint32_t) * 5, &count) != FR_OK) {
  51              		.loc 1 11 5 is_stmt 1 view .LVU5
  52              		.loc 1 11 9 is_stmt 0 view .LVU6
  53 000c 01AB     		add	r3, sp, #4
  54 000e 1422     		movs	r2, #20
  55 0010 FFF7FEFF 		bl	f_read
  56              	.LVL2:
  57              		.loc 1 11 8 discriminator 1 view .LVU7
  58 0014 38BB     		cbnz	r0, .L5
  59 0016 0646     		mov	r6, r0
  12:Core/Src/wavDecoder.c ****         return 0;
  13:Core/Src/wavDecoder.c ****     }
  14:Core/Src/wavDecoder.c **** 
  15:Core/Src/wavDecoder.c ****     // Check RIFF header
  16:Core/Src/wavDecoder.c ****     if (wavHeader->ChunkID != 0x46464952 || wavHeader->Format != 0x45564157) {
  60              		.loc 1 16 5 is_stmt 1 view .LVU8
  61              		.loc 1 16 18 is_stmt 0 view .LVU9
  62 0018 2268     		ldr	r2, [r4]
  63              		.loc 1 16 8 view .LVU10
  64 001a 154B     		ldr	r3, .L7
  65 001c 9A42     		cmp	r2, r3
  66 001e 23D1     		bne	.L2
  67              		.loc 1 16 54 discriminator 1 view .LVU11
  68 0020 A268     		ldr	r2, [r4, #8]
  69              		.loc 1 16 42 discriminator 1 view .LVU12
  70 0022 A3F57003 		sub	r3, r3, #15728640
  71 0026 A3F2FB73 		subw	r3, r3, #2043
  72 002a 9A42     		cmp	r2, r3
  73 002c 1CD1     		bne	.L2
  74              	.L4:
  17:Core/Src/wavDecoder.c ****         return 0;
  18:Core/Src/wavDecoder.c ****     }
  19:Core/Src/wavDecoder.c **** 
  20:Core/Src/wavDecoder.c ****     // Read additional chunks until "fmt " subchunk is found
  21:Core/Src/wavDecoder.c ****     while (1) {
  75              		.loc 1 21 5 is_stmt 1 view .LVU13
  76              	.LBB2:
  22:Core/Src/wavDecoder.c ****         if (wavHeader->Subchunk1ID == 0x20746d66) { // "fmt "
  77              		.loc 1 22 9 view .LVU14
  78              		.loc 1 22 22 is_stmt 0 view .LVU15
  79 002e E268     		ldr	r2, [r4, #12]
  80              		.loc 1 22 12 view .LVU16
  81 0030 104B     		ldr	r3, .L7+4
  82 0032 9A42     		cmp	r2, r3
  83 0034 0FD0     		beq	.L3
  23:Core/Src/wavDecoder.c ****             // Essential "fmt " subchunk found
  24:Core/Src/wavDecoder.c ****             break;
  25:Core/Src/wavDecoder.c ****         }
  26:Core/Src/wavDecoder.c **** 
  27:Core/Src/wavDecoder.c ****         f_lseek(file, f_tell(file) + wavHeader->Subchunk1Size);
  84              		.loc 1 27 9 is_stmt 1 view .LVU17
  85              		.loc 1 27 23 is_stmt 0 view .LVU18
  86 0036 A969     		ldr	r1, [r5, #24]
  87              		.loc 1 27 47 view .LVU19
  88 0038 2369     		ldr	r3, [r4, #16]
ARM GAS  C:\Users\jonas\AppData\Local\Temp\ccfEABuq.s 			page 3


  89              		.loc 1 27 9 view .LVU20
  90 003a 1944     		add	r1, r1, r3
  91 003c 2846     		mov	r0, r5
  92 003e FFF7FEFF 		bl	f_lseek
  93              	.LVL3:
  28:Core/Src/wavDecoder.c **** 
  29:Core/Src/wavDecoder.c ****         // Calculate the address of the next subchunk header
  30:Core/Src/wavDecoder.c ****         wav_header_t* nextHeader = (wav_header_t*)((char*)wavHeader + sizeof(uint32_t) * 3);
  94              		.loc 1 30 9 is_stmt 1 view .LVU21
  31:Core/Src/wavDecoder.c **** 
  32:Core/Src/wavDecoder.c ****         // Read next subchunk header / rest of the wav header
  33:Core/Src/wavDecoder.c ****         if (f_read(file, nextHeader, sizeof(wav_header_t) - sizeof(uint32_t) * 3, &count) != FR_OK)
  95              		.loc 1 33 9 view .LVU22
  96              		.loc 1 33 13 is_stmt 0 view .LVU23
  97 0042 01AB     		add	r3, sp, #4
  98 0044 2022     		movs	r2, #32
  99 0046 04F10C01 		add	r1, r4, #12
 100              	.LVL4:
 101              		.loc 1 33 13 view .LVU24
 102 004a 2846     		mov	r0, r5
 103 004c FFF7FEFF 		bl	f_read
 104              	.LVL5:
 105              		.loc 1 33 12 discriminator 1 view .LVU25
 106 0050 0028     		cmp	r0, #0
 107 0052 ECD0     		beq	.L4
 108 0054 08E0     		b	.L2
 109              	.LVL6:
 110              	.L3:
 111              		.loc 1 33 12 discriminator 1 view .LVU26
 112              	.LBE2:
  34:Core/Src/wavDecoder.c ****             return 0;
  35:Core/Src/wavDecoder.c ****         }
  36:Core/Src/wavDecoder.c ****     }
  37:Core/Src/wavDecoder.c **** 
  38:Core/Src/wavDecoder.c ****     // Check essential "fmt " subchunk
  39:Core/Src/wavDecoder.c ****     if (wavHeader->Subchunk1Size != 16 || wavHeader->AudioFormat != 1) {
 113              		.loc 1 39 5 is_stmt 1 view .LVU27
 114              		.loc 1 39 18 is_stmt 0 view .LVU28
 115 0056 2369     		ldr	r3, [r4, #16]
 116              		.loc 1 39 8 view .LVU29
 117 0058 102B     		cmp	r3, #16
 118 005a 05D1     		bne	.L2
 119              		.loc 1 39 52 discriminator 1 view .LVU30
 120 005c A38A     		ldrh	r3, [r4, #20]
 121              		.loc 1 39 40 discriminator 1 view .LVU31
 122 005e 012B     		cmp	r3, #1
 123 0060 02D1     		bne	.L2
  40:Core/Src/wavDecoder.c ****         return 0;
  41:Core/Src/wavDecoder.c ****     }
  42:Core/Src/wavDecoder.c **** 
  43:Core/Src/wavDecoder.c ****     return wav_OK;
 124              		.loc 1 43 12 view .LVU32
 125 0062 0126     		movs	r6, #1
 126 0064 00E0     		b	.L2
 127              	.L5:
  12:Core/Src/wavDecoder.c ****     }
 128              		.loc 1 12 16 view .LVU33
ARM GAS  C:\Users\jonas\AppData\Local\Temp\ccfEABuq.s 			page 4


 129 0066 0026     		movs	r6, #0
 130              	.L2:
  44:Core/Src/wavDecoder.c **** }
 131              		.loc 1 44 1 view .LVU34
 132 0068 3046     		mov	r0, r6
 133 006a 02B0     		add	sp, sp, #8
 134              		.cfi_def_cfa_offset 16
 135              		@ sp needed
 136 006c 70BD     		pop	{r4, r5, r6, pc}
 137              	.LVL7:
 138              	.L8:
 139              		.loc 1 44 1 view .LVU35
 140 006e 00BF     		.align	2
 141              	.L7:
 142 0070 52494646 		.word	1179011410
 143 0074 666D7420 		.word	544501094
 144              		.cfi_endproc
 145              	.LFE134:
 147              		.section	.text.wavPlay,"ax",%progbits
 148              		.align	1
 149              		.global	wavPlay
 150              		.syntax unified
 151              		.thumb
 152              		.thumb_func
 154              	wavPlay:
 155              	.LVL8:
 156              	.LFB135:
  45:Core/Src/wavDecoder.c **** 
  46:Core/Src/wavDecoder.c **** // assumes wavHeader is already populated
  47:Core/Src/wavDecoder.c **** uint8_t wavPlay(FIL *file, wav_header_t *wavHeader){
 157              		.loc 1 47 52 is_stmt 1 view -0
 158              		.cfi_startproc
 159              		@ args = 0, pretend = 0, frame = 0
 160              		@ frame_needed = 0, uses_anonymous_args = 0
 161              		.loc 1 47 52 is_stmt 0 view .LVU37
 162 0000 70B5     		push	{r4, r5, r6, lr}
 163              		.cfi_def_cfa_offset 16
 164              		.cfi_offset 4, -16
 165              		.cfi_offset 5, -12
 166              		.cfi_offset 6, -8
 167              		.cfi_offset 14, -4
 168 0002 0546     		mov	r5, r0
 169 0004 0C46     		mov	r4, r1
  48:Core/Src/wavDecoder.c ****     checkWav(file, wavHeader);
 170              		.loc 1 48 5 is_stmt 1 view .LVU38
 171 0006 FFF7FEFF 		bl	checkWav
 172              	.LVL9:
  49:Core/Src/wavDecoder.c ****     uint32_t length = wavHeader->Subchunk2Size ;    // Number of bytes in data. Number of samples *
 173              		.loc 1 49 5 view .LVU39
 174              		.loc 1 49 14 is_stmt 0 view .LVU40
 175 000a A46A     		ldr	r4, [r4, #40]
 176              	.LVL10:
  50:Core/Src/wavDecoder.c ****     uint32_t remainingBytes = length;
 177              		.loc 1 50 5 is_stmt 1 view .LVU41
  51:Core/Src/wavDecoder.c **** 
  52:Core/Src/wavDecoder.c ****     // Start DMA Stream
  53:Core/Src/wavDecoder.c ****     HAL_I2S_Transmit_DMA(&hi2s3,(uint16_t *)dacData, BUFFER_SIZE);
ARM GAS  C:\Users\jonas\AppData\Local\Temp\ccfEABuq.s 			page 5


 178              		.loc 1 53 5 view .LVU42
 179 000c 4FF48072 		mov	r2, #256
 180 0010 1149     		ldr	r1, .L15
 181 0012 1248     		ldr	r0, .L15+4
 182 0014 FFF7FEFF 		bl	HAL_I2S_Transmit_DMA
 183              	.LVL11:
  54:Core/Src/wavDecoder.c **** 
  55:Core/Src/wavDecoder.c ****     float left;
 184              		.loc 1 55 5 view .LVU43
  56:Core/Src/wavDecoder.c **** 
  57:Core/Src/wavDecoder.c ****     while(remainingBytes > 0){
 185              		.loc 1 57 5 view .LVU44
 186              	.L11:
 187              		.loc 1 57 26 view .LVU45
 188 0018 A4B1     		cbz	r4, .L14
  58:Core/Src/wavDecoder.c ****         if(dma_dataReady){
 189              		.loc 1 58 9 view .LVU46
 190              		.loc 1 58 12 is_stmt 0 view .LVU47
 191 001a 114B     		ldr	r3, .L15+8
 192 001c 1B78     		ldrb	r3, [r3]	@ zero_extendqisi2
 193              		.loc 1 58 11 view .LVU48
 194 001e 002B     		cmp	r3, #0
 195 0020 FAD0     		beq	.L11
 196              	.LBB3:
  59:Core/Src/wavDecoder.c ****             uint16_t bytesRead = fillHalfBufferFromSD(file, false);
 197              		.loc 1 59 13 is_stmt 1 view .LVU49
 198              		.loc 1 59 34 is_stmt 0 view .LVU50
 199 0022 0021     		movs	r1, #0
 200 0024 2846     		mov	r0, r5
 201 0026 FFF7FEFF 		bl	fillHalfBufferFromSD
 202              	.LVL12:
 203 002a 0646     		mov	r6, r0
 204              	.LVL13:
  60:Core/Src/wavDecoder.c ****             memcpy(outBufPtr, fileReadBuf, HALF_BUFFER_SIZE * sizeof(uint16_t));
 205              		.loc 1 60 13 is_stmt 1 view .LVU51
 206 002c 4FF48072 		mov	r2, #256
 207 0030 0C49     		ldr	r1, .L15+12
 208 0032 0D4B     		ldr	r3, .L15+16
 209 0034 1868     		ldr	r0, [r3]
 210 0036 FFF7FEFF 		bl	memcpy
 211              	.LVL14:
  61:Core/Src/wavDecoder.c ****             
  62:Core/Src/wavDecoder.c ****             // for(int n = 0; n < HALF_BUFFER_SIZE; n++){
  63:Core/Src/wavDecoder.c ****             //     left = outBufPtr[n];
  64:Core/Src/wavDecoder.c ****             //     left = 1.0 * left;
  65:Core/Src/wavDecoder.c ****             //     outBufPtr[n] = left;
  66:Core/Src/wavDecoder.c ****             // }
  67:Core/Src/wavDecoder.c ****             
  68:Core/Src/wavDecoder.c ****             remainingBytes -= bytesRead;
 212              		.loc 1 68 13 view .LVU52
 213              		.loc 1 68 28 is_stmt 0 view .LVU53
 214 003a A41B     		subs	r4, r4, r6
 215              	.LVL15:
  69:Core/Src/wavDecoder.c ****             dma_dataReady = false;
 216              		.loc 1 69 13 is_stmt 1 view .LVU54
 217              		.loc 1 69 27 is_stmt 0 view .LVU55
 218 003c 084B     		ldr	r3, .L15+8
ARM GAS  C:\Users\jonas\AppData\Local\Temp\ccfEABuq.s 			page 6


 219 003e 0022     		movs	r2, #0
 220 0040 1A70     		strb	r2, [r3]
 221 0042 E9E7     		b	.L11
 222              	.LVL16:
 223              	.L14:
 224              		.loc 1 69 27 view .LVU56
 225              	.LBE3:
  70:Core/Src/wavDecoder.c ****         }
  71:Core/Src/wavDecoder.c ****     }
  72:Core/Src/wavDecoder.c ****     f_lseek(file,0);
 226              		.loc 1 72 5 is_stmt 1 view .LVU57
 227 0044 0021     		movs	r1, #0
 228 0046 2846     		mov	r0, r5
 229 0048 FFF7FEFF 		bl	f_lseek
 230              	.LVL17:
  73:Core/Src/wavDecoder.c ****     HAL_I2S_DMAStop(&hi2s3);
 231              		.loc 1 73 5 view .LVU58
 232 004c 0348     		ldr	r0, .L15+4
 233 004e FFF7FEFF 		bl	HAL_I2S_DMAStop
 234              	.LVL18:
  74:Core/Src/wavDecoder.c ****     return 0;
 235              		.loc 1 74 5 view .LVU59
  75:Core/Src/wavDecoder.c **** }
 236              		.loc 1 75 1 is_stmt 0 view .LVU60
 237 0052 0020     		movs	r0, #0
 238 0054 70BD     		pop	{r4, r5, r6, pc}
 239              	.LVL19:
 240              	.L16:
 241              		.loc 1 75 1 view .LVU61
 242 0056 00BF     		.align	2
 243              	.L15:
 244 0058 00000000 		.word	dacData
 245 005c 00000000 		.word	hi2s3
 246 0060 00000000 		.word	dma_dataReady
 247 0064 00000000 		.word	fileReadBuf
 248 0068 00000000 		.word	outBufPtr
 249              		.cfi_endproc
 250              	.LFE135:
 252              		.section	.text.wavPlayPitched,"ax",%progbits
 253              		.align	1
 254              		.global	wavPlayPitched
 255              		.syntax unified
 256              		.thumb
 257              		.thumb_func
 259              	wavPlayPitched:
 260              	.LVL20:
 261              	.LFB136:
  76:Core/Src/wavDecoder.c **** 
  77:Core/Src/wavDecoder.c **** uint8_t wavPlayPitched(FIL *fil, wav_header_t *wavHeader) {
 262              		.loc 1 77 59 is_stmt 1 view -0
 263              		.cfi_startproc
 264              		@ args = 0, pretend = 0, frame = 0
 265              		@ frame_needed = 0, uses_anonymous_args = 0
 266              		.loc 1 77 59 is_stmt 0 view .LVU63
 267 0000 70B5     		push	{r4, r5, r6, lr}
 268              		.cfi_def_cfa_offset 16
 269              		.cfi_offset 4, -16
ARM GAS  C:\Users\jonas\AppData\Local\Temp\ccfEABuq.s 			page 7


 270              		.cfi_offset 5, -12
 271              		.cfi_offset 6, -8
 272              		.cfi_offset 14, -4
 273 0002 2DED028B 		vpush.64	{d8}
 274              		.cfi_def_cfa_offset 24
 275              		.cfi_offset 80, -24
 276              		.cfi_offset 81, -20
 277 0006 0646     		mov	r6, r0
 278 0008 0D46     		mov	r5, r1
  78:Core/Src/wavDecoder.c ****     uint32_t length = wavHeader->Subchunk2Size;  // Number of bytes in data. Number of samples * nu
 279              		.loc 1 78 5 is_stmt 1 view .LVU64
 280              		.loc 1 78 14 is_stmt 0 view .LVU65
 281 000a 8C6A     		ldr	r4, [r1, #40]
 282              	.LVL21:
  79:Core/Src/wavDecoder.c ****     uint32_t remainingBytes = length;
 283              		.loc 1 79 5 is_stmt 1 view .LVU66
  80:Core/Src/wavDecoder.c **** 
  81:Core/Src/wavDecoder.c ****     float currentPitchFactor = pitchFactor;
 284              		.loc 1 81 5 view .LVU67
 285              		.loc 1 81 11 is_stmt 0 view .LVU68
 286 000c 224B     		ldr	r3, .L28
 287 000e D3ED008A 		vldr.32	s17, [r3]
 288              	.LVL22:
  82:Core/Src/wavDecoder.c ****     float sampleIndex = 0.0f;
 289              		.loc 1 82 5 is_stmt 1 view .LVU69
  83:Core/Src/wavDecoder.c **** 
  84:Core/Src/wavDecoder.c ****     // Start DMA Stream
  85:Core/Src/wavDecoder.c ****     HAL_I2S_Transmit_DMA(&hi2s3, (void *)dacData, BUFFER_SIZE);
 290              		.loc 1 85 5 view .LVU70
 291 0012 4FF48072 		mov	r2, #256
 292 0016 2149     		ldr	r1, .L28+4
 293              	.LVL23:
 294              		.loc 1 85 5 is_stmt 0 view .LVU71
 295 0018 2148     		ldr	r0, .L28+8
 296              	.LVL24:
 297              		.loc 1 85 5 view .LVU72
 298 001a FFF7FEFF 		bl	HAL_I2S_Transmit_DMA
 299              	.LVL25:
  86:Core/Src/wavDecoder.c ****     while (remainingBytes > 0) {
 300              		.loc 1 86 5 is_stmt 1 view .LVU73
  82:Core/Src/wavDecoder.c ****     float sampleIndex = 0.0f;
 301              		.loc 1 82 11 is_stmt 0 view .LVU74
 302 001e 9FED218A 		vldr.32	s16, .L28+12
 303              	.LVL26:
 304              	.L19:
 305              		.loc 1 86 27 is_stmt 1 view .LVU75
 306 0022 74B3     		cbz	r4, .L27
 307              	.LBB4:
  87:Core/Src/wavDecoder.c ****         uint16_t bytesRead;
 308              		.loc 1 87 9 view .LVU76
  88:Core/Src/wavDecoder.c ****         uint32_t leftIndex;
 309              		.loc 1 88 9 view .LVU77
  89:Core/Src/wavDecoder.c ****         if (dma_dataReady) {
 310              		.loc 1 89 9 view .LVU78
 311              		.loc 1 89 13 is_stmt 0 view .LVU79
 312 0024 204B     		ldr	r3, .L28+16
 313 0026 1B78     		ldrb	r3, [r3]	@ zero_extendqisi2
ARM GAS  C:\Users\jonas\AppData\Local\Temp\ccfEABuq.s 			page 8


 314              		.loc 1 89 12 view .LVU80
 315 0028 002B     		cmp	r3, #0
 316 002a FAD0     		beq	.L19
  90:Core/Src/wavDecoder.c ****             bytesRead = fillHalfBufferFromSD(fil, true); // loads necessary data from sd card to fi
 317              		.loc 1 90 13 is_stmt 1 view .LVU81
 318              		.loc 1 90 25 is_stmt 0 view .LVU82
 319 002c 0121     		movs	r1, #1
 320 002e 3046     		mov	r0, r6
 321 0030 FFF7FEFF 		bl	fillHalfBufferFromSD
 322              	.LVL27:
  91:Core/Src/wavDecoder.c ****             remainingBytes -= bytesRead;
 323              		.loc 1 91 13 is_stmt 1 view .LVU83
 324              		.loc 1 91 28 is_stmt 0 view .LVU84
 325 0034 241A     		subs	r4, r4, r0
 326              	.LVL28:
  92:Core/Src/wavDecoder.c **** 
  93:Core/Src/wavDecoder.c ****             // // Update pitch factor if changed
  94:Core/Src/wavDecoder.c ****             // if (pitchChanged) {
  95:Core/Src/wavDecoder.c ****             //     __disable_irq();
  96:Core/Src/wavDecoder.c ****             //     currentPitchFactor = pitchFactor;
  97:Core/Src/wavDecoder.c ****             //     pitchChanged = false;
  98:Core/Src/wavDecoder.c ****             //     __enable_irq();
  99:Core/Src/wavDecoder.c ****             // }
 100:Core/Src/wavDecoder.c **** 
 101:Core/Src/wavDecoder.c ****             // Adjust the samples for pitch shifting by skipping or repeating samples
 102:Core/Src/wavDecoder.c ****             // memcpy(outBufPtr, fileReadBuf, HALF_BUFFER_SIZE * sizeof(uint16_t));
 103:Core/Src/wavDecoder.c ****             for (uint8_t n = 0; n < (HALF_BUFFER_SIZE) - 1; n += 2) {
 327              		.loc 1 103 13 is_stmt 1 view .LVU85
 328              	.LBB5:
 329              		.loc 1 103 18 view .LVU86
 330              		.loc 1 103 26 is_stmt 0 view .LVU87
 331 0036 0023     		movs	r3, #0
 332              		.loc 1 103 13 view .LVU88
 333 0038 10E0     		b	.L20
 334              	.LVL29:
 335              	.L21:
 104:Core/Src/wavDecoder.c ****                 // Calculate the index for left sample
 105:Core/Src/wavDecoder.c ****                 leftIndex = (uint32_t)sampleIndex;
 336              		.loc 1 105 17 is_stmt 1 view .LVU89
 337              		.loc 1 105 27 is_stmt 0 view .LVU90
 338 003a FCEEC87A 		vcvt.u32.f32	s15, s16
 339 003e 17EE90CA 		vmov	ip, s15	@ int
 340              	.LVL30:
 106:Core/Src/wavDecoder.c ****                 outBufPtr[n] = fileReadBuf[leftIndex];
 341              		.loc 1 106 17 is_stmt 1 view .LVU91
 342              		.loc 1 106 26 is_stmt 0 view .LVU92
 343 0042 1A4A     		ldr	r2, .L28+20
 344 0044 1268     		ldr	r2, [r2]
 345              		.loc 1 106 43 view .LVU93
 346 0046 1A49     		ldr	r1, .L28+24
 347 0048 31F91CC0 		ldrsh	ip, [r1, ip, lsl #1]
 348              	.LVL31:
 349              		.loc 1 106 30 view .LVU94
 350 004c 22F813C0 		strh	ip, [r2, r3, lsl #1]	@ movhi
 107:Core/Src/wavDecoder.c **** 
 108:Core/Src/wavDecoder.c ****                 // Calculate the index for right sample
 109:Core/Src/wavDecoder.c ****                 // uint32_t rightIndex = leftIndex + 1;
ARM GAS  C:\Users\jonas\AppData\Local\Temp\ccfEABuq.s 			page 9


 110:Core/Src/wavDecoder.c ****                 // outBufPtr[n * 2 + 1] = fileReadBuf[rightIndex];
 111:Core/Src/wavDecoder.c **** 
 112:Core/Src/wavDecoder.c ****                 sampleIndex += currentPitchFactor * 2;
 351              		.loc 1 112 17 is_stmt 1 view .LVU95
 352              		.loc 1 112 51 is_stmt 0 view .LVU96
 353 0050 78EEA87A 		vadd.f32	s15, s17, s17
 354              	.LVL32:
 355              		.loc 1 112 29 view .LVU97
 356 0054 38EE278A 		vadd.f32	s16, s16, s15
 357              	.LVL33:
 103:Core/Src/wavDecoder.c ****                 // Calculate the index for left sample
 358              		.loc 1 103 63 is_stmt 1 discriminator 3 view .LVU98
 359 0058 0233     		adds	r3, r3, #2
 360              	.LVL34:
 103:Core/Src/wavDecoder.c ****                 // Calculate the index for left sample
 361              		.loc 1 103 63 is_stmt 0 discriminator 3 view .LVU99
 362 005a DBB2     		uxtb	r3, r3
 363              	.LVL35:
 364              	.L20:
 103:Core/Src/wavDecoder.c ****                 // Calculate the index for left sample
 365              		.loc 1 103 35 is_stmt 1 discriminator 1 view .LVU100
 366 005c 7E2B     		cmp	r3, #126
 367 005e ECD9     		bls	.L21
 103:Core/Src/wavDecoder.c ****                 // Calculate the index for left sample
 368              		.loc 1 103 35 is_stmt 0 discriminator 1 view .LVU101
 369              	.LBE5:
 113:Core/Src/wavDecoder.c ****             }
 114:Core/Src/wavDecoder.c **** 
 115:Core/Src/wavDecoder.c ****             // Ensure sampleIndex is within the bounds
 116:Core/Src/wavDecoder.c ****             if (sampleIndex >= bytesRead / sizeof(uint16_t)) {
 370              		.loc 1 116 13 is_stmt 1 view .LVU102
 371              		.loc 1 116 29 is_stmt 0 view .LVU103
 372 0060 C0F34F00 		ubfx	r0, r0, #1, #16
 373              	.LVL36:
 374              		.loc 1 116 29 view .LVU104
 375 0064 07EE900A 		vmov	s15, r0	@ int
 376 0068 F8EE677A 		vcvt.f32.u32	s15, s15
 377              		.loc 1 116 16 view .LVU105
 378 006c F4EEC87A 		vcmpe.f32	s15, s16
 379 0070 F1EE10FA 		vmrs	APSR_nzcv, FPSCR
 380 0074 01D8     		bhi	.L22
 117:Core/Src/wavDecoder.c ****                 sampleIndex -= bytesRead / sizeof(uint16_t);
 381              		.loc 1 117 17 is_stmt 1 view .LVU106
 382              		.loc 1 117 29 is_stmt 0 view .LVU107
 383 0076 38EE678A 		vsub.f32	s16, s16, s15
 384              	.LVL37:
 385              	.L22:
 118:Core/Src/wavDecoder.c ****             }
 119:Core/Src/wavDecoder.c **** 
 120:Core/Src/wavDecoder.c ****             // Ensure sampleIndex is within the bounds
 121:Core/Src/wavDecoder.c ****             // if (sampleIndex >= HALF_BUFFER_SIZE) {
 122:Core/Src/wavDecoder.c ****             //     sampleIndex -= HALF_BUFFER_SIZE;
 123:Core/Src/wavDecoder.c ****             // }
 124:Core/Src/wavDecoder.c **** 
 125:Core/Src/wavDecoder.c ****             dma_dataReady = false;
 386              		.loc 1 125 13 is_stmt 1 view .LVU108
 387              		.loc 1 125 27 is_stmt 0 view .LVU109
ARM GAS  C:\Users\jonas\AppData\Local\Temp\ccfEABuq.s 			page 10


 388 007a 0B4B     		ldr	r3, .L28+16
 389              	.LVL38:
 390              		.loc 1 125 27 view .LVU110
 391 007c 0022     		movs	r2, #0
 392 007e 1A70     		strb	r2, [r3]
 393 0080 CFE7     		b	.L19
 394              	.LVL39:
 395              	.L27:
 396              		.loc 1 125 27 view .LVU111
 397              	.LBE4:
 126:Core/Src/wavDecoder.c ****         }
 127:Core/Src/wavDecoder.c ****     }
 128:Core/Src/wavDecoder.c ****     f_lseek(fil, wavHeader->Subchunk1Size);
 398              		.loc 1 128 5 is_stmt 1 view .LVU112
 399 0082 2969     		ldr	r1, [r5, #16]
 400 0084 3046     		mov	r0, r6
 401 0086 FFF7FEFF 		bl	f_lseek
 402              	.LVL40:
 129:Core/Src/wavDecoder.c ****     HAL_I2S_DMAStop(&hi2s3);
 403              		.loc 1 129 5 view .LVU113
 404 008a 0548     		ldr	r0, .L28+8
 405 008c FFF7FEFF 		bl	HAL_I2S_DMAStop
 406              	.LVL41:
 130:Core/Src/wavDecoder.c ****     return 0;
 407              		.loc 1 130 5 view .LVU114
 131:Core/Src/wavDecoder.c **** }...
 408              		.loc 1 131 1 is_stmt 0 view .LVU115
 409 0090 0020     		movs	r0, #0
 410 0092 BDEC028B 		vldm	sp!, {d8}
 411              		.cfi_restore 80
 412              		.cfi_restore 81
 413              		.cfi_def_cfa_offset 16
 414              	.LVL42:
 415              		.loc 1 131 1 view .LVU116
 416 0096 70BD     		pop	{r4, r5, r6, pc}
 417              	.LVL43:
 418              	.L29:
 419              		.loc 1 131 1 view .LVU117
 420              		.align	2
 421              	.L28:
 422 0098 00000000 		.word	pitchFactor
 423 009c 00000000 		.word	dacData
 424 00a0 00000000 		.word	hi2s3
 425 00a4 00000000 		.word	0
 426 00a8 00000000 		.word	dma_dataReady
 427 00ac 00000000 		.word	outBufPtr
 428 00b0 00000000 		.word	fileReadBuf
 429              		.cfi_endproc
 430              	.LFE136:
 432              		.text
 433              	.Letext0:
 434              		.file 2 "Middlewares/Third_Party/FatFs/src/integer.h"
 435              		.file 3 "C:/Users/jonas/AppData/Roaming/VSCodium/User/globalStorage/bmd.stm32-for-vscode/@xpack-de
 436              		.file 4 "C:/Users/jonas/AppData/Roaming/VSCodium/User/globalStorage/bmd.stm32-for-vscode/@xpack-de
 437              		.file 5 "Drivers/CMSIS/Device/ST/STM32F4xx/Include/stm32f401xe.h"
 438              		.file 6 "C:/Users/jonas/AppData/Roaming/VSCodium/User/globalStorage/bmd.stm32-for-vscode/@xpack-de
 439              		.file 7 "Drivers/STM32F4xx_HAL_Driver/Inc/stm32f4xx_hal_def.h"
ARM GAS  C:\Users\jonas\AppData\Local\Temp\ccfEABuq.s 			page 11


 440              		.file 8 "Drivers/STM32F4xx_HAL_Driver/Inc/stm32f4xx_hal_dma.h"
 441              		.file 9 "Drivers/STM32F4xx_HAL_Driver/Inc/stm32f4xx_hal_i2s.h"
 442              		.file 10 "Middlewares/Third_Party/FatFs/src/ff.h"
 443              		.file 11 "Core/Inc/audio.h"
 444              		.file 12 "Core/Inc/wavDecoder.h"
 445              		.file 13 "C:/Users/jonas/AppData/Roaming/VSCodium/User/globalStorage/bmd.stm32-for-vscode/@xpack-d
 446              		.file 14 "<built-in>"
ARM GAS  C:\Users\jonas\AppData\Local\Temp\ccfEABuq.s 			page 12

