ARM GAS  C:\Users\jonas\AppData\Local\Temp\cchKZQb1.s 			page 1


   1              		.cpu cortex-m4
   2              		.arch armv7e-m
   3              		.fpu fpv4-sp-d16
   4              		.eabi_attribute 27, 1
   5              		.eabi_attribute 28, 1
   6              		.eabi_attribute 20, 1
   7              		.eabi_attribute 21, 1
   8              		.eabi_attribute 23, 3
   9              		.eabi_attribute 24, 1
  10              		.eabi_attribute 25, 1
  11              		.eabi_attribute 26, 1
  12              		.eabi_attribute 30, 1
  13              		.eabi_attribute 34, 1
  14              		.eabi_attribute 18, 4
  15              		.file	"display.c"
  16              		.text
  17              	.Ltext0:
  18              		.cfi_sections	.debug_frame
  19              		.file 1 "Core/Src/display.c"
  20              		.section	.rodata.displayStrings.str1.4,"aMS",%progbits,1
  21              		.align	2
  22              	.LC0:
  23 0000 25632025 		.ascii	"%c %s\000"
  23      7300
  24              		.section	.text.displayStrings,"ax",%progbits
  25              		.align	1
  26              		.global	displayStrings
  27              		.syntax unified
  28              		.thumb
  29              		.thumb_func
  31              	displayStrings:
  32              	.LVL0:
  33              	.LFB134:
   1:Core/Src/display.c **** #include "display.h" 
   2:Core/Src/display.c **** 
   3:Core/Src/display.c **** // Define dimensions for display sections
   4:Core/Src/display.c **** #define DISPLAY_WIDTH           128
   5:Core/Src/display.c **** #define DISPLAY_HEIGHT          64
   6:Core/Src/display.c **** #define LIST_SECTION_HEIGHT     51
   7:Core/Src/display.c **** #define SELECTED_FILE_HEIGHT    10
   8:Core/Src/display.c **** #define BORDER_WIDTH            1
   9:Core/Src/display.c **** #define LINE_HEIGHT             10
  10:Core/Src/display.c **** #define CURSOR                  '>'
  11:Core/Src/display.c **** 
  12:Core/Src/display.c **** // Global variables to keep track of the visible portion of the list
  13:Core/Src/display.c **** static uint8_t first_visible_index = 0;
  14:Core/Src/display.c **** static uint8_t num_visible_lines = LIST_SECTION_HEIGHT / LINE_HEIGHT;
  15:Core/Src/display.c **** 
  16:Core/Src/display.c **** void displayStrings(I2C_HandleTypeDef *hi2c1, char** strings, uint8_t numStrings, uint8_t cursor_in
  34              		.loc 1 16 105 view -0
  35              		.cfi_startproc
  36              		@ args = 0, pretend = 0, frame = 128
  37              		@ frame_needed = 0, uses_anonymous_args = 0
  38              		.loc 1 16 105 is_stmt 0 view .LVU1
  39 0000 F0B5     		push	{r4, r5, r6, r7, lr}
  40              		.cfi_def_cfa_offset 20
  41              		.cfi_offset 4, -20
ARM GAS  C:\Users\jonas\AppData\Local\Temp\cchKZQb1.s 			page 2


  42              		.cfi_offset 5, -16
  43              		.cfi_offset 6, -12
  44              		.cfi_offset 7, -8
  45              		.cfi_offset 14, -4
  46 0002 A3B0     		sub	sp, sp, #140
  47              		.cfi_def_cfa_offset 160
  48 0004 0E46     		mov	r6, r1
  49 0006 1746     		mov	r7, r2
  50 0008 1D46     		mov	r5, r3
  17:Core/Src/display.c ****     // Clear screen
  18:Core/Src/display.c ****     ssd1306_Fill(Black);
  51              		.loc 1 18 5 is_stmt 1 view .LVU2
  52 000a 0020     		movs	r0, #0
  53              	.LVL1:
  54              		.loc 1 18 5 is_stmt 0 view .LVU3
  55 000c FFF7FEFF 		bl	ssd1306_Fill
  56              	.LVL2:
  19:Core/Src/display.c **** 
  20:Core/Src/display.c ****     // Calculate the last visible index based on the first visible index and the number of visible 
  21:Core/Src/display.c ****     uint8_t last_visible_index = first_visible_index + num_visible_lines - 1;
  57              		.loc 1 21 5 is_stmt 1 view .LVU4
  58              		.loc 1 21 54 is_stmt 0 view .LVU5
  59 0010 2F4B     		ldr	r3, .L21
  60 0012 1A78     		ldrb	r2, [r3]	@ zero_extendqisi2
  61              	.LVL3:
  22:Core/Src/display.c **** 
  23:Core/Src/display.c ****     // Ensure cursor is within the visible range
  24:Core/Src/display.c ****     if (cursor_index < first_visible_index) {
  62              		.loc 1 24 5 is_stmt 1 view .LVU6
  63              		.loc 1 24 8 is_stmt 0 view .LVU7
  64 0014 AA42     		cmp	r2, r5
  65 0016 04D9     		bls	.L2
  25:Core/Src/display.c ****         first_visible_index = cursor_index;
  66              		.loc 1 25 9 is_stmt 1 view .LVU8
  67              		.loc 1 25 29 is_stmt 0 view .LVU9
  68 0018 2D4B     		ldr	r3, .L21
  69 001a 1D70     		strb	r5, [r3]
  70              	.LVL4:
  71              	.L3:
  26:Core/Src/display.c ****     } else if (cursor_index > last_visible_index) {
  27:Core/Src/display.c ****         first_visible_index = cursor_index - num_visible_lines + 1;
  28:Core/Src/display.c ****     }
  29:Core/Src/display.c **** 
  30:Core/Src/display.c ****     // Write data to list section of the screen
  31:Core/Src/display.c ****     for (uint8_t k = first_visible_index; k < numStrings && k < first_visible_index + num_visible_l
  72              		.loc 1 31 5 is_stmt 1 view .LVU10
  73              	.LBB2:
  74              		.loc 1 31 10 view .LVU11
  75              		.loc 1 31 18 is_stmt 0 view .LVU12
  76 001c 2C4B     		ldr	r3, .L21
  77 001e 1C78     		ldrb	r4, [r3]	@ zero_extendqisi2
  78              	.LVL5:
  79              		.loc 1 31 5 view .LVU13
  80 0020 1CE0     		b	.L4
  81              	.LVL6:
  82              	.L2:
  83              		.loc 1 31 5 view .LVU14
ARM GAS  C:\Users\jonas\AppData\Local\Temp\cchKZQb1.s 			page 3


  84 0022 531D     		adds	r3, r2, #5
  85 0024 DBB2     		uxtb	r3, r3
  86 0026 013B     		subs	r3, r3, #1
  87 0028 DBB2     		uxtb	r3, r3
  88              	.LBE2:
  26:Core/Src/display.c ****     } else if (cursor_index > last_visible_index) {
  89              		.loc 1 26 12 is_stmt 1 view .LVU15
  26:Core/Src/display.c ****     } else if (cursor_index > last_visible_index) {
  90              		.loc 1 26 15 is_stmt 0 view .LVU16
  91 002a AB42     		cmp	r3, r5
  92 002c F6D2     		bcs	.L3
  27:Core/Src/display.c ****     }
  93              		.loc 1 27 9 is_stmt 1 view .LVU17
  27:Core/Src/display.c ****     }
  94              		.loc 1 27 44 is_stmt 0 view .LVU18
  95 002e 6B1F     		subs	r3, r5, #5
  96 0030 DBB2     		uxtb	r3, r3
  27:Core/Src/display.c ****     }
  97              		.loc 1 27 64 view .LVU19
  98 0032 0133     		adds	r3, r3, #1
  27:Core/Src/display.c ****     }
  99              		.loc 1 27 29 view .LVU20
 100 0034 264A     		ldr	r2, .L21
 101              	.LVL7:
  27:Core/Src/display.c ****     }
 102              		.loc 1 27 29 view .LVU21
 103 0036 1370     		strb	r3, [r2]
 104              	.LVL8:
  27:Core/Src/display.c ****     }
 105              		.loc 1 27 29 view .LVU22
 106 0038 F0E7     		b	.L3
 107              	.LVL9:
 108              	.L18:
 109              	.LBB4:
 110              	.LBB3:
  32:Core/Src/display.c ****         ssd1306_SetCursor(BORDER_WIDTH, (k - first_visible_index) * LINE_HEIGHT + BORDER_WIDTH); //
  33:Core/Src/display.c ****         if (k == cursor_index) {
  34:Core/Src/display.c ****             // Write the line with cursor_index
  35:Core/Src/display.c ****             char line_with_cursor[DISPLAY_WIDTH - BORDER_WIDTH];
 111              		.loc 1 35 13 is_stmt 1 view .LVU23
  36:Core/Src/display.c ****             snprintf(line_with_cursor, sizeof(line_with_cursor), "%c %s", CURSOR, strings[k]);
 112              		.loc 1 36 13 view .LVU24
 113 003a 56F82430 		ldr	r3, [r6, r4, lsl #2]
 114 003e 0093     		str	r3, [sp]
 115 0040 3E23     		movs	r3, #62
 116 0042 244A     		ldr	r2, .L21+4
 117 0044 7F21     		movs	r1, #127
 118 0046 02A8     		add	r0, sp, #8
 119 0048 FFF7FEFF 		bl	snprintf
 120              	.LVL10:
  37:Core/Src/display.c ****             ssd1306_WriteString(line_with_cursor, Font_7x10, White);
 121              		.loc 1 37 13 view .LVU25
 122 004c 224A     		ldr	r2, .L21+8
 123 004e 0123     		movs	r3, #1
 124 0050 06CA     		ldm	r2, {r1, r2}
 125 0052 02A8     		add	r0, sp, #8
 126 0054 FFF7FEFF 		bl	ssd1306_WriteString
ARM GAS  C:\Users\jonas\AppData\Local\Temp\cchKZQb1.s 			page 4


 127              	.LVL11:
 128              	.L6:
 129              		.loc 1 37 13 is_stmt 0 view .LVU26
 130              	.LBE3:
  31:Core/Src/display.c ****         ssd1306_SetCursor(BORDER_WIDTH, (k - first_visible_index) * LINE_HEIGHT + BORDER_WIDTH); //
 131              		.loc 1 31 107 is_stmt 1 discriminator 2 view .LVU27
 132 0058 0134     		adds	r4, r4, #1
 133              	.LVL12:
  31:Core/Src/display.c ****         ssd1306_SetCursor(BORDER_WIDTH, (k - first_visible_index) * LINE_HEIGHT + BORDER_WIDTH); //
 134              		.loc 1 31 107 is_stmt 0 discriminator 2 view .LVU28
 135 005a E4B2     		uxtb	r4, r4
 136              	.LVL13:
 137              	.L4:
  31:Core/Src/display.c ****         ssd1306_SetCursor(BORDER_WIDTH, (k - first_visible_index) * LINE_HEIGHT + BORDER_WIDTH); //
 138              		.loc 1 31 58 is_stmt 1 discriminator 1 view .LVU29
 139 005c BC42     		cmp	r4, r7
 140 005e 32D2     		bcs	.L14
  31:Core/Src/display.c ****         ssd1306_SetCursor(BORDER_WIDTH, (k - first_visible_index) * LINE_HEIGHT + BORDER_WIDTH); //
 141              		.loc 1 31 85 is_stmt 0 discriminator 3 view .LVU30
 142 0060 1B4B     		ldr	r3, .L21
 143 0062 1B78     		ldrb	r3, [r3]	@ zero_extendqisi2
 144 0064 5A1D     		adds	r2, r3, #5
  31:Core/Src/display.c ****         ssd1306_SetCursor(BORDER_WIDTH, (k - first_visible_index) * LINE_HEIGHT + BORDER_WIDTH); //
 145              		.loc 1 31 58 discriminator 3 view .LVU31
 146 0066 9442     		cmp	r4, r2
 147 0068 12DA     		bge	.L17
  32:Core/Src/display.c ****         if (k == cursor_index) {
 148              		.loc 1 32 9 is_stmt 1 view .LVU32
 149 006a E31A     		subs	r3, r4, r3
 150 006c 03EB8303 		add	r3, r3, r3, lsl #2
 151 0070 5900     		lsls	r1, r3, #1
 152 0072 0131     		adds	r1, r1, #1
 153 0074 C9B2     		uxtb	r1, r1
 154 0076 0120     		movs	r0, #1
 155 0078 FFF7FEFF 		bl	ssd1306_SetCursor
 156              	.LVL14:
  33:Core/Src/display.c ****             // Write the line with cursor_index
 157              		.loc 1 33 9 view .LVU33
  33:Core/Src/display.c ****             // Write the line with cursor_index
 158              		.loc 1 33 12 is_stmt 0 view .LVU34
 159 007c AC42     		cmp	r4, r5
 160 007e DCD0     		beq	.L18
  38:Core/Src/display.c ****         } else {
  39:Core/Src/display.c ****             ssd1306_WriteString(strings[k], Font_7x10, White);
 161              		.loc 1 39 13 is_stmt 1 view .LVU35
 162 0080 154A     		ldr	r2, .L21+8
 163 0082 0123     		movs	r3, #1
 164 0084 06CA     		ldm	r2, {r1, r2}
 165 0086 56F82400 		ldr	r0, [r6, r4, lsl #2]
 166 008a FFF7FEFF 		bl	ssd1306_WriteString
 167              	.LVL15:
 168 008e E3E7     		b	.L6
 169              	.L17:
 170              		.loc 1 39 13 is_stmt 0 view .LVU36
 171 0090 0025     		movs	r5, #0
 172              	.LVL16:
 173              		.loc 1 39 13 view .LVU37
ARM GAS  C:\Users\jonas\AppData\Local\Temp\cchKZQb1.s 			page 5


 174 0092 13E0     		b	.L12
 175              	.LVL17:
 176              	.L9:
 177              		.loc 1 39 13 view .LVU38
 178              	.LBE4:
 179              	.LBB5:
 180              	.LBB6:
  40:Core/Src/display.c ****         }
  41:Core/Src/display.c ****     }
  42:Core/Src/display.c **** 
  43:Core/Src/display.c ****     // Draw border around the list section
  44:Core/Src/display.c ****     for (uint8_t i = 0; i < DISPLAY_WIDTH; i++) {
  45:Core/Src/display.c ****         for (uint8_t j = 0; j < LIST_SECTION_HEIGHT; j++) {
  46:Core/Src/display.c ****             if (j < BORDER_WIDTH || j >= LIST_SECTION_HEIGHT - BORDER_WIDTH || i < BORDER_WIDTH || 
  47:Core/Src/display.c ****                 ssd1306_DrawPixel(i, j, White);
 181              		.loc 1 47 17 is_stmt 1 view .LVU39
 182 0094 0122     		movs	r2, #1
 183 0096 2146     		mov	r1, r4
 184 0098 2846     		mov	r0, r5
 185 009a FFF7FEFF 		bl	ssd1306_DrawPixel
 186              	.LVL18:
 187              	.L10:
  45:Core/Src/display.c ****             if (j < BORDER_WIDTH || j >= LIST_SECTION_HEIGHT - BORDER_WIDTH || i < BORDER_WIDTH || 
 188              		.loc 1 45 55 discriminator 2 view .LVU40
 189 009e 0134     		adds	r4, r4, #1
 190              	.LVL19:
  45:Core/Src/display.c ****             if (j < BORDER_WIDTH || j >= LIST_SECTION_HEIGHT - BORDER_WIDTH || i < BORDER_WIDTH || 
 191              		.loc 1 45 55 is_stmt 0 discriminator 2 view .LVU41
 192 00a0 E4B2     		uxtb	r4, r4
 193              	.LVL20:
 194              	.L13:
  45:Core/Src/display.c ****             if (j < BORDER_WIDTH || j >= LIST_SECTION_HEIGHT - BORDER_WIDTH || i < BORDER_WIDTH || 
 195              		.loc 1 45 31 is_stmt 1 discriminator 1 view .LVU42
 196 00a2 322C     		cmp	r4, #50
 197 00a4 08D8     		bhi	.L19
  46:Core/Src/display.c ****                 ssd1306_DrawPixel(i, j, White);
 198              		.loc 1 46 13 view .LVU43
  46:Core/Src/display.c ****                 ssd1306_DrawPixel(i, j, White);
 199              		.loc 1 46 34 is_stmt 0 view .LVU44
 200 00a6 631E     		subs	r3, r4, #1
 201 00a8 DBB2     		uxtb	r3, r3
  46:Core/Src/display.c ****                 ssd1306_DrawPixel(i, j, White);
 202              		.loc 1 46 16 view .LVU45
 203 00aa 302B     		cmp	r3, #48
 204 00ac F2D8     		bhi	.L9
  46:Core/Src/display.c ****                 ssd1306_DrawPixel(i, j, White);
 205              		.loc 1 46 77 discriminator 1 view .LVU46
 206 00ae 002D     		cmp	r5, #0
 207 00b0 F0D0     		beq	.L9
  46:Core/Src/display.c ****                 ssd1306_DrawPixel(i, j, White);
 208              		.loc 1 46 97 discriminator 2 view .LVU47
 209 00b2 7E2D     		cmp	r5, #126
 210 00b4 F3D9     		bls	.L10
 211 00b6 EDE7     		b	.L9
 212              	.L19:
 213              	.LBE6:
  44:Core/Src/display.c ****         for (uint8_t j = 0; j < LIST_SECTION_HEIGHT; j++) {
ARM GAS  C:\Users\jonas\AppData\Local\Temp\cchKZQb1.s 			page 6


 214              		.loc 1 44 45 is_stmt 1 discriminator 2 view .LVU48
 215 00b8 0135     		adds	r5, r5, #1
 216              	.LVL21:
  44:Core/Src/display.c ****         for (uint8_t j = 0; j < LIST_SECTION_HEIGHT; j++) {
 217              		.loc 1 44 45 is_stmt 0 discriminator 2 view .LVU49
 218 00ba EDB2     		uxtb	r5, r5
 219              	.LVL22:
 220              	.L12:
  44:Core/Src/display.c ****         for (uint8_t j = 0; j < LIST_SECTION_HEIGHT; j++) {
 221              		.loc 1 44 27 is_stmt 1 discriminator 1 view .LVU50
 222 00bc 15F0800F 		tst	r5, #128
 223 00c0 03D1     		bne	.L20
 224              	.LBB7:
  45:Core/Src/display.c ****             if (j < BORDER_WIDTH || j >= LIST_SECTION_HEIGHT - BORDER_WIDTH || i < BORDER_WIDTH || 
 225              		.loc 1 45 22 is_stmt 0 view .LVU51
 226 00c2 0024     		movs	r4, #0
 227 00c4 EDE7     		b	.L13
 228              	.LVL23:
 229              	.L14:
  45:Core/Src/display.c ****             if (j < BORDER_WIDTH || j >= LIST_SECTION_HEIGHT - BORDER_WIDTH || i < BORDER_WIDTH || 
 230              		.loc 1 45 22 view .LVU52
 231              	.LBE7:
 232              	.LBE5:
 233              	.LBB8:
 234 00c6 0025     		movs	r5, #0
 235 00c8 F8E7     		b	.L12
 236              	.LVL24:
 237              	.L20:
  45:Core/Src/display.c ****             if (j < BORDER_WIDTH || j >= LIST_SECTION_HEIGHT - BORDER_WIDTH || i < BORDER_WIDTH || 
 238              		.loc 1 45 22 view .LVU53
 239              	.LBE8:
  48:Core/Src/display.c ****             }
  49:Core/Src/display.c ****         }
  50:Core/Src/display.c ****     }
  51:Core/Src/display.c **** }
 240              		.loc 1 51 1 view .LVU54
 241 00ca 23B0     		add	sp, sp, #140
 242              		.cfi_def_cfa_offset 20
 243              		@ sp needed
 244 00cc F0BD     		pop	{r4, r5, r6, r7, pc}
 245              	.LVL25:
 246              	.L22:
 247              		.loc 1 51 1 view .LVU55
 248 00ce 00BF     		.align	2
 249              	.L21:
 250 00d0 00000000 		.word	first_visible_index
 251 00d4 00000000 		.word	.LC0
 252 00d8 00000000 		.word	Font_7x10
 253              		.cfi_endproc
 254              	.LFE134:
 256              		.section	.text.scrollUp,"ax",%progbits
 257              		.align	1
 258              		.global	scrollUp
 259              		.syntax unified
 260              		.thumb
 261              		.thumb_func
 263              	scrollUp:
ARM GAS  C:\Users\jonas\AppData\Local\Temp\cchKZQb1.s 			page 7


 264              	.LFB135:
  52:Core/Src/display.c **** 
  53:Core/Src/display.c **** // Function to scroll the list up by one line
  54:Core/Src/display.c **** void scrollUp() {
 265              		.loc 1 54 17 is_stmt 1 view -0
 266              		.cfi_startproc
 267              		@ args = 0, pretend = 0, frame = 0
 268              		@ frame_needed = 0, uses_anonymous_args = 0
 269              		@ link register save eliminated.
  55:Core/Src/display.c ****     if (first_visible_index > 0) {
 270              		.loc 1 55 5 view .LVU57
 271              		.loc 1 55 29 is_stmt 0 view .LVU58
 272 0000 034B     		ldr	r3, .L25
 273 0002 1B78     		ldrb	r3, [r3]	@ zero_extendqisi2
 274              		.loc 1 55 8 view .LVU59
 275 0004 13B1     		cbz	r3, .L23
  56:Core/Src/display.c ****         first_visible_index--;
 276              		.loc 1 56 9 is_stmt 1 view .LVU60
 277              		.loc 1 56 28 is_stmt 0 view .LVU61
 278 0006 013B     		subs	r3, r3, #1
 279 0008 014A     		ldr	r2, .L25
 280 000a 1370     		strb	r3, [r2]
 281              	.L23:
  57:Core/Src/display.c ****     }
  58:Core/Src/display.c **** }
 282              		.loc 1 58 1 view .LVU62
 283 000c 7047     		bx	lr
 284              	.L26:
 285 000e 00BF     		.align	2
 286              	.L25:
 287 0010 00000000 		.word	first_visible_index
 288              		.cfi_endproc
 289              	.LFE135:
 291              		.section	.text.scrollDown,"ax",%progbits
 292              		.align	1
 293              		.global	scrollDown
 294              		.syntax unified
 295              		.thumb
 296              		.thumb_func
 298              	scrollDown:
 299              	.LVL26:
 300              	.LFB136:
  59:Core/Src/display.c **** 
  60:Core/Src/display.c **** // Function to scroll the list down by one line
  61:Core/Src/display.c **** void scrollDown(uint8_t numStrings) {
 301              		.loc 1 61 37 is_stmt 1 view -0
 302              		.cfi_startproc
 303              		@ args = 0, pretend = 0, frame = 0
 304              		@ frame_needed = 0, uses_anonymous_args = 0
 305              		@ link register save eliminated.
  62:Core/Src/display.c ****     if (first_visible_index + num_visible_lines < numStrings) {
 306              		.loc 1 62 5 view .LVU64
 307              		.loc 1 62 29 is_stmt 0 view .LVU65
 308 0000 044B     		ldr	r3, .L29
 309 0002 1B78     		ldrb	r3, [r3]	@ zero_extendqisi2
 310 0004 5A1D     		adds	r2, r3, #5
 311              		.loc 1 62 8 view .LVU66
ARM GAS  C:\Users\jonas\AppData\Local\Temp\cchKZQb1.s 			page 8


 312 0006 8242     		cmp	r2, r0
 313 0008 02DA     		bge	.L27
  63:Core/Src/display.c ****         first_visible_index++;
 314              		.loc 1 63 9 is_stmt 1 view .LVU67
 315              		.loc 1 63 28 is_stmt 0 view .LVU68
 316 000a 0133     		adds	r3, r3, #1
 317 000c 014A     		ldr	r2, .L29
 318 000e 1370     		strb	r3, [r2]
 319              	.L27:
  64:Core/Src/display.c ****     }
  65:Core/Src/display.c **** }
 320              		.loc 1 65 1 view .LVU69
 321 0010 7047     		bx	lr
 322              	.L30:
 323 0012 00BF     		.align	2
 324              	.L29:
 325 0014 00000000 		.word	first_visible_index
 326              		.cfi_endproc
 327              	.LFE136:
 329              		.section	.text.renderSelectedFile,"ax",%progbits
 330              		.align	1
 331              		.global	renderSelectedFile
 332              		.syntax unified
 333              		.thumb
 334              		.thumb_func
 336              	renderSelectedFile:
 337              	.LVL27:
 338              	.LFB137:
  66:Core/Src/display.c **** 
  67:Core/Src/display.c **** void renderSelectedFile(I2C_HandleTypeDef *hi2c1, const char *filename) {
 339              		.loc 1 67 73 is_stmt 1 view -0
 340              		.cfi_startproc
 341              		@ args = 0, pretend = 0, frame = 0
 342              		@ frame_needed = 0, uses_anonymous_args = 0
 343              		.loc 1 67 73 is_stmt 0 view .LVU71
 344 0000 70B5     		push	{r4, r5, r6, lr}
 345              		.cfi_def_cfa_offset 16
 346              		.cfi_offset 4, -16
 347              		.cfi_offset 5, -12
 348              		.cfi_offset 6, -8
 349              		.cfi_offset 14, -4
 350 0002 0E46     		mov	r6, r1
  68:Core/Src/display.c ****     // Clear the selected file section of the screen
  69:Core/Src/display.c ****     for (uint8_t i = 0; i < DISPLAY_WIDTH; i++) {
 351              		.loc 1 69 5 is_stmt 1 view .LVU72
 352              	.LBB9:
 353              		.loc 1 69 10 view .LVU73
 354              	.LVL28:
 355              		.loc 1 69 18 is_stmt 0 view .LVU74
 356 0004 0025     		movs	r5, #0
 357              		.loc 1 69 5 view .LVU75
 358 0006 0AE0     		b	.L32
 359              	.LVL29:
 360              	.L33:
 361              	.LBB10:
  70:Core/Src/display.c ****         for (uint8_t j = LIST_SECTION_HEIGHT; j < DISPLAY_HEIGHT; j++) {
  71:Core/Src/display.c ****             ssd1306_DrawPixel(i, j, Black);
ARM GAS  C:\Users\jonas\AppData\Local\Temp\cchKZQb1.s 			page 9


 362              		.loc 1 71 13 is_stmt 1 view .LVU76
 363 0008 0022     		movs	r2, #0
 364 000a 2146     		mov	r1, r4
 365 000c 2846     		mov	r0, r5
 366 000e FFF7FEFF 		bl	ssd1306_DrawPixel
 367              	.LVL30:
  70:Core/Src/display.c ****         for (uint8_t j = LIST_SECTION_HEIGHT; j < DISPLAY_HEIGHT; j++) {
 368              		.loc 1 70 68 discriminator 3 view .LVU77
 369 0012 0134     		adds	r4, r4, #1
 370              	.LVL31:
  70:Core/Src/display.c ****         for (uint8_t j = LIST_SECTION_HEIGHT; j < DISPLAY_HEIGHT; j++) {
 371              		.loc 1 70 68 is_stmt 0 discriminator 3 view .LVU78
 372 0014 E4B2     		uxtb	r4, r4
 373              	.LVL32:
 374              	.L34:
  70:Core/Src/display.c ****         for (uint8_t j = LIST_SECTION_HEIGHT; j < DISPLAY_HEIGHT; j++) {
 375              		.loc 1 70 49 is_stmt 1 discriminator 1 view .LVU79
 376 0016 3F2C     		cmp	r4, #63
 377 0018 F6D9     		bls	.L33
 378              	.LBE10:
  69:Core/Src/display.c ****         for (uint8_t j = LIST_SECTION_HEIGHT; j < DISPLAY_HEIGHT; j++) {
 379              		.loc 1 69 45 discriminator 2 view .LVU80
 380 001a 0135     		adds	r5, r5, #1
 381              	.LVL33:
  69:Core/Src/display.c ****         for (uint8_t j = LIST_SECTION_HEIGHT; j < DISPLAY_HEIGHT; j++) {
 382              		.loc 1 69 45 is_stmt 0 discriminator 2 view .LVU81
 383 001c EDB2     		uxtb	r5, r5
 384              	.LVL34:
 385              	.L32:
  69:Core/Src/display.c ****         for (uint8_t j = LIST_SECTION_HEIGHT; j < DISPLAY_HEIGHT; j++) {
 386              		.loc 1 69 27 is_stmt 1 discriminator 1 view .LVU82
 387 001e 15F0800F 		tst	r5, #128
 388 0022 01D1     		bne	.L37
 389              	.LBB11:
  70:Core/Src/display.c ****         for (uint8_t j = LIST_SECTION_HEIGHT; j < DISPLAY_HEIGHT; j++) {
 390              		.loc 1 70 22 is_stmt 0 view .LVU83
 391 0024 3324     		movs	r4, #51
 392 0026 F6E7     		b	.L34
 393              	.L37:
 394              	.LBE11:
 395              	.LBE9:
  72:Core/Src/display.c ****         }
  73:Core/Src/display.c ****     }
  74:Core/Src/display.c **** 
  75:Core/Src/display.c ****     // Write the selected file name in the selected file section
  76:Core/Src/display.c ****     ssd1306_SetCursor(0, LIST_SECTION_HEIGHT + 2); // Adjust Y position for text alignment
 396              		.loc 1 76 5 is_stmt 1 view .LVU84
 397 0028 3521     		movs	r1, #53
 398 002a 0020     		movs	r0, #0
 399 002c FFF7FEFF 		bl	ssd1306_SetCursor
 400              	.LVL35:
  77:Core/Src/display.c ****     ssd1306_WriteString(filename, Font_7x10, White);
 401              		.loc 1 77 5 view .LVU85
 402 0030 034A     		ldr	r2, .L38
 403 0032 0123     		movs	r3, #1
 404 0034 06CA     		ldm	r2, {r1, r2}
 405 0036 3046     		mov	r0, r6
ARM GAS  C:\Users\jonas\AppData\Local\Temp\cchKZQb1.s 			page 10


 406 0038 FFF7FEFF 		bl	ssd1306_WriteString
 407              	.LVL36:
  78:Core/Src/display.c **** }
 408              		.loc 1 78 1 is_stmt 0 view .LVU86
 409 003c 70BD     		pop	{r4, r5, r6, pc}
 410              	.LVL37:
 411              	.L39:
 412              		.loc 1 78 1 view .LVU87
 413 003e 00BF     		.align	2
 414              	.L38:
 415 0040 00000000 		.word	Font_7x10
 416              		.cfi_endproc
 417              	.LFE137:
 419              		.section	.bss.first_visible_index,"aw",%nobits
 422              	first_visible_index:
 423 0000 00       		.space	1
 424              		.text
 425              	.Letext0:
 426              		.file 2 "C:/Users/jonas/AppData/Roaming/VSCodium/User/globalStorage/bmd.stm32-for-vscode/@xpack-de
 427              		.file 3 "C:/Users/jonas/AppData/Roaming/VSCodium/User/globalStorage/bmd.stm32-for-vscode/@xpack-de
 428              		.file 4 "Drivers/CMSIS/Device/ST/STM32F4xx/Include/stm32f401xe.h"
 429              		.file 5 "Drivers/STM32F4xx_HAL_Driver/Inc/stm32f4xx_hal_def.h"
 430              		.file 6 "Drivers/STM32F4xx_HAL_Driver/Inc/stm32f4xx_hal_dma.h"
 431              		.file 7 "Drivers/STM32F4xx_HAL_Driver/Inc/stm32f4xx_hal_i2c.h"
 432              		.file 8 "Core/Inc/fonts.h"
 433              		.file 9 "Core/Inc/ssd1306.h"
 434              		.file 10 "<built-in>"
ARM GAS  C:\Users\jonas\AppData\Local\Temp\cchKZQb1.s 			page 11


DEFINED SYMBOLS
                            *ABS*:00000000 display.c
C:\Users\jonas\AppData\Local\Temp\cchKZQb1.s:21     .rodata.displayStrings.str1.4:00000000 $d
C:\Users\jonas\AppData\Local\Temp\cchKZQb1.s:25     .text.displayStrings:00000000 $t
C:\Users\jonas\AppData\Local\Temp\cchKZQb1.s:31     .text.displayStrings:00000000 displayStrings
C:\Users\jonas\AppData\Local\Temp\cchKZQb1.s:250    .text.displayStrings:000000d0 $d
C:\Users\jonas\AppData\Local\Temp\cchKZQb1.s:422    .bss.first_visible_index:00000000 first_visible_index
C:\Users\jonas\AppData\Local\Temp\cchKZQb1.s:257    .text.scrollUp:00000000 $t
C:\Users\jonas\AppData\Local\Temp\cchKZQb1.s:263    .text.scrollUp:00000000 scrollUp
C:\Users\jonas\AppData\Local\Temp\cchKZQb1.s:287    .text.scrollUp:00000010 $d
C:\Users\jonas\AppData\Local\Temp\cchKZQb1.s:292    .text.scrollDown:00000000 $t
C:\Users\jonas\AppData\Local\Temp\cchKZQb1.s:298    .text.scrollDown:00000000 scrollDown
C:\Users\jonas\AppData\Local\Temp\cchKZQb1.s:325    .text.scrollDown:00000014 $d
C:\Users\jonas\AppData\Local\Temp\cchKZQb1.s:330    .text.renderSelectedFile:00000000 $t
C:\Users\jonas\AppData\Local\Temp\cchKZQb1.s:336    .text.renderSelectedFile:00000000 renderSelectedFile
C:\Users\jonas\AppData\Local\Temp\cchKZQb1.s:415    .text.renderSelectedFile:00000040 $d
C:\Users\jonas\AppData\Local\Temp\cchKZQb1.s:423    .bss.first_visible_index:00000000 $d

UNDEFINED SYMBOLS
ssd1306_Fill
snprintf
ssd1306_WriteString
ssd1306_SetCursor
ssd1306_DrawPixel
Font_7x10
