ARM GAS  C:\Users\jonas\AppData\Local\Temp\ccOPzN6j.s 			page 1


   1              		.cpu cortex-m4
   2              		.arch armv7e-m
   3              		.fpu fpv4-sp-d16
   4              		.eabi_attribute 27, 1
   5              		.eabi_attribute 28, 1
   6              		.eabi_attribute 20, 1
   7              		.eabi_attribute 21, 1
   8              		.eabi_attribute 23, 3
   9              		.eabi_attribute 24, 1
  10              		.eabi_attribute 25, 1
  11              		.eabi_attribute 26, 1
  12              		.eabi_attribute 30, 1
  13              		.eabi_attribute 34, 1
  14              		.eabi_attribute 18, 4
  15              		.file	"filemanager.c"
  16              		.text
  17              	.Ltext0:
  18              		.cfi_sections	.debug_frame
  19              		.file 1 "Core/Src/filemanager.c"
  20              		.section	.text.initializeFileManager,"ax",%progbits
  21              		.align	1
  22              		.global	initializeFileManager
  23              		.syntax unified
  24              		.thumb
  25              		.thumb_func
  27              	initializeFileManager:
  28              	.LVL0:
  29              	.LFB137:
   1:Core/Src/filemanager.c **** #include <stdio.h>
   2:Core/Src/filemanager.c **** #include <stdlib.h>
   3:Core/Src/filemanager.c **** #include <string.h>
   4:Core/Src/filemanager.c **** #include "filemanager.h"
   5:Core/Src/filemanager.c **** #include "display.h"
   6:Core/Src/filemanager.c **** 
   7:Core/Src/filemanager.c **** #define MAX_FILES 50
   8:Core/Src/filemanager.c **** #define MAX_FILENAME_LENGTH 20
   9:Core/Src/filemanager.c **** 
  10:Core/Src/filemanager.c **** void initializeFileManager(FileManager *fm) {
  30              		.loc 1 10 45 view -0
  31              		.cfi_startproc
  32              		@ args = 0, pretend = 0, frame = 0
  33              		@ frame_needed = 0, uses_anonymous_args = 0
  34              		@ link register save eliminated.
  11:Core/Src/filemanager.c ****     fm->num_files = 0;
  35              		.loc 1 11 5 view .LVU1
  36              		.loc 1 11 19 is_stmt 0 view .LVU2
  37 0000 0023     		movs	r3, #0
  38 0002 C0F8E833 		str	r3, [r0, #1000]
  12:Core/Src/filemanager.c ****     fm->current_file_index = -1;
  39              		.loc 1 12 5 is_stmt 1 view .LVU3
  40              		.loc 1 12 28 is_stmt 0 view .LVU4
  41 0006 4FF0FF33 		mov	r3, #-1
  42 000a C0F8F033 		str	r3, [r0, #1008]
  13:Core/Src/filemanager.c ****     fm->cursor_index = -1;
  43              		.loc 1 13 5 is_stmt 1 view .LVU5
  44              		.loc 1 13 22 is_stmt 0 view .LVU6
  45 000e C0F8EC33 		str	r3, [r0, #1004]
ARM GAS  C:\Users\jonas\AppData\Local\Temp\ccOPzN6j.s 			page 2


  14:Core/Src/filemanager.c **** }
  46              		.loc 1 14 1 view .LVU7
  47 0012 7047     		bx	lr
  48              		.cfi_endproc
  49              	.LFE137:
  51              		.section	.text.addFile,"ax",%progbits
  52              		.align	1
  53              		.global	addFile
  54              		.syntax unified
  55              		.thumb
  56              		.thumb_func
  58              	addFile:
  59              	.LVL1:
  60              	.LFB138:
  15:Core/Src/filemanager.c **** 
  16:Core/Src/filemanager.c **** void addFile(FileManager *fm, const char *filename) {
  61              		.loc 1 16 53 is_stmt 1 view -0
  62              		.cfi_startproc
  63              		@ args = 0, pretend = 0, frame = 0
  64              		@ frame_needed = 0, uses_anonymous_args = 0
  65              		.loc 1 16 53 is_stmt 0 view .LVU9
  66 0000 10B5     		push	{r4, lr}
  67              		.cfi_def_cfa_offset 8
  68              		.cfi_offset 4, -8
  69              		.cfi_offset 14, -4
  70 0002 0446     		mov	r4, r0
  17:Core/Src/filemanager.c ****     if (fm->num_files < MAX_FILES) {
  71              		.loc 1 17 5 is_stmt 1 view .LVU10
  72              		.loc 1 17 11 is_stmt 0 view .LVU11
  73 0004 D0F8E803 		ldr	r0, [r0, #1000]
  74              	.LVL2:
  75              		.loc 1 17 8 view .LVU12
  76 0008 3128     		cmp	r0, #49
  77 000a 00DD     		ble	.L5
  78              	.LVL3:
  79              	.L2:
  18:Core/Src/filemanager.c ****         strcpy(fm->files[fm->num_files].filename, filename);
  19:Core/Src/filemanager.c ****         fm->num_files++;
  20:Core/Src/filemanager.c ****         if(fm->num_files == 1)
  21:Core/Src/filemanager.c ****             fm->cursor_index = 0;
  22:Core/Src/filemanager.c ****     }
  23:Core/Src/filemanager.c **** }
  80              		.loc 1 23 1 view .LVU13
  81 000c 10BD     		pop	{r4, pc}
  82              	.LVL4:
  83              	.L5:
  18:Core/Src/filemanager.c ****         strcpy(fm->files[fm->num_files].filename, filename);
  84              		.loc 1 18 9 is_stmt 1 view .LVU14
  18:Core/Src/filemanager.c ****         strcpy(fm->files[fm->num_files].filename, filename);
  85              		.loc 1 18 40 is_stmt 0 view .LVU15
  86 000e 00EB8000 		add	r0, r0, r0, lsl #2
  18:Core/Src/filemanager.c ****         strcpy(fm->files[fm->num_files].filename, filename);
  87              		.loc 1 18 9 view .LVU16
  88 0012 04EB8000 		add	r0, r4, r0, lsl #2
  89 0016 FFF7FEFF 		bl	strcpy
  90              	.LVL5:
  19:Core/Src/filemanager.c ****         if(fm->num_files == 1)
ARM GAS  C:\Users\jonas\AppData\Local\Temp\ccOPzN6j.s 			page 3


  91              		.loc 1 19 9 is_stmt 1 view .LVU17
  19:Core/Src/filemanager.c ****         if(fm->num_files == 1)
  92              		.loc 1 19 11 is_stmt 0 view .LVU18
  93 001a D4F8E833 		ldr	r3, [r4, #1000]
  19:Core/Src/filemanager.c ****         if(fm->num_files == 1)
  94              		.loc 1 19 22 view .LVU19
  95 001e 0133     		adds	r3, r3, #1
  96 0020 C4F8E833 		str	r3, [r4, #1000]
  20:Core/Src/filemanager.c ****             fm->cursor_index = 0;
  97              		.loc 1 20 9 is_stmt 1 view .LVU20
  20:Core/Src/filemanager.c ****             fm->cursor_index = 0;
  98              		.loc 1 20 11 is_stmt 0 view .LVU21
  99 0024 012B     		cmp	r3, #1
 100 0026 F1D1     		bne	.L2
  21:Core/Src/filemanager.c ****     }
 101              		.loc 1 21 13 is_stmt 1 view .LVU22
  21:Core/Src/filemanager.c ****     }
 102              		.loc 1 21 30 is_stmt 0 view .LVU23
 103 0028 0023     		movs	r3, #0
 104 002a C4F8EC33 		str	r3, [r4, #1004]
 105              		.loc 1 23 1 view .LVU24
 106 002e EDE7     		b	.L2
 107              		.cfi_endproc
 108              	.LFE138:
 110              		.section	.text.cursorUp,"ax",%progbits
 111              		.align	1
 112              		.global	cursorUp
 113              		.syntax unified
 114              		.thumb
 115              		.thumb_func
 117              	cursorUp:
 118              	.LVL6:
 119              	.LFB139:
  24:Core/Src/filemanager.c **** 
  25:Core/Src/filemanager.c **** void cursorUp(FileManager *fm){
 120              		.loc 1 25 31 is_stmt 1 view -0
 121              		.cfi_startproc
 122              		@ args = 0, pretend = 0, frame = 0
 123              		@ frame_needed = 0, uses_anonymous_args = 0
 124              		@ link register save eliminated.
  26:Core/Src/filemanager.c ****     if (fm->cursor_index > 0) {
 125              		.loc 1 26 5 view .LVU26
 126              		.loc 1 26 11 is_stmt 0 view .LVU27
 127 0000 D0F8EC33 		ldr	r3, [r0, #1004]
 128              		.loc 1 26 8 view .LVU28
 129 0004 002B     		cmp	r3, #0
 130 0006 03DD     		ble	.L7
  27:Core/Src/filemanager.c ****         fm->cursor_index--;
 131              		.loc 1 27 9 is_stmt 1 view .LVU29
 132              		.loc 1 27 25 is_stmt 0 view .LVU30
 133 0008 013B     		subs	r3, r3, #1
 134 000a C0F8EC33 		str	r3, [r0, #1004]
 135 000e 7047     		bx	lr
 136              	.L7:
  28:Core/Src/filemanager.c ****     } else {
  29:Core/Src/filemanager.c ****         fm->cursor_index = fm->num_files - 1 ;
 137              		.loc 1 29 9 is_stmt 1 view .LVU31
ARM GAS  C:\Users\jonas\AppData\Local\Temp\ccOPzN6j.s 			page 4


 138              		.loc 1 29 30 is_stmt 0 view .LVU32
 139 0010 D0F8E833 		ldr	r3, [r0, #1000]
 140              		.loc 1 29 42 view .LVU33
 141 0014 013B     		subs	r3, r3, #1
 142              		.loc 1 29 26 view .LVU34
 143 0016 C0F8EC33 		str	r3, [r0, #1004]
  30:Core/Src/filemanager.c ****     }
  31:Core/Src/filemanager.c **** }
 144              		.loc 1 31 1 view .LVU35
 145 001a 7047     		bx	lr
 146              		.cfi_endproc
 147              	.LFE139:
 149              		.section	.text.cursorDown,"ax",%progbits
 150              		.align	1
 151              		.global	cursorDown
 152              		.syntax unified
 153              		.thumb
 154              		.thumb_func
 156              	cursorDown:
 157              	.LVL7:
 158              	.LFB140:
  32:Core/Src/filemanager.c **** 
  33:Core/Src/filemanager.c **** void cursorDown(FileManager *fm){
 159              		.loc 1 33 33 is_stmt 1 view -0
 160              		.cfi_startproc
 161              		@ args = 0, pretend = 0, frame = 0
 162              		@ frame_needed = 0, uses_anonymous_args = 0
 163              		@ link register save eliminated.
  34:Core/Src/filemanager.c ****     if (fm->cursor_index < fm->num_files - 1) {
 164              		.loc 1 34 5 view .LVU37
 165              		.loc 1 34 11 is_stmt 0 view .LVU38
 166 0000 D0F8EC23 		ldr	r2, [r0, #1004]
 167              		.loc 1 34 30 view .LVU39
 168 0004 D0F8E833 		ldr	r3, [r0, #1000]
 169              		.loc 1 34 42 view .LVU40
 170 0008 013B     		subs	r3, r3, #1
 171              		.loc 1 34 8 view .LVU41
 172 000a 9A42     		cmp	r2, r3
 173 000c 03DA     		bge	.L10
  35:Core/Src/filemanager.c ****         fm->cursor_index++;
 174              		.loc 1 35 9 is_stmt 1 view .LVU42
 175              		.loc 1 35 25 is_stmt 0 view .LVU43
 176 000e 0132     		adds	r2, r2, #1
 177 0010 C0F8EC23 		str	r2, [r0, #1004]
 178 0014 7047     		bx	lr
 179              	.L10:
  36:Core/Src/filemanager.c ****     } else {
  37:Core/Src/filemanager.c ****         fm->cursor_index = 0;
 180              		.loc 1 37 9 is_stmt 1 view .LVU44
 181              		.loc 1 37 26 is_stmt 0 view .LVU45
 182 0016 0023     		movs	r3, #0
 183 0018 C0F8EC33 		str	r3, [r0, #1004]
  38:Core/Src/filemanager.c ****     }
  39:Core/Src/filemanager.c **** }
 184              		.loc 1 39 1 view .LVU46
 185 001c 7047     		bx	lr
 186              		.cfi_endproc
ARM GAS  C:\Users\jonas\AppData\Local\Temp\ccOPzN6j.s 			page 5


 187              	.LFE140:
 189              		.section	.text.selectFile,"ax",%progbits
 190              		.align	1
 191              		.global	selectFile
 192              		.syntax unified
 193              		.thumb
 194              		.thumb_func
 196              	selectFile:
 197              	.LVL8:
 198              	.LFB141:
  40:Core/Src/filemanager.c **** 
  41:Core/Src/filemanager.c **** void selectFile(FileManager *fm) {
 199              		.loc 1 41 34 is_stmt 1 view -0
 200              		.cfi_startproc
 201              		@ args = 0, pretend = 0, frame = 0
 202              		@ frame_needed = 0, uses_anonymous_args = 0
 203              		@ link register save eliminated.
  42:Core/Src/filemanager.c ****     fm->current_file_index = fm->cursor_index;
 204              		.loc 1 42 5 view .LVU48
 205              		.loc 1 42 32 is_stmt 0 view .LVU49
 206 0000 D0F8EC33 		ldr	r3, [r0, #1004]
 207              		.loc 1 42 28 view .LVU50
 208 0004 C0F8F033 		str	r3, [r0, #1008]
  43:Core/Src/filemanager.c **** }...
 209              		.loc 1 43 1 view .LVU51
 210 0008 7047     		bx	lr
 211              		.cfi_endproc
 212              	.LFE141:
 214              		.text
 215              	.Letext0:
 216              		.file 2 "Core/Inc/filemanager.h"
 217              		.file 3 "C:/Users/jonas/AppData/Roaming/VSCodium/User/globalStorage/bmd.stm32-for-vscode/@xpack-de
ARM GAS  C:\Users\jonas\AppData\Local\Temp\ccOPzN6j.s 			page 6


DEFINED SYMBOLS
                            *ABS*:00000000 filemanager.c
C:\Users\jonas\AppData\Local\Temp\ccOPzN6j.s:21     .text.initializeFileManager:00000000 $t
C:\Users\jonas\AppData\Local\Temp\ccOPzN6j.s:27     .text.initializeFileManager:00000000 initializeFileManager
C:\Users\jonas\AppData\Local\Temp\ccOPzN6j.s:52     .text.addFile:00000000 $t
C:\Users\jonas\AppData\Local\Temp\ccOPzN6j.s:58     .text.addFile:00000000 addFile
C:\Users\jonas\AppData\Local\Temp\ccOPzN6j.s:111    .text.cursorUp:00000000 $t
C:\Users\jonas\AppData\Local\Temp\ccOPzN6j.s:117    .text.cursorUp:00000000 cursorUp
C:\Users\jonas\AppData\Local\Temp\ccOPzN6j.s:150    .text.cursorDown:00000000 $t
C:\Users\jonas\AppData\Local\Temp\ccOPzN6j.s:156    .text.cursorDown:00000000 cursorDown
C:\Users\jonas\AppData\Local\Temp\ccOPzN6j.s:190    .text.selectFile:00000000 $t
C:\Users\jonas\AppData\Local\Temp\ccOPzN6j.s:196    .text.selectFile:00000000 selectFile

UNDEFINED SYMBOLS
strcpy
