ARM GAS  C:\Users\jonas\AppData\Local\Temp\cc2DSf1x.s 			page 1


   1              		.cpu cortex-m4
   2              		.arch armv7e-m
   3              		.fpu fpv4-sp-d16
   4              		.eabi_attribute 27, 1
   5              		.eabi_attribute 28, 1
   6              		.eabi_attribute 20, 1
   7              		.eabi_attribute 21, 1
   8              		.eabi_attribute 23, 3
   9              		.eabi_attribute 24, 1
  10              		.eabi_attribute 25, 1
  11              		.eabi_attribute 26, 1
  12              		.eabi_attribute 30, 1
  13              		.eabi_attribute 34, 1
  14              		.eabi_attribute 18, 4
  15              		.file	"filemanager.c"
  16              		.text
  17              	.Ltext0:
  18              		.cfi_sections	.debug_frame
  19              		.file 1 "Core/Src/filemanager.c"
  20              		.section	.text.initializeFileManager,"ax",%progbits
  21              		.align	1
  22              		.global	initializeFileManager
  23              		.syntax unified
  24              		.thumb
  25              		.thumb_func
  27              	initializeFileManager:
  28              	.LVL0:
  29              	.LFB3:
   1:Core/Src/filemanager.c **** #include <stdio.h>
   2:Core/Src/filemanager.c **** #include <stdlib.h>
   3:Core/Src/filemanager.c **** #include <string.h>
   4:Core/Src/filemanager.c **** #include "filemanager.h"
   5:Core/Src/filemanager.c **** 
   6:Core/Src/filemanager.c **** #define MAX_FILES 50
   7:Core/Src/filemanager.c **** #define MAX_FILENAME_LENGTH 20
   8:Core/Src/filemanager.c **** 
   9:Core/Src/filemanager.c **** void initializeFileManager(FileManager *fm) {
  30              		.loc 1 9 45 view -0
  31              		.cfi_startproc
  32              		@ args = 0, pretend = 0, frame = 0
  33              		@ frame_needed = 0, uses_anonymous_args = 0
  34              		@ link register save eliminated.
  10:Core/Src/filemanager.c ****     fm->num_files = 0;
  35              		.loc 1 10 5 view .LVU1
  36              		.loc 1 10 19 is_stmt 0 view .LVU2
  37 0000 0023     		movs	r3, #0
  38 0002 C0F8E833 		str	r3, [r0, #1000]
  11:Core/Src/filemanager.c ****     fm->current_file_index = -1;
  39              		.loc 1 11 5 is_stmt 1 view .LVU3
  40              		.loc 1 11 28 is_stmt 0 view .LVU4
  41 0006 4FF0FF33 		mov	r3, #-1
  42 000a C0F8EC33 		str	r3, [r0, #1004]
  12:Core/Src/filemanager.c **** }
  43              		.loc 1 12 1 view .LVU5
  44 000e 7047     		bx	lr
  45              		.cfi_endproc
  46              	.LFE3:
ARM GAS  C:\Users\jonas\AppData\Local\Temp\cc2DSf1x.s 			page 2


  48              		.section	.text.addFile,"ax",%progbits
  49              		.align	1
  50              		.global	addFile
  51              		.syntax unified
  52              		.thumb
  53              		.thumb_func
  55              	addFile:
  56              	.LVL1:
  57              	.LFB4:
  13:Core/Src/filemanager.c **** 
  14:Core/Src/filemanager.c **** void addFile(FileManager *fm, const char *filename) {
  58              		.loc 1 14 53 is_stmt 1 view -0
  59              		.cfi_startproc
  60              		@ args = 0, pretend = 0, frame = 0
  61              		@ frame_needed = 0, uses_anonymous_args = 0
  62              		.loc 1 14 53 is_stmt 0 view .LVU7
  63 0000 10B5     		push	{r4, lr}
  64              		.cfi_def_cfa_offset 8
  65              		.cfi_offset 4, -8
  66              		.cfi_offset 14, -4
  67 0002 0446     		mov	r4, r0
  15:Core/Src/filemanager.c ****     if (fm->num_files < MAX_FILES) {
  68              		.loc 1 15 5 is_stmt 1 view .LVU8
  69              		.loc 1 15 11 is_stmt 0 view .LVU9
  70 0004 D0F8E803 		ldr	r0, [r0, #1000]
  71              	.LVL2:
  72              		.loc 1 15 8 view .LVU10
  73 0008 3128     		cmp	r0, #49
  74 000a 00DD     		ble	.L5
  75              	.LVL3:
  76              	.L2:
  16:Core/Src/filemanager.c ****         strcpy(fm->files[fm->num_files].filename, filename);
  17:Core/Src/filemanager.c ****         fm->num_files++;
  18:Core/Src/filemanager.c ****     }
  19:Core/Src/filemanager.c **** }
  77              		.loc 1 19 1 view .LVU11
  78 000c 10BD     		pop	{r4, pc}
  79              	.LVL4:
  80              	.L5:
  16:Core/Src/filemanager.c ****         strcpy(fm->files[fm->num_files].filename, filename);
  81              		.loc 1 16 9 is_stmt 1 view .LVU12
  16:Core/Src/filemanager.c ****         strcpy(fm->files[fm->num_files].filename, filename);
  82              		.loc 1 16 40 is_stmt 0 view .LVU13
  83 000e 00EB8000 		add	r0, r0, r0, lsl #2
  16:Core/Src/filemanager.c ****         strcpy(fm->files[fm->num_files].filename, filename);
  84              		.loc 1 16 9 view .LVU14
  85 0012 04EB8000 		add	r0, r4, r0, lsl #2
  86 0016 FFF7FEFF 		bl	strcpy
  87              	.LVL5:
  17:Core/Src/filemanager.c ****     }
  88              		.loc 1 17 9 is_stmt 1 view .LVU15
  17:Core/Src/filemanager.c ****     }
  89              		.loc 1 17 11 is_stmt 0 view .LVU16
  90 001a D4F8E833 		ldr	r3, [r4, #1000]
  17:Core/Src/filemanager.c ****     }
  91              		.loc 1 17 22 view .LVU17
  92 001e 0133     		adds	r3, r3, #1
ARM GAS  C:\Users\jonas\AppData\Local\Temp\cc2DSf1x.s 			page 3


  93 0020 C4F8E833 		str	r3, [r4, #1000]
  94              		.loc 1 19 1 view .LVU18
  95 0024 F2E7     		b	.L2
  96              		.cfi_endproc
  97              	.LFE4:
  99              		.section	.text.selectFile,"ax",%progbits
 100              		.align	1
 101              		.global	selectFile
 102              		.syntax unified
 103              		.thumb
 104              		.thumb_func
 106              	selectFile:
 107              	.LVL6:
 108              	.LFB5:
  20:Core/Src/filemanager.c **** 
  21:Core/Src/filemanager.c **** void selectFile(FileManager *fm, int index) {
 109              		.loc 1 21 45 is_stmt 1 view -0
 110              		.cfi_startproc
 111              		@ args = 0, pretend = 0, frame = 0
 112              		@ frame_needed = 0, uses_anonymous_args = 0
 113              		@ link register save eliminated.
  22:Core/Src/filemanager.c ****     if (index >= 0 && index < fm->num_files) {
 114              		.loc 1 22 5 view .LVU20
 115              		.loc 1 22 8 is_stmt 0 view .LVU21
 116 0000 0029     		cmp	r1, #0
 117              		.loc 1 22 8 view .LVU22
 118 0002 05DB     		blt	.L6
 119              		.loc 1 22 33 discriminator 1 view .LVU23
 120 0004 D0F8E833 		ldr	r3, [r0, #1000]
 121              		.loc 1 22 20 discriminator 1 view .LVU24
 122 0008 8B42     		cmp	r3, r1
 123 000a 01DD     		ble	.L6
  23:Core/Src/filemanager.c ****         fm->current_file_index = index;
 124              		.loc 1 23 9 is_stmt 1 view .LVU25
 125              		.loc 1 23 32 is_stmt 0 view .LVU26
 126 000c C0F8EC13 		str	r1, [r0, #1004]
 127              	.L6:
  24:Core/Src/filemanager.c ****     }
  25:Core/Src/filemanager.c **** }...
 128              		.loc 1 25 1 view .LVU27
 129 0010 7047     		bx	lr
 130              		.cfi_endproc
 131              	.LFE5:
 133              		.text
 134              	.Letext0:
 135              		.file 2 "Core/Inc/filemanager.h"
 136              		.file 3 "C:/Users/jonas/AppData/Roaming/VSCodium/User/globalStorage/bmd.stm32-for-vscode/@xpack-de
ARM GAS  C:\Users\jonas\AppData\Local\Temp\cc2DSf1x.s 			page 4

