ARM GAS  C:\Users\jonas\AppData\Local\Temp\cc0Pvo13.s 			page 1


   1              		.cpu cortex-m4
   2              		.arch armv7e-m
   3              		.fpu fpv4-sp-d16
   4              		.eabi_attribute 27, 1
   5              		.eabi_attribute 28, 1
   6              		.eabi_attribute 20, 1
   7              		.eabi_attribute 21, 1
   8              		.eabi_attribute 23, 3
   9              		.eabi_attribute 24, 1
  10              		.eabi_attribute 25, 1
  11              		.eabi_attribute 26, 1
  12              		.eabi_attribute 30, 1
  13              		.eabi_attribute 34, 1
  14              		.eabi_attribute 18, 4
  15              		.file	"display.c"
  16              		.text
  17              	.Ltext0:
  18              		.cfi_sections	.debug_frame
  19              		.file 1 "Core/Src/display.c"
  20              		.section	.rodata.displayStrings.str1.4,"aMS",%progbits,1
  21              		.align	2
  22              	.LC0:
  23 0000 25632025 		.ascii	"%c %s\000"
  23      7300
  24              		.section	.text.displayStrings,"ax",%progbits
  25              		.align	1
  26              		.global	displayStrings
  27              		.syntax unified
  28              		.thumb
  29              		.thumb_func
  31              	displayStrings:
  32              	.LVL0:
  33              	.LFB134:
   1:Core/Src/display.c **** #include "display.h" 
   2:Core/Src/display.c **** 
   3:Core/Src/display.c **** // Define dimensions for display sections
   4:Core/Src/display.c **** #define DISPLAY_WIDTH           128
   5:Core/Src/display.c **** #define DISPLAY_HEIGHT          128
   6:Core/Src/display.c **** #define LIST_SECTION_HEIGHT     115
   7:Core/Src/display.c **** #define SELECTED_FILE_HEIGHT    10
   8:Core/Src/display.c **** #define BORDER_WIDTH            1
   9:Core/Src/display.c **** #define LINE_HEIGHT             10
  10:Core/Src/display.c **** #define CURSOR                  '>'
  11:Core/Src/display.c **** #define WAVEFORM_TOP        0
  12:Core/Src/display.c **** #define WAVEFORM_BOTTOM     (LIST_SECTION_HEIGHT - BORDER_WIDTH)
  13:Core/Src/display.c **** #define SAMPLE_SKIP             2
  14:Core/Src/display.c **** 
  15:Core/Src/display.c **** // Global variables to keep track of the visible portion of the list
  16:Core/Src/display.c **** static uint8_t first_visible_index = 0;
  17:Core/Src/display.c **** static uint8_t num_visible_lines = LIST_SECTION_HEIGHT / LINE_HEIGHT;
  18:Core/Src/display.c **** 
  19:Core/Src/display.c **** void displayStrings(I2C_HandleTypeDef *hi2c1, char** strings, uint8_t numStrings, uint8_t cursor_in
  34              		.loc 1 19 105 view -0
  35              		.cfi_startproc
  36              		@ args = 0, pretend = 0, frame = 128
  37              		@ frame_needed = 0, uses_anonymous_args = 0
  38              		.loc 1 19 105 is_stmt 0 view .LVU1
ARM GAS  C:\Users\jonas\AppData\Local\Temp\cc0Pvo13.s 			page 2


  39 0000 F0B5     		push	{r4, r5, r6, r7, lr}
  40              		.cfi_def_cfa_offset 20
  41              		.cfi_offset 4, -20
  42              		.cfi_offset 5, -16
  43              		.cfi_offset 6, -12
  44              		.cfi_offset 7, -8
  45              		.cfi_offset 14, -4
  46 0002 A3B0     		sub	sp, sp, #140
  47              		.cfi_def_cfa_offset 160
  48 0004 0E46     		mov	r6, r1
  49 0006 1746     		mov	r7, r2
  50 0008 1D46     		mov	r5, r3
  20:Core/Src/display.c ****     // Clear screen
  21:Core/Src/display.c ****     ssd1306_Fill(Black);
  51              		.loc 1 21 5 is_stmt 1 view .LVU2
  52 000a 0020     		movs	r0, #0
  53              	.LVL1:
  54              		.loc 1 21 5 is_stmt 0 view .LVU3
  55 000c FFF7FEFF 		bl	ssd1306_Fill
  56              	.LVL2:
  22:Core/Src/display.c **** 
  23:Core/Src/display.c ****     // Calculate the last visible index based on the first visible index and the number of visible 
  24:Core/Src/display.c ****     uint8_t last_visible_index = first_visible_index + num_visible_lines - 1;
  57              		.loc 1 24 5 is_stmt 1 view .LVU4
  58              		.loc 1 24 54 is_stmt 0 view .LVU5
  59 0010 304B     		ldr	r3, .L22
  60 0012 1A78     		ldrb	r2, [r3]	@ zero_extendqisi2
  61              	.LVL3:
  25:Core/Src/display.c **** 
  26:Core/Src/display.c ****     // Ensure cursor is within the visible range
  27:Core/Src/display.c ****     if (cursor_index < first_visible_index) {
  62              		.loc 1 27 5 is_stmt 1 view .LVU6
  63              		.loc 1 27 8 is_stmt 0 view .LVU7
  64 0014 AA42     		cmp	r2, r5
  65 0016 04D9     		bls	.L2
  28:Core/Src/display.c ****         first_visible_index = cursor_index;
  66              		.loc 1 28 9 is_stmt 1 view .LVU8
  67              		.loc 1 28 29 is_stmt 0 view .LVU9
  68 0018 2E4B     		ldr	r3, .L22
  69 001a 1D70     		strb	r5, [r3]
  70              	.LVL4:
  71              	.L3:
  29:Core/Src/display.c ****     } else if (cursor_index > last_visible_index) {
  30:Core/Src/display.c ****         first_visible_index = cursor_index - num_visible_lines + 1;
  31:Core/Src/display.c ****     }
  32:Core/Src/display.c **** 
  33:Core/Src/display.c ****     // Write data to list section of the screen
  34:Core/Src/display.c ****     for (uint8_t k = first_visible_index; k < numStrings && k < first_visible_index + num_visible_l
  72              		.loc 1 34 5 is_stmt 1 view .LVU10
  73              	.LBB2:
  74              		.loc 1 34 10 view .LVU11
  75              		.loc 1 34 18 is_stmt 0 view .LVU12
  76 001c 2D4B     		ldr	r3, .L22
  77 001e 1C78     		ldrb	r4, [r3]	@ zero_extendqisi2
  78              	.LVL5:
  79              		.loc 1 34 5 view .LVU13
  80 0020 1EE0     		b	.L4
ARM GAS  C:\Users\jonas\AppData\Local\Temp\cc0Pvo13.s 			page 3


  81              	.LVL6:
  82              	.L2:
  83              		.loc 1 34 5 view .LVU14
  84 0022 02F10B03 		add	r3, r2, #11
  85 0026 DBB2     		uxtb	r3, r3
  86 0028 013B     		subs	r3, r3, #1
  87 002a DBB2     		uxtb	r3, r3
  88              	.LBE2:
  29:Core/Src/display.c ****     } else if (cursor_index > last_visible_index) {
  89              		.loc 1 29 12 is_stmt 1 view .LVU15
  29:Core/Src/display.c ****     } else if (cursor_index > last_visible_index) {
  90              		.loc 1 29 15 is_stmt 0 view .LVU16
  91 002c AB42     		cmp	r3, r5
  92 002e F5D2     		bcs	.L3
  30:Core/Src/display.c ****     }
  93              		.loc 1 30 9 is_stmt 1 view .LVU17
  30:Core/Src/display.c ****     }
  94              		.loc 1 30 44 is_stmt 0 view .LVU18
  95 0030 A5F10B03 		sub	r3, r5, #11
  96 0034 DBB2     		uxtb	r3, r3
  30:Core/Src/display.c ****     }
  97              		.loc 1 30 64 view .LVU19
  98 0036 0133     		adds	r3, r3, #1
  30:Core/Src/display.c ****     }
  99              		.loc 1 30 29 view .LVU20
 100 0038 264A     		ldr	r2, .L22
 101              	.LVL7:
  30:Core/Src/display.c ****     }
 102              		.loc 1 30 29 view .LVU21
 103 003a 1370     		strb	r3, [r2]
 104              	.LVL8:
  30:Core/Src/display.c ****     }
 105              		.loc 1 30 29 view .LVU22
 106 003c EEE7     		b	.L3
 107              	.LVL9:
 108              	.L18:
 109              	.LBB4:
 110              	.LBB3:
  35:Core/Src/display.c ****         ssd1306_SetCursor(BORDER_WIDTH, (k - first_visible_index) * LINE_HEIGHT + BORDER_WIDTH); //
  36:Core/Src/display.c ****         if (k == cursor_index) {
  37:Core/Src/display.c ****             // Write the line with cursor_index
  38:Core/Src/display.c ****             char line_with_cursor[DISPLAY_WIDTH - BORDER_WIDTH];
 111              		.loc 1 38 13 is_stmt 1 view .LVU23
  39:Core/Src/display.c ****             snprintf(line_with_cursor, sizeof(line_with_cursor), "%c %s", CURSOR, strings[k]);
 112              		.loc 1 39 13 view .LVU24
 113 003e 56F82430 		ldr	r3, [r6, r4, lsl #2]
 114 0042 0093     		str	r3, [sp]
 115 0044 3E23     		movs	r3, #62
 116 0046 244A     		ldr	r2, .L22+4
 117 0048 7F21     		movs	r1, #127
 118 004a 02A8     		add	r0, sp, #8
 119 004c FFF7FEFF 		bl	snprintf
 120              	.LVL10:
  40:Core/Src/display.c ****             ssd1306_WriteString(line_with_cursor, Font_7x10, White);
 121              		.loc 1 40 13 view .LVU25
 122 0050 224A     		ldr	r2, .L22+8
 123 0052 0123     		movs	r3, #1
ARM GAS  C:\Users\jonas\AppData\Local\Temp\cc0Pvo13.s 			page 4


 124 0054 06CA     		ldm	r2, {r1, r2}
 125 0056 02A8     		add	r0, sp, #8
 126 0058 FFF7FEFF 		bl	ssd1306_WriteString
 127              	.LVL11:
 128              	.L6:
 129              		.loc 1 40 13 is_stmt 0 view .LVU26
 130              	.LBE3:
  34:Core/Src/display.c ****         ssd1306_SetCursor(BORDER_WIDTH, (k - first_visible_index) * LINE_HEIGHT + BORDER_WIDTH); //
 131              		.loc 1 34 107 is_stmt 1 discriminator 2 view .LVU27
 132 005c 0134     		adds	r4, r4, #1
 133              	.LVL12:
  34:Core/Src/display.c ****         ssd1306_SetCursor(BORDER_WIDTH, (k - first_visible_index) * LINE_HEIGHT + BORDER_WIDTH); //
 134              		.loc 1 34 107 is_stmt 0 discriminator 2 view .LVU28
 135 005e E4B2     		uxtb	r4, r4
 136              	.LVL13:
 137              	.L4:
  34:Core/Src/display.c ****         ssd1306_SetCursor(BORDER_WIDTH, (k - first_visible_index) * LINE_HEIGHT + BORDER_WIDTH); //
 138              		.loc 1 34 58 is_stmt 1 discriminator 1 view .LVU29
 139 0060 BC42     		cmp	r4, r7
 140 0062 33D2     		bcs	.L14
  34:Core/Src/display.c ****         ssd1306_SetCursor(BORDER_WIDTH, (k - first_visible_index) * LINE_HEIGHT + BORDER_WIDTH); //
 141              		.loc 1 34 85 is_stmt 0 discriminator 3 view .LVU30
 142 0064 1B4B     		ldr	r3, .L22
 143 0066 1B78     		ldrb	r3, [r3]	@ zero_extendqisi2
 144 0068 03F10B02 		add	r2, r3, #11
  34:Core/Src/display.c ****         ssd1306_SetCursor(BORDER_WIDTH, (k - first_visible_index) * LINE_HEIGHT + BORDER_WIDTH); //
 145              		.loc 1 34 58 discriminator 3 view .LVU31
 146 006c 9442     		cmp	r4, r2
 147 006e 12DA     		bge	.L17
  35:Core/Src/display.c ****         if (k == cursor_index) {
 148              		.loc 1 35 9 is_stmt 1 view .LVU32
 149 0070 E31A     		subs	r3, r4, r3
 150 0072 03EB8303 		add	r3, r3, r3, lsl #2
 151 0076 5900     		lsls	r1, r3, #1
 152 0078 0131     		adds	r1, r1, #1
 153 007a C9B2     		uxtb	r1, r1
 154 007c 0120     		movs	r0, #1
 155 007e FFF7FEFF 		bl	ssd1306_SetCursor
 156              	.LVL14:
  36:Core/Src/display.c ****             // Write the line with cursor_index
 157              		.loc 1 36 9 view .LVU33
  36:Core/Src/display.c ****             // Write the line with cursor_index
 158              		.loc 1 36 12 is_stmt 0 view .LVU34
 159 0082 AC42     		cmp	r4, r5
 160 0084 DBD0     		beq	.L18
  41:Core/Src/display.c ****         } else {
  42:Core/Src/display.c ****             ssd1306_WriteString(strings[k], Font_7x10, White);
 161              		.loc 1 42 13 is_stmt 1 view .LVU35
 162 0086 154A     		ldr	r2, .L22+8
 163 0088 0123     		movs	r3, #1
 164 008a 06CA     		ldm	r2, {r1, r2}
 165 008c 56F82400 		ldr	r0, [r6, r4, lsl #2]
 166 0090 FFF7FEFF 		bl	ssd1306_WriteString
 167              	.LVL15:
 168 0094 E2E7     		b	.L6
 169              	.L17:
 170              		.loc 1 42 13 is_stmt 0 view .LVU36
ARM GAS  C:\Users\jonas\AppData\Local\Temp\cc0Pvo13.s 			page 5


 171 0096 0025     		movs	r5, #0
 172              	.LVL16:
 173              		.loc 1 42 13 view .LVU37
 174 0098 13E0     		b	.L12
 175              	.LVL17:
 176              	.L20:
 177              		.loc 1 42 13 view .LVU38
 178              	.LBE4:
 179              	.LBB5:
 180              	.LBB6:
  43:Core/Src/display.c ****         }
  44:Core/Src/display.c ****     }
  45:Core/Src/display.c **** 
  46:Core/Src/display.c ****     // Draw border around the list section
  47:Core/Src/display.c ****     for (uint8_t i = 0; i < DISPLAY_WIDTH; i++) {
  48:Core/Src/display.c ****         for (uint8_t j = 0; j < LIST_SECTION_HEIGHT; j++) {
  49:Core/Src/display.c ****             if (j < BORDER_WIDTH || j >= LIST_SECTION_HEIGHT - BORDER_WIDTH || i < BORDER_WIDTH || 
 181              		.loc 1 49 97 discriminator 2 view .LVU39
 182 009a 7E2D     		cmp	r5, #126
 183 009c 09D8     		bhi	.L9
 184              	.L10:
  48:Core/Src/display.c ****             if (j < BORDER_WIDTH || j >= LIST_SECTION_HEIGHT - BORDER_WIDTH || i < BORDER_WIDTH || 
 185              		.loc 1 48 55 is_stmt 1 discriminator 2 view .LVU40
 186 009e 0134     		adds	r4, r4, #1
 187              	.LVL18:
  48:Core/Src/display.c ****             if (j < BORDER_WIDTH || j >= LIST_SECTION_HEIGHT - BORDER_WIDTH || i < BORDER_WIDTH || 
 188              		.loc 1 48 55 is_stmt 0 discriminator 2 view .LVU41
 189 00a0 E4B2     		uxtb	r4, r4
 190              	.LVL19:
 191              	.L13:
  48:Core/Src/display.c ****             if (j < BORDER_WIDTH || j >= LIST_SECTION_HEIGHT - BORDER_WIDTH || i < BORDER_WIDTH || 
 192              		.loc 1 48 31 is_stmt 1 discriminator 1 view .LVU42
 193 00a2 722C     		cmp	r4, #114
 194 00a4 0BD8     		bhi	.L19
 195              		.loc 1 49 13 view .LVU43
 196              		.loc 1 49 34 is_stmt 0 view .LVU44
 197 00a6 631E     		subs	r3, r4, #1
 198 00a8 DBB2     		uxtb	r3, r3
 199              		.loc 1 49 16 view .LVU45
 200 00aa 702B     		cmp	r3, #112
 201 00ac 01D8     		bhi	.L9
 202              		.loc 1 49 77 discriminator 1 view .LVU46
 203 00ae 002D     		cmp	r5, #0
 204 00b0 F3D1     		bne	.L20
 205              	.L9:
  50:Core/Src/display.c ****                 ssd1306_DrawPixel(i, j, White);
 206              		.loc 1 50 17 is_stmt 1 view .LVU47
 207 00b2 0122     		movs	r2, #1
 208 00b4 2146     		mov	r1, r4
 209 00b6 2846     		mov	r0, r5
 210 00b8 FFF7FEFF 		bl	ssd1306_DrawPixel
 211              	.LVL20:
 212 00bc EFE7     		b	.L10
 213              	.L19:
 214              	.LBE6:
  47:Core/Src/display.c ****         for (uint8_t j = 0; j < LIST_SECTION_HEIGHT; j++) {
 215              		.loc 1 47 45 discriminator 2 view .LVU48
ARM GAS  C:\Users\jonas\AppData\Local\Temp\cc0Pvo13.s 			page 6


 216 00be 0135     		adds	r5, r5, #1
 217              	.LVL21:
  47:Core/Src/display.c ****         for (uint8_t j = 0; j < LIST_SECTION_HEIGHT; j++) {
 218              		.loc 1 47 45 is_stmt 0 discriminator 2 view .LVU49
 219 00c0 EDB2     		uxtb	r5, r5
 220              	.LVL22:
 221              	.L12:
  47:Core/Src/display.c ****         for (uint8_t j = 0; j < LIST_SECTION_HEIGHT; j++) {
 222              		.loc 1 47 27 is_stmt 1 discriminator 1 view .LVU50
 223 00c2 15F0800F 		tst	r5, #128
 224 00c6 03D1     		bne	.L21
 225              	.LBB7:
  48:Core/Src/display.c ****             if (j < BORDER_WIDTH || j >= LIST_SECTION_HEIGHT - BORDER_WIDTH || i < BORDER_WIDTH || 
 226              		.loc 1 48 22 is_stmt 0 view .LVU51
 227 00c8 0024     		movs	r4, #0
 228 00ca EAE7     		b	.L13
 229              	.LVL23:
 230              	.L14:
  48:Core/Src/display.c ****             if (j < BORDER_WIDTH || j >= LIST_SECTION_HEIGHT - BORDER_WIDTH || i < BORDER_WIDTH || 
 231              		.loc 1 48 22 view .LVU52
 232              	.LBE7:
 233              	.LBE5:
 234              	.LBB8:
 235 00cc 0025     		movs	r5, #0
 236 00ce F8E7     		b	.L12
 237              	.LVL24:
 238              	.L21:
  48:Core/Src/display.c ****             if (j < BORDER_WIDTH || j >= LIST_SECTION_HEIGHT - BORDER_WIDTH || i < BORDER_WIDTH || 
 239              		.loc 1 48 22 view .LVU53
 240              	.LBE8:
  51:Core/Src/display.c ****             }
  52:Core/Src/display.c ****         }
  53:Core/Src/display.c ****     }
  54:Core/Src/display.c **** }
 241              		.loc 1 54 1 view .LVU54
 242 00d0 23B0     		add	sp, sp, #140
 243              		.cfi_def_cfa_offset 20
 244              		@ sp needed
 245 00d2 F0BD     		pop	{r4, r5, r6, r7, pc}
 246              	.LVL25:
 247              	.L23:
 248              		.loc 1 54 1 view .LVU55
 249              		.align	2
 250              	.L22:
 251 00d4 00000000 		.word	first_visible_index
 252 00d8 00000000 		.word	.LC0
 253 00dc 00000000 		.word	Font_7x10
 254              		.cfi_endproc
 255              	.LFE134:
 257              		.section	.text.scrollUp,"ax",%progbits
 258              		.align	1
 259              		.global	scrollUp
 260              		.syntax unified
 261              		.thumb
 262              		.thumb_func
 264              	scrollUp:
 265              	.LFB135:
ARM GAS  C:\Users\jonas\AppData\Local\Temp\cc0Pvo13.s 			page 7


  55:Core/Src/display.c **** 
  56:Core/Src/display.c **** // Scroll the list up by one line
  57:Core/Src/display.c **** void scrollUp() {
 266              		.loc 1 57 17 is_stmt 1 view -0
 267              		.cfi_startproc
 268              		@ args = 0, pretend = 0, frame = 0
 269              		@ frame_needed = 0, uses_anonymous_args = 0
 270              		@ link register save eliminated.
  58:Core/Src/display.c ****     if (first_visible_index > 0) {
 271              		.loc 1 58 5 view .LVU57
 272              		.loc 1 58 29 is_stmt 0 view .LVU58
 273 0000 034B     		ldr	r3, .L26
 274 0002 1B78     		ldrb	r3, [r3]	@ zero_extendqisi2
 275              		.loc 1 58 8 view .LVU59
 276 0004 13B1     		cbz	r3, .L24
  59:Core/Src/display.c ****         first_visible_index--;
 277              		.loc 1 59 9 is_stmt 1 view .LVU60
 278              		.loc 1 59 28 is_stmt 0 view .LVU61
 279 0006 013B     		subs	r3, r3, #1
 280 0008 014A     		ldr	r2, .L26
 281 000a 1370     		strb	r3, [r2]
 282              	.L24:
  60:Core/Src/display.c ****     }
  61:Core/Src/display.c **** }
 283              		.loc 1 61 1 view .LVU62
 284 000c 7047     		bx	lr
 285              	.L27:
 286 000e 00BF     		.align	2
 287              	.L26:
 288 0010 00000000 		.word	first_visible_index
 289              		.cfi_endproc
 290              	.LFE135:
 292              		.section	.text.scrollDown,"ax",%progbits
 293              		.align	1
 294              		.global	scrollDown
 295              		.syntax unified
 296              		.thumb
 297              		.thumb_func
 299              	scrollDown:
 300              	.LVL26:
 301              	.LFB136:
  62:Core/Src/display.c **** 
  63:Core/Src/display.c **** // Scroll the list down by one line
  64:Core/Src/display.c **** void scrollDown(uint8_t numStrings) {
 302              		.loc 1 64 37 is_stmt 1 view -0
 303              		.cfi_startproc
 304              		@ args = 0, pretend = 0, frame = 0
 305              		@ frame_needed = 0, uses_anonymous_args = 0
 306              		@ link register save eliminated.
  65:Core/Src/display.c ****     if (first_visible_index + num_visible_lines < numStrings) {
 307              		.loc 1 65 5 view .LVU64
 308              		.loc 1 65 29 is_stmt 0 view .LVU65
 309 0000 044B     		ldr	r3, .L30
 310 0002 1B78     		ldrb	r3, [r3]	@ zero_extendqisi2
 311 0004 03F10B02 		add	r2, r3, #11
 312              		.loc 1 65 8 view .LVU66
 313 0008 8242     		cmp	r2, r0
ARM GAS  C:\Users\jonas\AppData\Local\Temp\cc0Pvo13.s 			page 8


 314 000a 02DA     		bge	.L28
  66:Core/Src/display.c ****         first_visible_index++;
 315              		.loc 1 66 9 is_stmt 1 view .LVU67
 316              		.loc 1 66 28 is_stmt 0 view .LVU68
 317 000c 0133     		adds	r3, r3, #1
 318 000e 014A     		ldr	r2, .L30
 319 0010 1370     		strb	r3, [r2]
 320              	.L28:
  67:Core/Src/display.c ****     }
  68:Core/Src/display.c **** }
 321              		.loc 1 68 1 view .LVU69
 322 0012 7047     		bx	lr
 323              	.L31:
 324              		.align	2
 325              	.L30:
 326 0014 00000000 		.word	first_visible_index
 327              		.cfi_endproc
 328              	.LFE136:
 330              		.section	.text.renderSelectedFile,"ax",%progbits
 331              		.align	1
 332              		.global	renderSelectedFile
 333              		.syntax unified
 334              		.thumb
 335              		.thumb_func
 337              	renderSelectedFile:
 338              	.LVL27:
 339              	.LFB137:
  69:Core/Src/display.c **** 
  70:Core/Src/display.c **** void renderSelectedFile(I2C_HandleTypeDef *hi2c1, const char *filename) {
 340              		.loc 1 70 73 is_stmt 1 view -0
 341              		.cfi_startproc
 342              		@ args = 0, pretend = 0, frame = 0
 343              		@ frame_needed = 0, uses_anonymous_args = 0
 344              		.loc 1 70 73 is_stmt 0 view .LVU71
 345 0000 70B5     		push	{r4, r5, r6, lr}
 346              		.cfi_def_cfa_offset 16
 347              		.cfi_offset 4, -16
 348              		.cfi_offset 5, -12
 349              		.cfi_offset 6, -8
 350              		.cfi_offset 14, -4
 351 0002 0E46     		mov	r6, r1
  71:Core/Src/display.c ****     // Clear the selected file section of the screen
  72:Core/Src/display.c ****     for (uint8_t i = 0; i < DISPLAY_WIDTH; i++) {
 352              		.loc 1 72 5 is_stmt 1 view .LVU72
 353              	.LBB9:
 354              		.loc 1 72 10 view .LVU73
 355              	.LVL28:
 356              		.loc 1 72 18 is_stmt 0 view .LVU74
 357 0004 0025     		movs	r5, #0
 358              		.loc 1 72 5 view .LVU75
 359 0006 0BE0     		b	.L33
 360              	.LVL29:
 361              	.L34:
 362              	.LBB10:
  73:Core/Src/display.c ****         for (uint8_t j = LIST_SECTION_HEIGHT; j < DISPLAY_HEIGHT; j++) {
  74:Core/Src/display.c ****             ssd1306_DrawPixel(i, j, Black);
 363              		.loc 1 74 13 is_stmt 1 view .LVU76
ARM GAS  C:\Users\jonas\AppData\Local\Temp\cc0Pvo13.s 			page 9


 364 0008 0022     		movs	r2, #0
 365 000a 2146     		mov	r1, r4
 366 000c 2846     		mov	r0, r5
 367 000e FFF7FEFF 		bl	ssd1306_DrawPixel
 368              	.LVL30:
  73:Core/Src/display.c ****         for (uint8_t j = LIST_SECTION_HEIGHT; j < DISPLAY_HEIGHT; j++) {
 369              		.loc 1 73 68 discriminator 3 view .LVU77
 370 0012 0134     		adds	r4, r4, #1
 371              	.LVL31:
  73:Core/Src/display.c ****         for (uint8_t j = LIST_SECTION_HEIGHT; j < DISPLAY_HEIGHT; j++) {
 372              		.loc 1 73 68 is_stmt 0 discriminator 3 view .LVU78
 373 0014 E4B2     		uxtb	r4, r4
 374              	.LVL32:
 375              	.L35:
  73:Core/Src/display.c ****         for (uint8_t j = LIST_SECTION_HEIGHT; j < DISPLAY_HEIGHT; j++) {
 376              		.loc 1 73 49 is_stmt 1 discriminator 1 view .LVU79
 377 0016 14F0800F 		tst	r4, #128
 378 001a F5D0     		beq	.L34
 379              	.LBE10:
  72:Core/Src/display.c ****         for (uint8_t j = LIST_SECTION_HEIGHT; j < DISPLAY_HEIGHT; j++) {
 380              		.loc 1 72 45 discriminator 2 view .LVU80
 381 001c 0135     		adds	r5, r5, #1
 382              	.LVL33:
  72:Core/Src/display.c ****         for (uint8_t j = LIST_SECTION_HEIGHT; j < DISPLAY_HEIGHT; j++) {
 383              		.loc 1 72 45 is_stmt 0 discriminator 2 view .LVU81
 384 001e EDB2     		uxtb	r5, r5
 385              	.LVL34:
 386              	.L33:
  72:Core/Src/display.c ****         for (uint8_t j = LIST_SECTION_HEIGHT; j < DISPLAY_HEIGHT; j++) {
 387              		.loc 1 72 27 is_stmt 1 discriminator 1 view .LVU82
 388 0020 15F0800F 		tst	r5, #128
 389 0024 01D1     		bne	.L38
 390              	.LBB11:
  73:Core/Src/display.c ****         for (uint8_t j = LIST_SECTION_HEIGHT; j < DISPLAY_HEIGHT; j++) {
 391              		.loc 1 73 22 is_stmt 0 view .LVU83
 392 0026 7324     		movs	r4, #115
 393 0028 F5E7     		b	.L35
 394              	.L38:
 395              	.LBE11:
 396              	.LBE9:
  75:Core/Src/display.c ****         }
  76:Core/Src/display.c ****     }
  77:Core/Src/display.c **** 
  78:Core/Src/display.c ****     // Write the selected file name in the selected file section
  79:Core/Src/display.c ****     ssd1306_SetCursor(0, LIST_SECTION_HEIGHT + 2); // Adjust Y position for text alignment
 397              		.loc 1 79 5 is_stmt 1 view .LVU84
 398 002a 7521     		movs	r1, #117
 399 002c 0020     		movs	r0, #0
 400 002e FFF7FEFF 		bl	ssd1306_SetCursor
 401              	.LVL35:
  80:Core/Src/display.c ****     ssd1306_WriteString(filename, Font_7x10, White);
 402              		.loc 1 80 5 view .LVU85
 403 0032 034A     		ldr	r2, .L39
 404 0034 0123     		movs	r3, #1
 405 0036 06CA     		ldm	r2, {r1, r2}
 406 0038 3046     		mov	r0, r6
 407 003a FFF7FEFF 		bl	ssd1306_WriteString
ARM GAS  C:\Users\jonas\AppData\Local\Temp\cc0Pvo13.s 			page 10


 408              	.LVL36:
  81:Core/Src/display.c **** }
 409              		.loc 1 81 1 is_stmt 0 view .LVU86
 410 003e 70BD     		pop	{r4, r5, r6, pc}
 411              	.LVL37:
 412              	.L40:
 413              		.loc 1 81 1 view .LVU87
 414              		.align	2
 415              	.L39:
 416 0040 00000000 		.word	Font_7x10
 417              		.cfi_endproc
 418              	.LFE137:
 420              		.section	.text.drawWaveform,"ax",%progbits
 421              		.align	1
 422              		.global	drawWaveform
 423              		.syntax unified
 424              		.thumb
 425              		.thumb_func
 427              	drawWaveform:
 428              	.LVL38:
 429              	.LFB138:
  82:Core/Src/display.c **** 
  83:Core/Src/display.c **** void drawWaveform(I2C_HandleTypeDef *hi2c1, int16_t *samples, uint32_t numSamples) {
 430              		.loc 1 83 84 is_stmt 1 view -0
 431              		.cfi_startproc
 432              		@ args = 0, pretend = 0, frame = 0
 433              		@ frame_needed = 0, uses_anonymous_args = 0
 434              		.loc 1 83 84 is_stmt 0 view .LVU89
 435 0000 2DE9F041 		push	{r4, r5, r6, r7, r8, lr}
 436              		.cfi_def_cfa_offset 24
 437              		.cfi_offset 4, -24
 438              		.cfi_offset 5, -20
 439              		.cfi_offset 6, -16
 440              		.cfi_offset 7, -12
 441              		.cfi_offset 8, -8
 442              		.cfi_offset 14, -4
 443 0004 0746     		mov	r7, r0
 444 0006 0E46     		mov	r6, r1
 445 0008 9046     		mov	r8, r2
  84:Core/Src/display.c ****     // Clear the waveform area
  85:Core/Src/display.c ****     for (uint8_t i = 0; i < DISPLAY_WIDTH; i++) {
 446              		.loc 1 85 5 is_stmt 1 view .LVU90
 447              	.LBB12:
 448              		.loc 1 85 10 view .LVU91
 449              	.LVL39:
 450              		.loc 1 85 18 is_stmt 0 view .LVU92
 451 000a 0025     		movs	r5, #0
 452              		.loc 1 85 5 view .LVU93
 453 000c 0AE0     		b	.L42
 454              	.LVL40:
 455              	.L43:
 456              	.LBB13:
  86:Core/Src/display.c ****         for (uint8_t j = WAVEFORM_TOP; j < WAVEFORM_BOTTOM; j++) {
  87:Core/Src/display.c ****             ssd1306_DrawPixel(i, j, Black);
 457              		.loc 1 87 13 is_stmt 1 view .LVU94
 458 000e 0022     		movs	r2, #0
 459 0010 2146     		mov	r1, r4
ARM GAS  C:\Users\jonas\AppData\Local\Temp\cc0Pvo13.s 			page 11


 460 0012 2846     		mov	r0, r5
 461 0014 FFF7FEFF 		bl	ssd1306_DrawPixel
 462              	.LVL41:
  86:Core/Src/display.c ****         for (uint8_t j = WAVEFORM_TOP; j < WAVEFORM_BOTTOM; j++) {
 463              		.loc 1 86 62 discriminator 3 view .LVU95
 464 0018 0134     		adds	r4, r4, #1
 465              	.LVL42:
  86:Core/Src/display.c ****         for (uint8_t j = WAVEFORM_TOP; j < WAVEFORM_BOTTOM; j++) {
 466              		.loc 1 86 62 is_stmt 0 discriminator 3 view .LVU96
 467 001a E4B2     		uxtb	r4, r4
 468              	.LVL43:
 469              	.L44:
  86:Core/Src/display.c ****         for (uint8_t j = WAVEFORM_TOP; j < WAVEFORM_BOTTOM; j++) {
 470              		.loc 1 86 42 is_stmt 1 discriminator 1 view .LVU97
 471 001c 712C     		cmp	r4, #113
 472 001e F6D9     		bls	.L43
 473              	.LBE13:
  85:Core/Src/display.c ****         for (uint8_t j = WAVEFORM_TOP; j < WAVEFORM_BOTTOM; j++) {
 474              		.loc 1 85 45 discriminator 2 view .LVU98
 475 0020 0135     		adds	r5, r5, #1
 476              	.LVL44:
  85:Core/Src/display.c ****         for (uint8_t j = WAVEFORM_TOP; j < WAVEFORM_BOTTOM; j++) {
 477              		.loc 1 85 45 is_stmt 0 discriminator 2 view .LVU99
 478 0022 EDB2     		uxtb	r5, r5
 479              	.LVL45:
 480              	.L42:
  85:Core/Src/display.c ****         for (uint8_t j = WAVEFORM_TOP; j < WAVEFORM_BOTTOM; j++) {
 481              		.loc 1 85 27 is_stmt 1 discriminator 1 view .LVU100
 482 0024 15F0800F 		tst	r5, #128
 483 0028 01D1     		bne	.L56
 484              	.LBB14:
  86:Core/Src/display.c ****         for (uint8_t j = WAVEFORM_TOP; j < WAVEFORM_BOTTOM; j++) {
 485              		.loc 1 86 22 is_stmt 0 view .LVU101
 486 002a 0024     		movs	r4, #0
 487 002c F6E7     		b	.L44
 488              	.L56:
 489              	.LBE14:
 490              	.LBE12:
  88:Core/Src/display.c ****         }
  89:Core/Src/display.c ****     }
  90:Core/Src/display.c **** 
  91:Core/Src/display.c ****     // Draw waveform
  92:Core/Src/display.c ****     // uint32_t x_step = DISPLAY_WIDTH / numSamples;
  93:Core/Src/display.c ****     uint8_t x_step = numSamples / DISPLAY_WIDTH;
 491              		.loc 1 93 5 is_stmt 1 view .LVU102
 492              		.loc 1 93 33 is_stmt 0 view .LVU103
 493 002e 4FEAD815 		lsr	r5, r8, #7
 494              	.LVL46:
  94:Core/Src/display.c **** 
  95:Core/Src/display.c ****     for (uint32_t i = 0; i < DISPLAY_WIDTH; i ++) {
 495              		.loc 1 95 5 is_stmt 1 view .LVU104
 496              	.LBB15:
 497              		.loc 1 95 10 view .LVU105
 498              		.loc 1 95 19 is_stmt 0 view .LVU106
 499 0032 0024     		movs	r4, #0
 500              		.loc 1 95 5 view .LVU107
 501 0034 08E0     		b	.L45
ARM GAS  C:\Users\jonas\AppData\Local\Temp\cc0Pvo13.s 			page 12


 502              	.LVL47:
 503              	.L46:
 504              	.LBB16:
  96:Core/Src/display.c **** 
  97:Core/Src/display.c ****         int8_t x1 = i;
  98:Core/Src/display.c ****         int8_t y1 = (samples[i * x_step] * (WAVEFORM_BOTTOM - WAVEFORM_TOP) ) / 65536 + (WAVEFORM_B
 505              		.loc 1 98 79 view .LVU108
 506 0036 1B14     		asrs	r3, r3, #16
 507              		.loc 1 98 87 view .LVU109
 508 0038 03F13901 		add	r1, r3, #57
 509              	.LVL48:
  99:Core/Src/display.c ****         // uint32_t y2 = (samples[i + SAMPLE_SKIP] * (WAVEFORM_BOTTOM - WAVEFORM_TOP) / 32767) + WA
 100:Core/Src/display.c ****         // drawLine(x1, y1, x1, y2, White);
 101:Core/Src/display.c ****         ssd1306_DrawPixel(x1, y1, White);
 510              		.loc 1 101 9 is_stmt 1 view .LVU110
 511 003c 0122     		movs	r2, #1
 512 003e C9B2     		uxtb	r1, r1
 513              		.loc 1 101 9 is_stmt 0 view .LVU111
 514 0040 E0B2     		uxtb	r0, r4
 515 0042 FFF7FEFF 		bl	ssd1306_DrawPixel
 516              	.LVL49:
 517              		.loc 1 101 9 view .LVU112
 518              	.LBE16:
  95:Core/Src/display.c **** 
 519              		.loc 1 95 47 is_stmt 1 discriminator 3 view .LVU113
 520 0046 0134     		adds	r4, r4, #1
 521              	.LVL50:
 522              	.L45:
  95:Core/Src/display.c **** 
 523              		.loc 1 95 28 discriminator 1 view .LVU114
 524 0048 7F2C     		cmp	r4, #127
 525 004a 0DD8     		bhi	.L57
 526              	.LBB17:
  97:Core/Src/display.c ****         int8_t y1 = (samples[i * x_step] * (WAVEFORM_BOTTOM - WAVEFORM_TOP) ) / 65536 + (WAVEFORM_B
 527              		.loc 1 97 9 view .LVU115
 528              	.LVL51:
  98:Core/Src/display.c ****         // uint32_t y2 = (samples[i + SAMPLE_SKIP] * (WAVEFORM_BOTTOM - WAVEFORM_TOP) / 32767) + WA
 529              		.loc 1 98 9 view .LVU116
  98:Core/Src/display.c ****         // uint32_t y2 = (samples[i + SAMPLE_SKIP] * (WAVEFORM_BOTTOM - WAVEFORM_TOP) / 32767) + WA
 530              		.loc 1 98 32 is_stmt 0 view .LVU117
 531 004c EBB2     		uxtb	r3, r5
 532 004e 04FB03F3 		mul	r3, r4, r3
  98:Core/Src/display.c ****         // uint32_t y2 = (samples[i + SAMPLE_SKIP] * (WAVEFORM_BOTTOM - WAVEFORM_TOP) / 32767) + WA
 533              		.loc 1 98 29 view .LVU118
 534 0052 36F91330 		ldrsh	r3, [r6, r3, lsl #1]
  98:Core/Src/display.c ****         // uint32_t y2 = (samples[i + SAMPLE_SKIP] * (WAVEFORM_BOTTOM - WAVEFORM_TOP) / 32767) + WA
 535              		.loc 1 98 42 view .LVU119
 536 0056 7222     		movs	r2, #114
 537 0058 02FB03F3 		mul	r3, r2, r3
  98:Core/Src/display.c ****         // uint32_t y2 = (samples[i + SAMPLE_SKIP] * (WAVEFORM_BOTTOM - WAVEFORM_TOP) / 32767) + WA
 538              		.loc 1 98 79 view .LVU120
 539 005c 002B     		cmp	r3, #0
 540 005e EADA     		bge	.L46
 541 0060 03F57F43 		add	r3, r3, #65280
 542 0064 FF33     		adds	r3, r3, #255
 543 0066 E6E7     		b	.L46
 544              	.LVL52:
ARM GAS  C:\Users\jonas\AppData\Local\Temp\cc0Pvo13.s 			page 13


 545              	.L57:
  98:Core/Src/display.c ****         // uint32_t y2 = (samples[i + SAMPLE_SKIP] * (WAVEFORM_BOTTOM - WAVEFORM_TOP) / 32767) + WA
 546              		.loc 1 98 79 view .LVU121
 547              	.LBE17:
 548              	.LBE15:
 549              	.LBB18:
 102:Core/Src/display.c ****         // ssd1306_UpdateScreen(hi2c1);
 103:Core/Src/display.c ****     }
 104:Core/Src/display.c **** 
 105:Core/Src/display.c ****     // Draw border around the waveform area
 106:Core/Src/display.c ****     for (uint8_t i = 0; i < DISPLAY_WIDTH; i++) {
 550              		.loc 1 106 18 view .LVU122
 551 0068 0025     		movs	r5, #0
 552              	.LVL53:
 553              		.loc 1 106 18 view .LVU123
 554 006a 13E0     		b	.L48
 555              	.LVL54:
 556              	.L49:
 557              	.LBB19:
 107:Core/Src/display.c ****         for (uint8_t j = WAVEFORM_TOP; j < WAVEFORM_BOTTOM; j++) {
 108:Core/Src/display.c ****             if (j == WAVEFORM_TOP || j == WAVEFORM_BOTTOM - 1 || i == 0 || i == DISPLAY_WIDTH - 1) 
 109:Core/Src/display.c ****                 ssd1306_DrawPixel(i, j, White);
 558              		.loc 1 109 17 is_stmt 1 view .LVU124
 559 006c 0122     		movs	r2, #1
 560 006e 2146     		mov	r1, r4
 561 0070 2846     		mov	r0, r5
 562 0072 FFF7FEFF 		bl	ssd1306_DrawPixel
 563              	.LVL55:
 564              	.L50:
 107:Core/Src/display.c ****         for (uint8_t j = WAVEFORM_TOP; j < WAVEFORM_BOTTOM; j++) {
 565              		.loc 1 107 62 discriminator 2 view .LVU125
 566 0076 0134     		adds	r4, r4, #1
 567              	.LVL56:
 107:Core/Src/display.c ****         for (uint8_t j = WAVEFORM_TOP; j < WAVEFORM_BOTTOM; j++) {
 568              		.loc 1 107 62 is_stmt 0 discriminator 2 view .LVU126
 569 0078 E4B2     		uxtb	r4, r4
 570              	.LVL57:
 571              	.L52:
 107:Core/Src/display.c ****         for (uint8_t j = WAVEFORM_TOP; j < WAVEFORM_BOTTOM; j++) {
 572              		.loc 1 107 42 is_stmt 1 discriminator 1 view .LVU127
 573 007a 712C     		cmp	r4, #113
 574 007c 08D8     		bhi	.L58
 108:Core/Src/display.c ****                 ssd1306_DrawPixel(i, j, White);
 575              		.loc 1 108 13 view .LVU128
 108:Core/Src/display.c ****                 ssd1306_DrawPixel(i, j, White);
 576              		.loc 1 108 16 is_stmt 0 view .LVU129
 577 007e 002C     		cmp	r4, #0
 578 0080 F4D0     		beq	.L49
 108:Core/Src/display.c ****                 ssd1306_DrawPixel(i, j, White);
 579              		.loc 1 108 35 discriminator 1 view .LVU130
 580 0082 712C     		cmp	r4, #113
 581 0084 F2D0     		beq	.L49
 108:Core/Src/display.c ****                 ssd1306_DrawPixel(i, j, White);
 582              		.loc 1 108 63 discriminator 2 view .LVU131
 583 0086 002D     		cmp	r5, #0
 584 0088 F0D0     		beq	.L49
 108:Core/Src/display.c ****                 ssd1306_DrawPixel(i, j, White);
ARM GAS  C:\Users\jonas\AppData\Local\Temp\cc0Pvo13.s 			page 14


 585              		.loc 1 108 73 discriminator 3 view .LVU132
 586 008a 7F2D     		cmp	r5, #127
 587 008c F3D1     		bne	.L50
 588 008e EDE7     		b	.L49
 589              	.L58:
 590              	.LBE19:
 106:Core/Src/display.c ****         for (uint8_t j = WAVEFORM_TOP; j < WAVEFORM_BOTTOM; j++) {
 591              		.loc 1 106 45 is_stmt 1 discriminator 2 view .LVU133
 592 0090 0135     		adds	r5, r5, #1
 593              	.LVL58:
 106:Core/Src/display.c ****         for (uint8_t j = WAVEFORM_TOP; j < WAVEFORM_BOTTOM; j++) {
 594              		.loc 1 106 45 is_stmt 0 discriminator 2 view .LVU134
 595 0092 EDB2     		uxtb	r5, r5
 596              	.LVL59:
 597              	.L48:
 106:Core/Src/display.c ****         for (uint8_t j = WAVEFORM_TOP; j < WAVEFORM_BOTTOM; j++) {
 598              		.loc 1 106 27 is_stmt 1 discriminator 1 view .LVU135
 599 0094 15F0800F 		tst	r5, #128
 600 0098 01D1     		bne	.L59
 601              	.LBB20:
 107:Core/Src/display.c ****         for (uint8_t j = WAVEFORM_TOP; j < WAVEFORM_BOTTOM; j++) {
 602              		.loc 1 107 22 is_stmt 0 view .LVU136
 603 009a 0024     		movs	r4, #0
 604 009c EDE7     		b	.L52
 605              	.L59:
 606              	.LBE20:
 607              	.LBE18:
 110:Core/Src/display.c ****             }
 111:Core/Src/display.c ****         }
 112:Core/Src/display.c ****     }
 113:Core/Src/display.c **** 
 114:Core/Src/display.c ****     // Update display
 115:Core/Src/display.c ****     ssd1306_UpdateScreen(hi2c1);
 608              		.loc 1 115 5 is_stmt 1 view .LVU137
 609 009e 3846     		mov	r0, r7
 610 00a0 FFF7FEFF 		bl	ssd1306_UpdateScreen
 611              	.LVL60:
 116:Core/Src/display.c **** }
 612              		.loc 1 116 1 is_stmt 0 view .LVU138
 613 00a4 BDE8F081 		pop	{r4, r5, r6, r7, r8, pc}
 614              		.loc 1 116 1 view .LVU139
 615              		.cfi_endproc
 616              	.LFE138:
 618              		.section	.text.drawLine,"ax",%progbits
 619              		.align	1
 620              		.global	drawLine
 621              		.syntax unified
 622              		.thumb
 623              		.thumb_func
 625              	drawLine:
 626              	.LVL61:
 627              	.LFB139:
 117:Core/Src/display.c **** 
 118:Core/Src/display.c **** void drawLine(int16_t x0, int16_t y0, int16_t x1, int16_t y1, uint16_t color) {
 628              		.loc 1 118 79 is_stmt 1 view -0
 629              		.cfi_startproc
 630              		@ args = 4, pretend = 0, frame = 16
ARM GAS  C:\Users\jonas\AppData\Local\Temp\cc0Pvo13.s 			page 15


 631              		@ frame_needed = 0, uses_anonymous_args = 0
 632              		.loc 1 118 79 is_stmt 0 view .LVU141
 633 0000 2DE9F04F 		push	{r4, r5, r6, r7, r8, r9, r10, fp, lr}
 634              		.cfi_def_cfa_offset 36
 635              		.cfi_offset 4, -36
 636              		.cfi_offset 5, -32
 637              		.cfi_offset 6, -28
 638              		.cfi_offset 7, -24
 639              		.cfi_offset 8, -20
 640              		.cfi_offset 9, -16
 641              		.cfi_offset 10, -12
 642              		.cfi_offset 11, -8
 643              		.cfi_offset 14, -4
 644 0004 85B0     		sub	sp, sp, #20
 645              		.cfi_def_cfa_offset 56
 646 0006 0546     		mov	r5, r0
 647 0008 0E46     		mov	r6, r1
 648 000a 1746     		mov	r7, r2
 649 000c 0393     		str	r3, [sp, #12]
 650 000e BDF83830 		ldrh	r3, [sp, #56]
 651              	.LVL62:
 652              		.loc 1 118 79 view .LVU142
 653 0012 0093     		str	r3, [sp]
 119:Core/Src/display.c ****     int16_t dx = abs(x1 - x0);
 654              		.loc 1 119 5 is_stmt 1 view .LVU143
 655              		.loc 1 119 25 is_stmt 0 view .LVU144
 656 0014 A2EB000B 		sub	fp, r2, r0
 657              		.loc 1 119 18 view .LVU145
 658 0018 BBF1000F 		cmp	fp, #0
 659 001c B8BF     		it	lt
 660 001e CBF1000B 		rsblt	fp, fp, #0
 661              		.loc 1 119 13 view .LVU146
 662 0022 0FFA8BF9 		sxth	r9, fp
 663              	.LVL63:
 120:Core/Src/display.c ****     int16_t sx = x0 < x1 ? 1 : -1;
 664              		.loc 1 120 5 is_stmt 1 view .LVU147
 665              		.loc 1 120 13 is_stmt 0 view .LVU148
 666 0026 8242     		cmp	r2, r0
 667 0028 33DD     		ble	.L68
 668              		.loc 1 120 13 discriminator 1 view .LVU149
 669 002a 0123     		movs	r3, #1
 670 002c 0193     		str	r3, [sp, #4]
 671              	.L61:
 672              	.LVL64:
 121:Core/Src/display.c ****     int16_t dy = -abs(y1 - y0);
 673              		.loc 1 121 5 is_stmt 1 view .LVU150
 674              		.loc 1 121 26 is_stmt 0 view .LVU151
 675 002e 039B     		ldr	r3, [sp, #12]
 676 0030 A3EB060A 		sub	r10, r3, r6
 677              		.loc 1 121 19 view .LVU152
 678 0034 BAF1000F 		cmp	r10, #0
 679 0038 B8BF     		it	lt
 680 003a CAF1000A 		rsblt	r10, r10, #0
 681              		.loc 1 121 13 view .LVU153
 682 003e 1FFA8AFA 		uxth	r10, r10
 683 0042 CAF10008 		rsb	r8, r10, #0
 684 0046 0FFA88F8 		sxth	r8, r8
ARM GAS  C:\Users\jonas\AppData\Local\Temp\cc0Pvo13.s 			page 16


 685              	.LVL65:
 122:Core/Src/display.c ****     int16_t sy = y0 < y1 ? 1 : -1;
 686              		.loc 1 122 5 is_stmt 1 view .LVU154
 687              		.loc 1 122 13 is_stmt 0 view .LVU155
 688 004a B342     		cmp	r3, r6
 689 004c 25DD     		ble	.L69
 690              		.loc 1 122 13 discriminator 1 view .LVU156
 691 004e 0123     		movs	r3, #1
 692 0050 0293     		str	r3, [sp, #8]
 693              	.L62:
 694              	.LVL66:
 123:Core/Src/display.c ****     int16_t err = dx + dy;
 695              		.loc 1 123 5 is_stmt 1 view .LVU157
 696              		.loc 1 123 22 is_stmt 0 view .LVU158
 697 0052 1FFA8BFB 		uxth	fp, fp
 698              		.loc 1 123 13 view .LVU159
 699 0056 ABEB0A04 		sub	r4, fp, r10
 700 005a 24B2     		sxth	r4, r4
 701              	.LVL67:
 702              	.L63:
 124:Core/Src/display.c ****     int16_t e2;
 703              		.loc 1 124 5 is_stmt 1 view .LVU160
 125:Core/Src/display.c **** 
 126:Core/Src/display.c ****     while (1) {
 704              		.loc 1 126 5 view .LVU161
 127:Core/Src/display.c ****         ssd1306_DrawPixel(x0, y0, color);
 705              		.loc 1 127 9 view .LVU162
 706 005c 9DF80020 		ldrb	r2, [sp]	@ zero_extendqisi2
 707 0060 F1B2     		uxtb	r1, r6
 708 0062 E8B2     		uxtb	r0, r5
 709 0064 FFF7FEFF 		bl	ssd1306_DrawPixel
 710              	.LVL68:
 128:Core/Src/display.c ****         if (x0 == x1 && y0 == y1) break;
 711              		.loc 1 128 9 view .LVU163
 712              		.loc 1 128 12 is_stmt 0 view .LVU164
 713 0068 BD42     		cmp	r5, r7
 714 006a 1AD0     		beq	.L71
 715              	.L64:
 129:Core/Src/display.c ****         e2 = 2 * err;
 716              		.loc 1 129 9 is_stmt 1 view .LVU165
 717              		.loc 1 129 16 is_stmt 0 view .LVU166
 718 006c A2B2     		uxth	r2, r4
 719 006e 5300     		lsls	r3, r2, #1
 720              		.loc 1 129 12 view .LVU167
 721 0070 1BB2     		sxth	r3, r3
 722              	.LVL69:
 130:Core/Src/display.c ****         if (e2 >= dy) {
 723              		.loc 1 130 9 is_stmt 1 view .LVU168
 724              		.loc 1 130 12 is_stmt 0 view .LVU169
 725 0072 9845     		cmp	r8, r3
 726 0074 05DC     		bgt	.L66
 131:Core/Src/display.c ****             err += dy;
 727              		.loc 1 131 13 is_stmt 1 view .LVU170
 728              		.loc 1 131 17 is_stmt 0 view .LVU171
 729 0076 A2EB0A02 		sub	r2, r2, r10
 730 007a 14B2     		sxth	r4, r2
 731              	.LVL70:
ARM GAS  C:\Users\jonas\AppData\Local\Temp\cc0Pvo13.s 			page 17


 132:Core/Src/display.c ****             x0 += sx;
 732              		.loc 1 132 13 is_stmt 1 view .LVU172
 733              		.loc 1 132 16 is_stmt 0 view .LVU173
 734 007c 019A     		ldr	r2, [sp, #4]
 735 007e 1544     		add	r5, r5, r2
 736              	.LVL71:
 737              		.loc 1 132 16 view .LVU174
 738 0080 2DB2     		sxth	r5, r5
 739              	.LVL72:
 740              	.L66:
 133:Core/Src/display.c ****         }
 134:Core/Src/display.c ****         if (e2 <= dx) {
 741              		.loc 1 134 9 is_stmt 1 view .LVU175
 742              		.loc 1 134 12 is_stmt 0 view .LVU176
 743 0082 9945     		cmp	r9, r3
 744 0084 EADB     		blt	.L63
 135:Core/Src/display.c ****             err += dx;
 745              		.loc 1 135 13 is_stmt 1 view .LVU177
 746              		.loc 1 135 17 is_stmt 0 view .LVU178
 747 0086 5C44     		add	r4, r4, fp
 748              	.LVL73:
 749              		.loc 1 135 17 view .LVU179
 750 0088 24B2     		sxth	r4, r4
 751              	.LVL74:
 136:Core/Src/display.c ****             y0 += sy;
 752              		.loc 1 136 13 is_stmt 1 view .LVU180
 753              		.loc 1 136 16 is_stmt 0 view .LVU181
 754 008a 029B     		ldr	r3, [sp, #8]
 755              	.LVL75:
 756              		.loc 1 136 16 view .LVU182
 757 008c 1E44     		add	r6, r6, r3
 758              	.LVL76:
 759              		.loc 1 136 16 view .LVU183
 760 008e 36B2     		sxth	r6, r6
 761              	.LVL77:
 762              		.loc 1 136 16 view .LVU184
 763 0090 E4E7     		b	.L63
 764              	.LVL78:
 765              	.L68:
 120:Core/Src/display.c ****     int16_t dy = -abs(y1 - y0);
 766              		.loc 1 120 13 discriminator 2 view .LVU185
 767 0092 4FF0FF33 		mov	r3, #-1
 768 0096 0193     		str	r3, [sp, #4]
 769 0098 C9E7     		b	.L61
 770              	.LVL79:
 771              	.L69:
 122:Core/Src/display.c ****     int16_t err = dx + dy;
 772              		.loc 1 122 13 discriminator 2 view .LVU186
 773 009a 4FF0FF33 		mov	r3, #-1
 774 009e 0293     		str	r3, [sp, #8]
 775 00a0 D7E7     		b	.L62
 776              	.LVL80:
 777              	.L71:
 128:Core/Src/display.c ****         e2 = 2 * err;
 778              		.loc 1 128 22 discriminator 1 view .LVU187
 779 00a2 039B     		ldr	r3, [sp, #12]
 780 00a4 9E42     		cmp	r6, r3
ARM GAS  C:\Users\jonas\AppData\Local\Temp\cc0Pvo13.s 			page 18


 781 00a6 E1D1     		bne	.L64
 137:Core/Src/display.c ****         }
 138:Core/Src/display.c ****     }
 139:Core/Src/display.c **** }...
 782              		.loc 1 139 1 view .LVU188
 783 00a8 05B0     		add	sp, sp, #20
 784              		.cfi_def_cfa_offset 36
 785              		@ sp needed
 786 00aa BDE8F08F 		pop	{r4, r5, r6, r7, r8, r9, r10, fp, pc}
 787              		.loc 1 139 1 view .LVU189
 788              		.cfi_endproc
 789              	.LFE139:
 791              		.section	.bss.first_visible_index,"aw",%nobits
 794              	first_visible_index:
 795 0000 00       		.space	1
 796              		.text
 797              	.Letext0:
 798              		.file 2 "C:/Users/jonas/AppData/Roaming/VSCodium/User/globalStorage/bmd.stm32-for-vscode/@xpack-de
 799              		.file 3 "C:/Users/jonas/AppData/Roaming/VSCodium/User/globalStorage/bmd.stm32-for-vscode/@xpack-de
 800              		.file 4 "Drivers/CMSIS/Device/ST/STM32F4xx/Include/stm32f401xe.h"
 801              		.file 5 "Drivers/STM32F4xx_HAL_Driver/Inc/stm32f4xx_hal_def.h"
 802              		.file 6 "Drivers/STM32F4xx_HAL_Driver/Inc/stm32f4xx_hal_dma.h"
 803              		.file 7 "Drivers/STM32F4xx_HAL_Driver/Inc/stm32f4xx_hal_i2c.h"
 804              		.file 8 "Core/Inc/fonts.h"
 805              		.file 9 "Core/Inc/ssd1306.h"
 806              		.file 10 "<built-in>"
ARM GAS  C:\Users\jonas\AppData\Local\Temp\cc0Pvo13.s 			page 19

