ARM GAS  C:\Users\jonas\AppData\Local\Temp\ccBmEONw.s 			page 1


   1              		.cpu cortex-m4
   2              		.arch armv7e-m
   3              		.fpu fpv4-sp-d16
   4              		.eabi_attribute 27, 1
   5              		.eabi_attribute 28, 1
   6              		.eabi_attribute 20, 1
   7              		.eabi_attribute 21, 1
   8              		.eabi_attribute 23, 3
   9              		.eabi_attribute 24, 1
  10              		.eabi_attribute 25, 1
  11              		.eabi_attribute 26, 1
  12              		.eabi_attribute 30, 1
  13              		.eabi_attribute 34, 1
  14              		.eabi_attribute 18, 4
  15              		.file	"ssd1306.c"
  16              		.text
  17              	.Ltext0:
  18              		.cfi_sections	.debug_frame
  19              		.file 1 "Core/Src/ssd1306.c"
  20              		.section	.text.ssd1306_WriteCommand,"ax",%progbits
  21              		.align	1
  22              		.syntax unified
  23              		.thumb
  24              		.thumb_func
  26              	ssd1306_WriteCommand:
  27              	.LVL0:
  28              	.LFB134:
   1:Core/Src/ssd1306.c **** #include "ssd1306.h"
   2:Core/Src/ssd1306.c **** 
   3:Core/Src/ssd1306.c **** 
   4:Core/Src/ssd1306.c **** // Screenbuffer
   5:Core/Src/ssd1306.c **** static uint8_t SSD1306_Buffer[SSD1306_WIDTH * SSD1306_HEIGHT / 8];
   6:Core/Src/ssd1306.c **** 
   7:Core/Src/ssd1306.c **** // Screen object
   8:Core/Src/ssd1306.c **** static SSD1306_t SSD1306;
   9:Core/Src/ssd1306.c **** 
  10:Core/Src/ssd1306.c **** 
  11:Core/Src/ssd1306.c **** //
  12:Core/Src/ssd1306.c **** //  Send a byte to the command register
  13:Core/Src/ssd1306.c **** //
  14:Core/Src/ssd1306.c **** static uint8_t ssd1306_WriteCommand(I2C_HandleTypeDef *hi2c, uint8_t command)
  15:Core/Src/ssd1306.c **** {
  29              		.loc 1 15 1 view -0
  30              		.cfi_startproc
  31              		@ args = 0, pretend = 0, frame = 8
  32              		@ frame_needed = 0, uses_anonymous_args = 0
  33              		.loc 1 15 1 is_stmt 0 view .LVU1
  34 0000 00B5     		push	{lr}
  35              		.cfi_def_cfa_offset 4
  36              		.cfi_offset 14, -4
  37 0002 87B0     		sub	sp, sp, #28
  38              		.cfi_def_cfa_offset 32
  39 0004 8DF81710 		strb	r1, [sp, #23]
  16:Core/Src/ssd1306.c ****     return HAL_I2C_Mem_Write(hi2c, SSD1306_I2C_ADDR, 0x00, 1, &command, 1, 10);
  40              		.loc 1 16 5 is_stmt 1 view .LVU2
  41              		.loc 1 16 12 is_stmt 0 view .LVU3
  42 0008 0A23     		movs	r3, #10
ARM GAS  C:\Users\jonas\AppData\Local\Temp\ccBmEONw.s 			page 2


  43 000a 0293     		str	r3, [sp, #8]
  44 000c 0123     		movs	r3, #1
  45 000e 0193     		str	r3, [sp, #4]
  46 0010 0DF11702 		add	r2, sp, #23
  47 0014 0092     		str	r2, [sp]
  48 0016 0022     		movs	r2, #0
  49 0018 7821     		movs	r1, #120
  50              	.LVL1:
  51              		.loc 1 16 12 view .LVU4
  52 001a FFF7FEFF 		bl	HAL_I2C_Mem_Write
  53              	.LVL2:
  17:Core/Src/ssd1306.c **** }
  54              		.loc 1 17 1 view .LVU5
  55 001e 07B0     		add	sp, sp, #28
  56              		.cfi_def_cfa_offset 4
  57              		@ sp needed
  58 0020 5DF804FB 		ldr	pc, [sp], #4
  59              		.cfi_endproc
  60              	.LFE134:
  62              		.section	.text.ssd1306_Fill,"ax",%progbits
  63              		.align	1
  64              		.global	ssd1306_Fill
  65              		.syntax unified
  66              		.thumb
  67              		.thumb_func
  69              	ssd1306_Fill:
  70              	.LVL3:
  71              	.LFB136:
  18:Core/Src/ssd1306.c **** 
  19:Core/Src/ssd1306.c **** 
  20:Core/Src/ssd1306.c **** //
  21:Core/Src/ssd1306.c **** //  Initialize the oled screen
  22:Core/Src/ssd1306.c **** //
  23:Core/Src/ssd1306.c **** uint8_t ssd1306_Init(I2C_HandleTypeDef *hi2c)
  24:Core/Src/ssd1306.c **** {
  25:Core/Src/ssd1306.c ****     // Wait for the screen to boot
  26:Core/Src/ssd1306.c ****     HAL_Delay(100);
  27:Core/Src/ssd1306.c ****     int status = 0;
  28:Core/Src/ssd1306.c **** 
  29:Core/Src/ssd1306.c ****     // Init LCD
  30:Core/Src/ssd1306.c **** 
  31:Core/Src/ssd1306.c ****     status += ssd1306_WriteCommand(hi2c, SH110X_DISPLAYOFF);               // 0xAE
  32:Core/Src/ssd1306.c **** 
  33:Core/Src/ssd1306.c ****     status += ssd1306_WriteCommand(hi2c, SH110X_SETDISPLAYCLOCKDIV);
  34:Core/Src/ssd1306.c ****     status += ssd1306_WriteCommand(hi2c, 0x51); // 0xd5, 0x51,
  35:Core/Src/ssd1306.c **** 
  36:Core/Src/ssd1306.c ****     status += ssd1306_WriteCommand(hi2c, SH110X_MEMORYMODE);
  37:Core/Src/ssd1306.c **** status += ssd1306_WriteCommand(hi2c, 0x00); // 0x00 for Horizontal addressing mode
  38:Core/Src/ssd1306.c **** 
  39:Core/Src/ssd1306.c ****     status += ssd1306_WriteCommand(hi2c, SH110X_SETCONTRAST); 
  40:Core/Src/ssd1306.c ****     status += ssd1306_WriteCommand(hi2c, 0x4F);       // 0x81, 0x4F
  41:Core/Src/ssd1306.c **** 
  42:Core/Src/ssd1306.c ****     status += ssd1306_WriteCommand(hi2c, SH110X_DCDC) ;
  43:Core/Src/ssd1306.c ****     status += ssd1306_WriteCommand(hi2c, 0x8A);               // 0xAD, 0x8A
  44:Core/Src/ssd1306.c **** 
  45:Core/Src/ssd1306.c ****     status += ssd1306_WriteCommand(hi2c, SH110X_SEGREMAP);                 // 0xA0
  46:Core/Src/ssd1306.c **** 
ARM GAS  C:\Users\jonas\AppData\Local\Temp\ccBmEONw.s 			page 3


  47:Core/Src/ssd1306.c ****     status += ssd1306_WriteCommand(hi2c, SH110X_COMSCANINC);               // 0xC0
  48:Core/Src/ssd1306.c **** 
  49:Core/Src/ssd1306.c ****     status += ssd1306_WriteCommand(hi2c, SH110X_SETDISPSTARTLINE);
  50:Core/Src/ssd1306.c ****     status += ssd1306_WriteCommand(hi2c, 0x0);    // 0xDC 0x00
  51:Core/Src/ssd1306.c **** 
  52:Core/Src/ssd1306.c ****     status += ssd1306_WriteCommand(hi2c, SH110X_SETDISPLAYOFFSET); 
  53:Core/Src/ssd1306.c ****     status += ssd1306_WriteCommand(hi2c, 0x60);   // 0xd3, 0x60,
  54:Core/Src/ssd1306.c **** 
  55:Core/Src/ssd1306.c ****     status += ssd1306_WriteCommand(hi2c, SH110X_SETPRECHARGE); 
  56:Core/Src/ssd1306.c ****     status += ssd1306_WriteCommand(hi2c, 0x22);       // 0xd9, 0x22,
  57:Core/Src/ssd1306.c **** 
  58:Core/Src/ssd1306.c ****     status += ssd1306_WriteCommand(hi2c, SH110X_SETVCOMDETECT); 
  59:Core/Src/ssd1306.c ****     status += ssd1306_WriteCommand(hi2c, 0x35);      // 0xdb, 0x35,
  60:Core/Src/ssd1306.c **** 
  61:Core/Src/ssd1306.c ****     status += ssd1306_WriteCommand(hi2c, SH110X_SETPAGEADDR);                  // 0xb0
  62:Core/Src/ssd1306.c **** 
  63:Core/Src/ssd1306.c ****     // status += ssd1306_WriteCommand(hi2c, H110X_SETCOMPINS);
  64:Core/Src/ssd1306.c ****     // status += ssd1306_WriteCommand(hi2c,  0x12);             // 0xda, 0x12,
  65:Core/Src/ssd1306.c ****     status += ssd1306_WriteCommand(hi2c, SH110X_DISPLAYALLON_RESUME); // 0xa4
  66:Core/Src/ssd1306.c **** 
  67:Core/Src/ssd1306.c ****     status += ssd1306_WriteCommand(hi2c, SH110X_NORMALDISPLAY);       // 0xa6
  68:Core/Src/ssd1306.c **** 
  69:Core/Src/ssd1306.c ****     status += ssd1306_WriteCommand(hi2c, SH110X_SETDISPLAYOFFSET); 
  70:Core/Src/ssd1306.c ****     status += ssd1306_WriteCommand(hi2c, 0x00);
  71:Core/Src/ssd1306.c **** 
  72:Core/Src/ssd1306.c ****     status += ssd1306_WriteCommand(hi2c, SH110X_SETMULTIPLEX);
  73:Core/Src/ssd1306.c ****     status += ssd1306_WriteCommand(hi2c, 0x7F);
  74:Core/Src/ssd1306.c **** 
  75:Core/Src/ssd1306.c ****     status += ssd1306_WriteCommand(hi2c, SH110X_DISPLAYON);
  76:Core/Src/ssd1306.c **** 
  77:Core/Src/ssd1306.c ****     if (status != 0) {
  78:Core/Src/ssd1306.c ****         return 1;
  79:Core/Src/ssd1306.c ****     }
  80:Core/Src/ssd1306.c **** 
  81:Core/Src/ssd1306.c ****     // Clear screen
  82:Core/Src/ssd1306.c ****     ssd1306_Fill(Black);
  83:Core/Src/ssd1306.c **** 
  84:Core/Src/ssd1306.c ****     // Flush buffer to screen
  85:Core/Src/ssd1306.c ****     ssd1306_UpdateScreen(hi2c);
  86:Core/Src/ssd1306.c **** 
  87:Core/Src/ssd1306.c ****     // Set default values for screen object
  88:Core/Src/ssd1306.c ****     SSD1306.CurrentX = 0;
  89:Core/Src/ssd1306.c ****     SSD1306.CurrentY = 0;
  90:Core/Src/ssd1306.c **** 
  91:Core/Src/ssd1306.c ****     SSD1306.Initialized = 1;
  92:Core/Src/ssd1306.c **** 
  93:Core/Src/ssd1306.c ****     return 0;
  94:Core/Src/ssd1306.c **** }
  95:Core/Src/ssd1306.c **** 
  96:Core/Src/ssd1306.c **** //
  97:Core/Src/ssd1306.c **** //  Fill the whole screen with the given color
  98:Core/Src/ssd1306.c **** //
  99:Core/Src/ssd1306.c **** void ssd1306_Fill(SSD1306_COLOR color)
 100:Core/Src/ssd1306.c **** {
  72              		.loc 1 100 1 is_stmt 1 view -0
  73              		.cfi_startproc
  74              		@ args = 0, pretend = 0, frame = 0
ARM GAS  C:\Users\jonas\AppData\Local\Temp\ccBmEONw.s 			page 4


  75              		@ frame_needed = 0, uses_anonymous_args = 0
  76              		@ link register save eliminated.
 101:Core/Src/ssd1306.c ****     // Fill screenbuffer with a constant value (color)
 102:Core/Src/ssd1306.c ****     uint32_t i;
  77              		.loc 1 102 5 view .LVU7
 103:Core/Src/ssd1306.c **** 
 104:Core/Src/ssd1306.c ****     for(i = 0; i < sizeof(SSD1306_Buffer); i++)
  78              		.loc 1 104 5 view .LVU8
  79              		.loc 1 104 11 is_stmt 0 view .LVU9
  80 0000 0023     		movs	r3, #0
  81              		.loc 1 104 5 view .LVU10
  82 0002 03E0     		b	.L4
  83              	.LVL4:
  84              	.L7:
 105:Core/Src/ssd1306.c ****     {
 106:Core/Src/ssd1306.c ****         SSD1306_Buffer[i] = (color == Black) ? 0x00 : 0xFF;
  85              		.loc 1 106 27 discriminator 2 view .LVU11
  86 0004 FF21     		movs	r1, #255
  87              	.L5:
  88              		.loc 1 106 27 discriminator 4 view .LVU12
  89 0006 054A     		ldr	r2, .L9
  90 0008 D154     		strb	r1, [r2, r3]
 104:Core/Src/ssd1306.c ****     {
  91              		.loc 1 104 45 is_stmt 1 discriminator 2 view .LVU13
  92 000a 0133     		adds	r3, r3, #1
  93              	.LVL5:
  94              	.L4:
 104:Core/Src/ssd1306.c ****     {
  95              		.loc 1 104 18 discriminator 1 view .LVU14
  96 000c B3F5006F 		cmp	r3, #2048
  97 0010 03D2     		bcs	.L8
  98              		.loc 1 106 9 view .LVU15
  99              		.loc 1 106 27 is_stmt 0 view .LVU16
 100 0012 0028     		cmp	r0, #0
 101 0014 F6D1     		bne	.L7
 102              		.loc 1 106 27 discriminator 1 view .LVU17
 103 0016 0146     		mov	r1, r0
 104 0018 F5E7     		b	.L5
 105              	.L8:
 107:Core/Src/ssd1306.c ****     }
 108:Core/Src/ssd1306.c **** }
 106              		.loc 1 108 1 view .LVU18
 107 001a 7047     		bx	lr
 108              	.L10:
 109              		.align	2
 110              	.L9:
 111 001c 00000000 		.word	SSD1306_Buffer
 112              		.cfi_endproc
 113              	.LFE136:
 115              		.section	.text.ssd1306_UpdateScreen,"ax",%progbits
 116              		.align	1
 117              		.global	ssd1306_UpdateScreen
 118              		.syntax unified
 119              		.thumb
 120              		.thumb_func
 122              	ssd1306_UpdateScreen:
 123              	.LVL6:
ARM GAS  C:\Users\jonas\AppData\Local\Temp\ccBmEONw.s 			page 5


 124              	.LFB137:
 109:Core/Src/ssd1306.c **** 
 110:Core/Src/ssd1306.c **** //
 111:Core/Src/ssd1306.c **** //  Write the screenbuffer with changed to the screen
 112:Core/Src/ssd1306.c **** //
 113:Core/Src/ssd1306.c **** void ssd1306_UpdateScreen(I2C_HandleTypeDef *hi2c)
 114:Core/Src/ssd1306.c **** {
 125              		.loc 1 114 1 is_stmt 1 view -0
 126              		.cfi_startproc
 127              		@ args = 0, pretend = 0, frame = 0
 128              		@ frame_needed = 0, uses_anonymous_args = 0
 129              		.loc 1 114 1 is_stmt 0 view .LVU20
 130 0000 30B5     		push	{r4, r5, lr}
 131              		.cfi_def_cfa_offset 12
 132              		.cfi_offset 4, -12
 133              		.cfi_offset 5, -8
 134              		.cfi_offset 14, -4
 135 0002 85B0     		sub	sp, sp, #20
 136              		.cfi_def_cfa_offset 32
 137 0004 0546     		mov	r5, r0
 115:Core/Src/ssd1306.c ****     uint8_t i;
 138              		.loc 1 115 5 is_stmt 1 view .LVU21
 116:Core/Src/ssd1306.c **** 
 117:Core/Src/ssd1306.c ****     for (i = 0; i < 16; i++) {
 139              		.loc 1 117 5 view .LVU22
 140              	.LVL7:
 141              		.loc 1 117 12 is_stmt 0 view .LVU23
 142 0006 0024     		movs	r4, #0
 143              		.loc 1 117 5 view .LVU24
 144 0008 1DE0     		b	.L12
 145              	.LVL8:
 146              	.L13:
 118:Core/Src/ssd1306.c ****         ssd1306_WriteCommand(hi2c, 0xB0 + i);
 147              		.loc 1 118 9 is_stmt 1 view .LVU25
 148 000a A4F15001 		sub	r1, r4, #80
 149 000e C9B2     		uxtb	r1, r1
 150 0010 2846     		mov	r0, r5
 151 0012 FFF7FEFF 		bl	ssd1306_WriteCommand
 152              	.LVL9:
 119:Core/Src/ssd1306.c ****         ssd1306_WriteCommand(hi2c, 0x00);
 153              		.loc 1 119 9 view .LVU26
 154 0016 0021     		movs	r1, #0
 155 0018 2846     		mov	r0, r5
 156 001a FFF7FEFF 		bl	ssd1306_WriteCommand
 157              	.LVL10:
 120:Core/Src/ssd1306.c ****         ssd1306_WriteCommand(hi2c, 0x10);
 158              		.loc 1 120 9 view .LVU27
 159 001e 1021     		movs	r1, #16
 160 0020 2846     		mov	r0, r5
 161 0022 FFF7FEFF 		bl	ssd1306_WriteCommand
 162              	.LVL11:
 121:Core/Src/ssd1306.c **** 
 122:Core/Src/ssd1306.c ****         HAL_I2C_Mem_Write(hi2c, SSD1306_I2C_ADDR, 0x40, 1, &SSD1306_Buffer[SSD1306_WIDTH * i], SSD1
 163              		.loc 1 122 9 view .LVU28
 164 0026 6423     		movs	r3, #100
 165 0028 0293     		str	r3, [sp, #8]
 166 002a 8023     		movs	r3, #128
ARM GAS  C:\Users\jonas\AppData\Local\Temp\ccBmEONw.s 			page 6


 167 002c 0193     		str	r3, [sp, #4]
 168 002e 084B     		ldr	r3, .L15
 169 0030 03EBC413 		add	r3, r3, r4, lsl #7
 170 0034 0093     		str	r3, [sp]
 171 0036 0123     		movs	r3, #1
 172 0038 4022     		movs	r2, #64
 173 003a 7821     		movs	r1, #120
 174 003c 2846     		mov	r0, r5
 175 003e FFF7FEFF 		bl	HAL_I2C_Mem_Write
 176              	.LVL12:
 117:Core/Src/ssd1306.c ****         ssd1306_WriteCommand(hi2c, 0xB0 + i);
 177              		.loc 1 117 26 discriminator 3 view .LVU29
 178 0042 0134     		adds	r4, r4, #1
 179              	.LVL13:
 117:Core/Src/ssd1306.c ****         ssd1306_WriteCommand(hi2c, 0xB0 + i);
 180              		.loc 1 117 26 is_stmt 0 discriminator 3 view .LVU30
 181 0044 E4B2     		uxtb	r4, r4
 182              	.LVL14:
 183              	.L12:
 117:Core/Src/ssd1306.c ****         ssd1306_WriteCommand(hi2c, 0xB0 + i);
 184              		.loc 1 117 19 is_stmt 1 discriminator 1 view .LVU31
 185 0046 0F2C     		cmp	r4, #15
 186 0048 DFD9     		bls	.L13
 123:Core/Src/ssd1306.c ****     }
 124:Core/Src/ssd1306.c **** }
 187              		.loc 1 124 1 is_stmt 0 view .LVU32
 188 004a 05B0     		add	sp, sp, #20
 189              		.cfi_def_cfa_offset 12
 190              		@ sp needed
 191 004c 30BD     		pop	{r4, r5, pc}
 192              	.LVL15:
 193              	.L16:
 194              		.loc 1 124 1 view .LVU33
 195 004e 00BF     		.align	2
 196              	.L15:
 197 0050 00000000 		.word	SSD1306_Buffer
 198              		.cfi_endproc
 199              	.LFE137:
 201              		.section	.text.ssd1306_Init,"ax",%progbits
 202              		.align	1
 203              		.global	ssd1306_Init
 204              		.syntax unified
 205              		.thumb
 206              		.thumb_func
 208              	ssd1306_Init:
 209              	.LVL16:
 210              	.LFB135:
  24:Core/Src/ssd1306.c ****     // Wait for the screen to boot
 211              		.loc 1 24 1 is_stmt 1 view -0
 212              		.cfi_startproc
 213              		@ args = 0, pretend = 0, frame = 0
 214              		@ frame_needed = 0, uses_anonymous_args = 0
  24:Core/Src/ssd1306.c ****     // Wait for the screen to boot
 215              		.loc 1 24 1 is_stmt 0 view .LVU35
 216 0000 38B5     		push	{r3, r4, r5, lr}
 217              		.cfi_def_cfa_offset 16
 218              		.cfi_offset 3, -16
ARM GAS  C:\Users\jonas\AppData\Local\Temp\ccBmEONw.s 			page 7


 219              		.cfi_offset 4, -12
 220              		.cfi_offset 5, -8
 221              		.cfi_offset 14, -4
 222 0002 0446     		mov	r4, r0
  26:Core/Src/ssd1306.c ****     int status = 0;
 223              		.loc 1 26 5 is_stmt 1 view .LVU36
 224 0004 6420     		movs	r0, #100
 225              	.LVL17:
  26:Core/Src/ssd1306.c ****     int status = 0;
 226              		.loc 1 26 5 is_stmt 0 view .LVU37
 227 0006 FFF7FEFF 		bl	HAL_Delay
 228              	.LVL18:
  27:Core/Src/ssd1306.c **** 
 229              		.loc 1 27 5 is_stmt 1 view .LVU38
  31:Core/Src/ssd1306.c **** 
 230              		.loc 1 31 5 view .LVU39
  31:Core/Src/ssd1306.c **** 
 231              		.loc 1 31 15 is_stmt 0 view .LVU40
 232 000a AE21     		movs	r1, #174
 233 000c 2046     		mov	r0, r4
 234 000e FFF7FEFF 		bl	ssd1306_WriteCommand
 235              	.LVL19:
 236 0012 0546     		mov	r5, r0
 237              	.LVL20:
  33:Core/Src/ssd1306.c ****     status += ssd1306_WriteCommand(hi2c, 0x51); // 0xd5, 0x51,
 238              		.loc 1 33 5 is_stmt 1 view .LVU41
  33:Core/Src/ssd1306.c ****     status += ssd1306_WriteCommand(hi2c, 0x51); // 0xd5, 0x51,
 239              		.loc 1 33 15 is_stmt 0 view .LVU42
 240 0014 D521     		movs	r1, #213
 241 0016 2046     		mov	r0, r4
 242              	.LVL21:
  33:Core/Src/ssd1306.c ****     status += ssd1306_WriteCommand(hi2c, 0x51); // 0xd5, 0x51,
 243              		.loc 1 33 15 view .LVU43
 244 0018 FFF7FEFF 		bl	ssd1306_WriteCommand
 245              	.LVL22:
  33:Core/Src/ssd1306.c ****     status += ssd1306_WriteCommand(hi2c, 0x51); // 0xd5, 0x51,
 246              		.loc 1 33 12 discriminator 1 view .LVU44
 247 001c 0544     		add	r5, r5, r0
 248              	.LVL23:
  34:Core/Src/ssd1306.c **** 
 249              		.loc 1 34 5 is_stmt 1 view .LVU45
  34:Core/Src/ssd1306.c **** 
 250              		.loc 1 34 15 is_stmt 0 view .LVU46
 251 001e 5121     		movs	r1, #81
 252 0020 2046     		mov	r0, r4
 253 0022 FFF7FEFF 		bl	ssd1306_WriteCommand
 254              	.LVL24:
  34:Core/Src/ssd1306.c **** 
 255              		.loc 1 34 12 discriminator 1 view .LVU47
 256 0026 0544     		add	r5, r5, r0
 257              	.LVL25:
  36:Core/Src/ssd1306.c **** status += ssd1306_WriteCommand(hi2c, 0x00); // 0x00 for Horizontal addressing mode
 258              		.loc 1 36 5 is_stmt 1 view .LVU48
  36:Core/Src/ssd1306.c **** status += ssd1306_WriteCommand(hi2c, 0x00); // 0x00 for Horizontal addressing mode
 259              		.loc 1 36 15 is_stmt 0 view .LVU49
 260 0028 2021     		movs	r1, #32
 261 002a 2046     		mov	r0, r4
ARM GAS  C:\Users\jonas\AppData\Local\Temp\ccBmEONw.s 			page 8


 262 002c FFF7FEFF 		bl	ssd1306_WriteCommand
 263              	.LVL26:
  36:Core/Src/ssd1306.c **** status += ssd1306_WriteCommand(hi2c, 0x00); // 0x00 for Horizontal addressing mode
 264              		.loc 1 36 12 discriminator 1 view .LVU50
 265 0030 0544     		add	r5, r5, r0
 266              	.LVL27:
  37:Core/Src/ssd1306.c **** 
 267              		.loc 1 37 1 is_stmt 1 view .LVU51
  37:Core/Src/ssd1306.c **** 
 268              		.loc 1 37 11 is_stmt 0 view .LVU52
 269 0032 0021     		movs	r1, #0
 270 0034 2046     		mov	r0, r4
 271 0036 FFF7FEFF 		bl	ssd1306_WriteCommand
 272              	.LVL28:
  37:Core/Src/ssd1306.c **** 
 273              		.loc 1 37 8 discriminator 1 view .LVU53
 274 003a 0544     		add	r5, r5, r0
 275              	.LVL29:
  39:Core/Src/ssd1306.c ****     status += ssd1306_WriteCommand(hi2c, 0x4F);       // 0x81, 0x4F
 276              		.loc 1 39 5 is_stmt 1 view .LVU54
  39:Core/Src/ssd1306.c ****     status += ssd1306_WriteCommand(hi2c, 0x4F);       // 0x81, 0x4F
 277              		.loc 1 39 15 is_stmt 0 view .LVU55
 278 003c 8121     		movs	r1, #129
 279 003e 2046     		mov	r0, r4
 280 0040 FFF7FEFF 		bl	ssd1306_WriteCommand
 281              	.LVL30:
  39:Core/Src/ssd1306.c ****     status += ssd1306_WriteCommand(hi2c, 0x4F);       // 0x81, 0x4F
 282              		.loc 1 39 12 discriminator 1 view .LVU56
 283 0044 0544     		add	r5, r5, r0
 284              	.LVL31:
  40:Core/Src/ssd1306.c **** 
 285              		.loc 1 40 5 is_stmt 1 view .LVU57
  40:Core/Src/ssd1306.c **** 
 286              		.loc 1 40 15 is_stmt 0 view .LVU58
 287 0046 4F21     		movs	r1, #79
 288 0048 2046     		mov	r0, r4
 289 004a FFF7FEFF 		bl	ssd1306_WriteCommand
 290              	.LVL32:
  40:Core/Src/ssd1306.c **** 
 291              		.loc 1 40 12 discriminator 1 view .LVU59
 292 004e 0544     		add	r5, r5, r0
 293              	.LVL33:
  42:Core/Src/ssd1306.c ****     status += ssd1306_WriteCommand(hi2c, 0x8A);               // 0xAD, 0x8A
 294              		.loc 1 42 5 is_stmt 1 view .LVU60
  42:Core/Src/ssd1306.c ****     status += ssd1306_WriteCommand(hi2c, 0x8A);               // 0xAD, 0x8A
 295              		.loc 1 42 15 is_stmt 0 view .LVU61
 296 0050 AD21     		movs	r1, #173
 297 0052 2046     		mov	r0, r4
 298 0054 FFF7FEFF 		bl	ssd1306_WriteCommand
 299              	.LVL34:
  42:Core/Src/ssd1306.c ****     status += ssd1306_WriteCommand(hi2c, 0x8A);               // 0xAD, 0x8A
 300              		.loc 1 42 12 discriminator 1 view .LVU62
 301 0058 0544     		add	r5, r5, r0
 302              	.LVL35:
  43:Core/Src/ssd1306.c **** 
 303              		.loc 1 43 5 is_stmt 1 view .LVU63
  43:Core/Src/ssd1306.c **** 
ARM GAS  C:\Users\jonas\AppData\Local\Temp\ccBmEONw.s 			page 9


 304              		.loc 1 43 15 is_stmt 0 view .LVU64
 305 005a 8A21     		movs	r1, #138
 306 005c 2046     		mov	r0, r4
 307 005e FFF7FEFF 		bl	ssd1306_WriteCommand
 308              	.LVL36:
  43:Core/Src/ssd1306.c **** 
 309              		.loc 1 43 12 discriminator 1 view .LVU65
 310 0062 0544     		add	r5, r5, r0
 311              	.LVL37:
  45:Core/Src/ssd1306.c **** 
 312              		.loc 1 45 5 is_stmt 1 view .LVU66
  45:Core/Src/ssd1306.c **** 
 313              		.loc 1 45 15 is_stmt 0 view .LVU67
 314 0064 A021     		movs	r1, #160
 315 0066 2046     		mov	r0, r4
 316 0068 FFF7FEFF 		bl	ssd1306_WriteCommand
 317              	.LVL38:
  45:Core/Src/ssd1306.c **** 
 318              		.loc 1 45 12 discriminator 1 view .LVU68
 319 006c 0544     		add	r5, r5, r0
 320              	.LVL39:
  47:Core/Src/ssd1306.c **** 
 321              		.loc 1 47 5 is_stmt 1 view .LVU69
  47:Core/Src/ssd1306.c **** 
 322              		.loc 1 47 15 is_stmt 0 view .LVU70
 323 006e C021     		movs	r1, #192
 324 0070 2046     		mov	r0, r4
 325 0072 FFF7FEFF 		bl	ssd1306_WriteCommand
 326              	.LVL40:
  47:Core/Src/ssd1306.c **** 
 327              		.loc 1 47 12 discriminator 1 view .LVU71
 328 0076 0544     		add	r5, r5, r0
 329              	.LVL41:
  49:Core/Src/ssd1306.c ****     status += ssd1306_WriteCommand(hi2c, 0x0);    // 0xDC 0x00
 330              		.loc 1 49 5 is_stmt 1 view .LVU72
  49:Core/Src/ssd1306.c ****     status += ssd1306_WriteCommand(hi2c, 0x0);    // 0xDC 0x00
 331              		.loc 1 49 15 is_stmt 0 view .LVU73
 332 0078 DC21     		movs	r1, #220
 333 007a 2046     		mov	r0, r4
 334 007c FFF7FEFF 		bl	ssd1306_WriteCommand
 335              	.LVL42:
  49:Core/Src/ssd1306.c ****     status += ssd1306_WriteCommand(hi2c, 0x0);    // 0xDC 0x00
 336              		.loc 1 49 12 discriminator 1 view .LVU74
 337 0080 0544     		add	r5, r5, r0
 338              	.LVL43:
  50:Core/Src/ssd1306.c **** 
 339              		.loc 1 50 5 is_stmt 1 view .LVU75
  50:Core/Src/ssd1306.c **** 
 340              		.loc 1 50 15 is_stmt 0 view .LVU76
 341 0082 0021     		movs	r1, #0
 342 0084 2046     		mov	r0, r4
 343 0086 FFF7FEFF 		bl	ssd1306_WriteCommand
 344              	.LVL44:
  50:Core/Src/ssd1306.c **** 
 345              		.loc 1 50 12 discriminator 1 view .LVU77
 346 008a 0544     		add	r5, r5, r0
 347              	.LVL45:
ARM GAS  C:\Users\jonas\AppData\Local\Temp\ccBmEONw.s 			page 10


  52:Core/Src/ssd1306.c ****     status += ssd1306_WriteCommand(hi2c, 0x60);   // 0xd3, 0x60,
 348              		.loc 1 52 5 is_stmt 1 view .LVU78
  52:Core/Src/ssd1306.c ****     status += ssd1306_WriteCommand(hi2c, 0x60);   // 0xd3, 0x60,
 349              		.loc 1 52 15 is_stmt 0 view .LVU79
 350 008c D321     		movs	r1, #211
 351 008e 2046     		mov	r0, r4
 352 0090 FFF7FEFF 		bl	ssd1306_WriteCommand
 353              	.LVL46:
  52:Core/Src/ssd1306.c ****     status += ssd1306_WriteCommand(hi2c, 0x60);   // 0xd3, 0x60,
 354              		.loc 1 52 12 discriminator 1 view .LVU80
 355 0094 0544     		add	r5, r5, r0
 356              	.LVL47:
  53:Core/Src/ssd1306.c **** 
 357              		.loc 1 53 5 is_stmt 1 view .LVU81
  53:Core/Src/ssd1306.c **** 
 358              		.loc 1 53 15 is_stmt 0 view .LVU82
 359 0096 6021     		movs	r1, #96
 360 0098 2046     		mov	r0, r4
 361 009a FFF7FEFF 		bl	ssd1306_WriteCommand
 362              	.LVL48:
  53:Core/Src/ssd1306.c **** 
 363              		.loc 1 53 12 discriminator 1 view .LVU83
 364 009e 0544     		add	r5, r5, r0
 365              	.LVL49:
  55:Core/Src/ssd1306.c ****     status += ssd1306_WriteCommand(hi2c, 0x22);       // 0xd9, 0x22,
 366              		.loc 1 55 5 is_stmt 1 view .LVU84
  55:Core/Src/ssd1306.c ****     status += ssd1306_WriteCommand(hi2c, 0x22);       // 0xd9, 0x22,
 367              		.loc 1 55 15 is_stmt 0 view .LVU85
 368 00a0 D921     		movs	r1, #217
 369 00a2 2046     		mov	r0, r4
 370 00a4 FFF7FEFF 		bl	ssd1306_WriteCommand
 371              	.LVL50:
  55:Core/Src/ssd1306.c ****     status += ssd1306_WriteCommand(hi2c, 0x22);       // 0xd9, 0x22,
 372              		.loc 1 55 12 discriminator 1 view .LVU86
 373 00a8 0544     		add	r5, r5, r0
 374              	.LVL51:
  56:Core/Src/ssd1306.c **** 
 375              		.loc 1 56 5 is_stmt 1 view .LVU87
  56:Core/Src/ssd1306.c **** 
 376              		.loc 1 56 15 is_stmt 0 view .LVU88
 377 00aa 2221     		movs	r1, #34
 378 00ac 2046     		mov	r0, r4
 379 00ae FFF7FEFF 		bl	ssd1306_WriteCommand
 380              	.LVL52:
  56:Core/Src/ssd1306.c **** 
 381              		.loc 1 56 12 discriminator 1 view .LVU89
 382 00b2 0544     		add	r5, r5, r0
 383              	.LVL53:
  58:Core/Src/ssd1306.c ****     status += ssd1306_WriteCommand(hi2c, 0x35);      // 0xdb, 0x35,
 384              		.loc 1 58 5 is_stmt 1 view .LVU90
  58:Core/Src/ssd1306.c ****     status += ssd1306_WriteCommand(hi2c, 0x35);      // 0xdb, 0x35,
 385              		.loc 1 58 15 is_stmt 0 view .LVU91
 386 00b4 DB21     		movs	r1, #219
 387 00b6 2046     		mov	r0, r4
 388 00b8 FFF7FEFF 		bl	ssd1306_WriteCommand
 389              	.LVL54:
  58:Core/Src/ssd1306.c ****     status += ssd1306_WriteCommand(hi2c, 0x35);      // 0xdb, 0x35,
ARM GAS  C:\Users\jonas\AppData\Local\Temp\ccBmEONw.s 			page 11


 390              		.loc 1 58 12 discriminator 1 view .LVU92
 391 00bc 0544     		add	r5, r5, r0
 392              	.LVL55:
  59:Core/Src/ssd1306.c **** 
 393              		.loc 1 59 5 is_stmt 1 view .LVU93
  59:Core/Src/ssd1306.c **** 
 394              		.loc 1 59 15 is_stmt 0 view .LVU94
 395 00be 3521     		movs	r1, #53
 396 00c0 2046     		mov	r0, r4
 397 00c2 FFF7FEFF 		bl	ssd1306_WriteCommand
 398              	.LVL56:
  59:Core/Src/ssd1306.c **** 
 399              		.loc 1 59 12 discriminator 1 view .LVU95
 400 00c6 0544     		add	r5, r5, r0
 401              	.LVL57:
  61:Core/Src/ssd1306.c **** 
 402              		.loc 1 61 5 is_stmt 1 view .LVU96
  61:Core/Src/ssd1306.c **** 
 403              		.loc 1 61 15 is_stmt 0 view .LVU97
 404 00c8 B021     		movs	r1, #176
 405 00ca 2046     		mov	r0, r4
 406 00cc FFF7FEFF 		bl	ssd1306_WriteCommand
 407              	.LVL58:
  61:Core/Src/ssd1306.c **** 
 408              		.loc 1 61 12 discriminator 1 view .LVU98
 409 00d0 0544     		add	r5, r5, r0
 410              	.LVL59:
  65:Core/Src/ssd1306.c **** 
 411              		.loc 1 65 5 is_stmt 1 view .LVU99
  65:Core/Src/ssd1306.c **** 
 412              		.loc 1 65 15 is_stmt 0 view .LVU100
 413 00d2 A421     		movs	r1, #164
 414 00d4 2046     		mov	r0, r4
 415 00d6 FFF7FEFF 		bl	ssd1306_WriteCommand
 416              	.LVL60:
  65:Core/Src/ssd1306.c **** 
 417              		.loc 1 65 12 discriminator 1 view .LVU101
 418 00da 0544     		add	r5, r5, r0
 419              	.LVL61:
  67:Core/Src/ssd1306.c **** 
 420              		.loc 1 67 5 is_stmt 1 view .LVU102
  67:Core/Src/ssd1306.c **** 
 421              		.loc 1 67 15 is_stmt 0 view .LVU103
 422 00dc A621     		movs	r1, #166
 423 00de 2046     		mov	r0, r4
 424 00e0 FFF7FEFF 		bl	ssd1306_WriteCommand
 425              	.LVL62:
  67:Core/Src/ssd1306.c **** 
 426              		.loc 1 67 12 discriminator 1 view .LVU104
 427 00e4 0544     		add	r5, r5, r0
 428              	.LVL63:
  69:Core/Src/ssd1306.c ****     status += ssd1306_WriteCommand(hi2c, 0x00);
 429              		.loc 1 69 5 is_stmt 1 view .LVU105
  69:Core/Src/ssd1306.c ****     status += ssd1306_WriteCommand(hi2c, 0x00);
 430              		.loc 1 69 15 is_stmt 0 view .LVU106
 431 00e6 D321     		movs	r1, #211
 432 00e8 2046     		mov	r0, r4
ARM GAS  C:\Users\jonas\AppData\Local\Temp\ccBmEONw.s 			page 12


 433 00ea FFF7FEFF 		bl	ssd1306_WriteCommand
 434              	.LVL64:
  69:Core/Src/ssd1306.c ****     status += ssd1306_WriteCommand(hi2c, 0x00);
 435              		.loc 1 69 12 discriminator 1 view .LVU107
 436 00ee 0544     		add	r5, r5, r0
 437              	.LVL65:
  70:Core/Src/ssd1306.c **** 
 438              		.loc 1 70 5 is_stmt 1 view .LVU108
  70:Core/Src/ssd1306.c **** 
 439              		.loc 1 70 15 is_stmt 0 view .LVU109
 440 00f0 0021     		movs	r1, #0
 441 00f2 2046     		mov	r0, r4
 442 00f4 FFF7FEFF 		bl	ssd1306_WriteCommand
 443              	.LVL66:
  70:Core/Src/ssd1306.c **** 
 444              		.loc 1 70 12 discriminator 1 view .LVU110
 445 00f8 0544     		add	r5, r5, r0
 446              	.LVL67:
  72:Core/Src/ssd1306.c ****     status += ssd1306_WriteCommand(hi2c, 0x7F);
 447              		.loc 1 72 5 is_stmt 1 view .LVU111
  72:Core/Src/ssd1306.c ****     status += ssd1306_WriteCommand(hi2c, 0x7F);
 448              		.loc 1 72 15 is_stmt 0 view .LVU112
 449 00fa A821     		movs	r1, #168
 450 00fc 2046     		mov	r0, r4
 451 00fe FFF7FEFF 		bl	ssd1306_WriteCommand
 452              	.LVL68:
  72:Core/Src/ssd1306.c ****     status += ssd1306_WriteCommand(hi2c, 0x7F);
 453              		.loc 1 72 12 discriminator 1 view .LVU113
 454 0102 0544     		add	r5, r5, r0
 455              	.LVL69:
  73:Core/Src/ssd1306.c **** 
 456              		.loc 1 73 5 is_stmt 1 view .LVU114
  73:Core/Src/ssd1306.c **** 
 457              		.loc 1 73 15 is_stmt 0 view .LVU115
 458 0104 7F21     		movs	r1, #127
 459 0106 2046     		mov	r0, r4
 460 0108 FFF7FEFF 		bl	ssd1306_WriteCommand
 461              	.LVL70:
  73:Core/Src/ssd1306.c **** 
 462              		.loc 1 73 12 discriminator 1 view .LVU116
 463 010c 0544     		add	r5, r5, r0
 464              	.LVL71:
  75:Core/Src/ssd1306.c **** 
 465              		.loc 1 75 5 is_stmt 1 view .LVU117
  75:Core/Src/ssd1306.c **** 
 466              		.loc 1 75 15 is_stmt 0 view .LVU118
 467 010e AF21     		movs	r1, #175
 468 0110 2046     		mov	r0, r4
 469 0112 FFF7FEFF 		bl	ssd1306_WriteCommand
 470              	.LVL72:
  77:Core/Src/ssd1306.c ****         return 1;
 471              		.loc 1 77 5 is_stmt 1 view .LVU119
  77:Core/Src/ssd1306.c ****         return 1;
 472              		.loc 1 77 8 is_stmt 0 view .LVU120
 473 0116 E842     		cmn	r0, r5
 474 0118 01D0     		beq	.L21
  78:Core/Src/ssd1306.c ****     }
ARM GAS  C:\Users\jonas\AppData\Local\Temp\ccBmEONw.s 			page 13


 475              		.loc 1 78 16 view .LVU121
 476 011a 0120     		movs	r0, #1
 477              	.LVL73:
 478              	.L18:
  94:Core/Src/ssd1306.c **** 
 479              		.loc 1 94 1 view .LVU122
 480 011c 38BD     		pop	{r3, r4, r5, pc}
 481              	.LVL74:
 482              	.L21:
  82:Core/Src/ssd1306.c **** 
 483              		.loc 1 82 5 is_stmt 1 view .LVU123
 484 011e 0020     		movs	r0, #0
 485              	.LVL75:
  82:Core/Src/ssd1306.c **** 
 486              		.loc 1 82 5 is_stmt 0 view .LVU124
 487 0120 FFF7FEFF 		bl	ssd1306_Fill
 488              	.LVL76:
  85:Core/Src/ssd1306.c **** 
 489              		.loc 1 85 5 is_stmt 1 view .LVU125
 490 0124 2046     		mov	r0, r4
 491 0126 FFF7FEFF 		bl	ssd1306_UpdateScreen
 492              	.LVL77:
  88:Core/Src/ssd1306.c ****     SSD1306.CurrentY = 0;
 493              		.loc 1 88 5 view .LVU126
  88:Core/Src/ssd1306.c ****     SSD1306.CurrentY = 0;
 494              		.loc 1 88 22 is_stmt 0 view .LVU127
 495 012a 034B     		ldr	r3, .L22
 496 012c 0020     		movs	r0, #0
 497 012e 1880     		strh	r0, [r3]	@ movhi
  89:Core/Src/ssd1306.c **** 
 498              		.loc 1 89 5 is_stmt 1 view .LVU128
  89:Core/Src/ssd1306.c **** 
 499              		.loc 1 89 22 is_stmt 0 view .LVU129
 500 0130 5880     		strh	r0, [r3, #2]	@ movhi
  91:Core/Src/ssd1306.c **** 
 501              		.loc 1 91 5 is_stmt 1 view .LVU130
  91:Core/Src/ssd1306.c **** 
 502              		.loc 1 91 25 is_stmt 0 view .LVU131
 503 0132 0122     		movs	r2, #1
 504 0134 5A71     		strb	r2, [r3, #5]
  93:Core/Src/ssd1306.c **** }
 505              		.loc 1 93 5 is_stmt 1 view .LVU132
  93:Core/Src/ssd1306.c **** }
 506              		.loc 1 93 12 is_stmt 0 view .LVU133
 507 0136 F1E7     		b	.L18
 508              	.L23:
 509              		.align	2
 510              	.L22:
 511 0138 00000000 		.word	SSD1306
 512              		.cfi_endproc
 513              	.LFE135:
 515              		.section	.text.ssd1306_DrawPixel,"ax",%progbits
 516              		.align	1
 517              		.global	ssd1306_DrawPixel
 518              		.syntax unified
 519              		.thumb
 520              		.thumb_func
ARM GAS  C:\Users\jonas\AppData\Local\Temp\ccBmEONw.s 			page 14


 522              	ssd1306_DrawPixel:
 523              	.LVL78:
 524              	.LFB138:
 125:Core/Src/ssd1306.c **** 
 126:Core/Src/ssd1306.c **** //
 127:Core/Src/ssd1306.c **** //  Draw one pixel in the screenbuffer
 128:Core/Src/ssd1306.c **** //  X => X Coordinate
 129:Core/Src/ssd1306.c **** //  Y => Y Coordinate
 130:Core/Src/ssd1306.c **** //  color => Pixel color
 131:Core/Src/ssd1306.c **** //
 132:Core/Src/ssd1306.c **** void ssd1306_DrawPixel(uint8_t x, uint8_t y, SSD1306_COLOR color)
 133:Core/Src/ssd1306.c **** {
 525              		.loc 1 133 1 is_stmt 1 view -0
 526              		.cfi_startproc
 527              		@ args = 0, pretend = 0, frame = 0
 528              		@ frame_needed = 0, uses_anonymous_args = 0
 529              		@ link register save eliminated.
 134:Core/Src/ssd1306.c ****     if (x >= SSD1306_WIDTH || y >= SSD1306_HEIGHT)
 530              		.loc 1 134 5 view .LVU135
 531              		.loc 1 134 8 is_stmt 0 view .LVU136
 532 0000 10F0800F 		tst	r0, #128
 533 0004 26D1     		bne	.L29
 534              		.loc 1 134 28 discriminator 1 view .LVU137
 535 0006 11F0800F 		tst	r1, #128
 536 000a 23D1     		bne	.L29
 133:Core/Src/ssd1306.c ****     if (x >= SSD1306_WIDTH || y >= SSD1306_HEIGHT)
 537              		.loc 1 133 1 view .LVU138
 538 000c 10B4     		push	{r4}
 539              		.cfi_def_cfa_offset 4
 540              		.cfi_offset 4, -4
 135:Core/Src/ssd1306.c ****     {
 136:Core/Src/ssd1306.c ****         // Don't write outside the buffer
 137:Core/Src/ssd1306.c ****         return;
 138:Core/Src/ssd1306.c ****     }
 139:Core/Src/ssd1306.c **** 
 140:Core/Src/ssd1306.c ****     // Check if pixel should be inverted
 141:Core/Src/ssd1306.c ****     if (SSD1306.Inverted)
 541              		.loc 1 141 5 is_stmt 1 view .LVU139
 542              		.loc 1 141 16 is_stmt 0 view .LVU140
 543 000e 124B     		ldr	r3, .L33
 544 0010 1B79     		ldrb	r3, [r3, #4]	@ zero_extendqisi2
 545              		.loc 1 141 8 view .LVU141
 546 0012 13B1     		cbz	r3, .L26
 142:Core/Src/ssd1306.c ****     {
 143:Core/Src/ssd1306.c ****         color = (SSD1306_COLOR)!color;
 547              		.loc 1 143 9 is_stmt 1 view .LVU142
 548              		.loc 1 143 17 is_stmt 0 view .LVU143
 549 0014 B2FA82F2 		clz	r2, r2
 550              	.LVL79:
 551              		.loc 1 143 17 view .LVU144
 552 0018 5209     		lsrs	r2, r2, #5
 553              	.LVL80:
 554              	.L26:
 144:Core/Src/ssd1306.c ****     }
 145:Core/Src/ssd1306.c **** 
 146:Core/Src/ssd1306.c ****     // Draw in the correct color
 147:Core/Src/ssd1306.c ****     if (color == White)
ARM GAS  C:\Users\jonas\AppData\Local\Temp\ccBmEONw.s 			page 15


 555              		.loc 1 147 5 is_stmt 1 view .LVU145
 556              		.loc 1 147 8 is_stmt 0 view .LVU146
 557 001a 012A     		cmp	r2, #1
 558 001c 0FD0     		beq	.L32
 148:Core/Src/ssd1306.c ****     {
 149:Core/Src/ssd1306.c ****         SSD1306_Buffer[x + (y / 8) * SSD1306_WIDTH] |= 1 << (y % 8);
 150:Core/Src/ssd1306.c ****     }
 151:Core/Src/ssd1306.c ****     else
 152:Core/Src/ssd1306.c ****     {
 153:Core/Src/ssd1306.c ****         SSD1306_Buffer[x + (y / 8) * SSD1306_WIDTH] &= ~(1 << (y % 8));
 559              		.loc 1 153 9 is_stmt 1 view .LVU147
 560              		.loc 1 153 23 is_stmt 0 view .LVU148
 561 001e CB08     		lsrs	r3, r1, #3
 562 0020 00EBC310 		add	r0, r0, r3, lsl #7
 563              	.LVL81:
 564              		.loc 1 153 23 view .LVU149
 565 0024 0D4C     		ldr	r4, .L33+4
 566 0026 225C     		ldrb	r2, [r4, r0]	@ zero_extendqisi2
 567              	.LVL82:
 568              		.loc 1 153 66 view .LVU150
 569 0028 01F00701 		and	r1, r1, #7
 570              	.LVL83:
 571              		.loc 1 153 60 view .LVU151
 572 002c 0123     		movs	r3, #1
 573 002e 8B40     		lsls	r3, r3, r1
 574              		.loc 1 153 53 view .LVU152
 575 0030 DB43     		mvns	r3, r3
 576 0032 5BB2     		sxtb	r3, r3
 577 0034 1340     		ands	r3, r3, r2
 578 0036 2354     		strb	r3, [r4, r0]
 579              	.L24:
 154:Core/Src/ssd1306.c ****     }
 155:Core/Src/ssd1306.c **** }
 580              		.loc 1 155 1 view .LVU153
 581 0038 5DF8044B 		ldr	r4, [sp], #4
 582              		.cfi_remember_state
 583              		.cfi_restore 4
 584              		.cfi_def_cfa_offset 0
 585 003c 7047     		bx	lr
 586              	.LVL84:
 587              	.L32:
 588              		.cfi_restore_state
 149:Core/Src/ssd1306.c ****     }
 589              		.loc 1 149 9 is_stmt 1 view .LVU154
 149:Core/Src/ssd1306.c ****     }
 590              		.loc 1 149 23 is_stmt 0 view .LVU155
 591 003e CB08     		lsrs	r3, r1, #3
 592 0040 00EBC310 		add	r0, r0, r3, lsl #7
 593              	.LVL85:
 149:Core/Src/ssd1306.c ****     }
 594              		.loc 1 149 23 view .LVU156
 595 0044 054C     		ldr	r4, .L33+4
 596 0046 235C     		ldrb	r3, [r4, r0]	@ zero_extendqisi2
 149:Core/Src/ssd1306.c ****     }
 597              		.loc 1 149 64 view .LVU157
 598 0048 01F00701 		and	r1, r1, #7
 599              	.LVL86:
ARM GAS  C:\Users\jonas\AppData\Local\Temp\ccBmEONw.s 			page 16


 149:Core/Src/ssd1306.c ****     }
 600              		.loc 1 149 58 view .LVU158
 601 004c 8A40     		lsls	r2, r2, r1
 602              	.LVL87:
 149:Core/Src/ssd1306.c ****     }
 603              		.loc 1 149 53 view .LVU159
 604 004e 1343     		orrs	r3, r3, r2
 605 0050 2354     		strb	r3, [r4, r0]
 606 0052 F1E7     		b	.L24
 607              	.LVL88:
 608              	.L29:
 609              		.cfi_def_cfa_offset 0
 610              		.cfi_restore 4
 149:Core/Src/ssd1306.c ****     }
 611              		.loc 1 149 53 view .LVU160
 612 0054 7047     		bx	lr
 613              	.L34:
 614 0056 00BF     		.align	2
 615              	.L33:
 616 0058 00000000 		.word	SSD1306
 617 005c 00000000 		.word	SSD1306_Buffer
 618              		.cfi_endproc
 619              	.LFE138:
 621              		.section	.text.ssd1306_WriteChar,"ax",%progbits
 622              		.align	1
 623              		.global	ssd1306_WriteChar
 624              		.syntax unified
 625              		.thumb
 626              		.thumb_func
 628              	ssd1306_WriteChar:
 629              	.LVL89:
 630              	.LFB139:
 156:Core/Src/ssd1306.c **** 
 157:Core/Src/ssd1306.c **** 
 158:Core/Src/ssd1306.c **** //
 159:Core/Src/ssd1306.c **** //  Draw 1 char to the screen buffer
 160:Core/Src/ssd1306.c **** //  ch      => Character to write
 161:Core/Src/ssd1306.c **** //  Font    => Font to use
 162:Core/Src/ssd1306.c **** //  color   => Black or White
 163:Core/Src/ssd1306.c **** //
 164:Core/Src/ssd1306.c **** char ssd1306_WriteChar(char ch, FontDef Font, SSD1306_COLOR color)
 165:Core/Src/ssd1306.c **** {
 631              		.loc 1 165 1 is_stmt 1 view -0
 632              		.cfi_startproc
 633              		@ args = 0, pretend = 0, frame = 8
 634              		@ frame_needed = 0, uses_anonymous_args = 0
 635              		.loc 1 165 1 is_stmt 0 view .LVU162
 636 0000 2DE9F047 		push	{r4, r5, r6, r7, r8, r9, r10, lr}
 637              		.cfi_def_cfa_offset 32
 638              		.cfi_offset 4, -32
 639              		.cfi_offset 5, -28
 640              		.cfi_offset 6, -24
 641              		.cfi_offset 7, -20
 642              		.cfi_offset 8, -16
 643              		.cfi_offset 9, -12
 644              		.cfi_offset 10, -8
 645              		.cfi_offset 14, -4
ARM GAS  C:\Users\jonas\AppData\Local\Temp\ccBmEONw.s 			page 17


 646 0004 82B0     		sub	sp, sp, #8
 647              		.cfi_def_cfa_offset 40
 648 0006 8146     		mov	r9, r0
 649 0008 02A8     		add	r0, sp, #8
 650              	.LVL90:
 651              		.loc 1 165 1 view .LVU163
 652 000a 00E90600 		stmdb	r0, {r1, r2}
 653 000e 9846     		mov	r8, r3
 166:Core/Src/ssd1306.c ****     uint32_t i, b, j;
 654              		.loc 1 166 5 is_stmt 1 view .LVU164
 167:Core/Src/ssd1306.c **** 
 168:Core/Src/ssd1306.c ****     // Check remaining space on current line
 169:Core/Src/ssd1306.c ****     if (SSD1306_WIDTH <= (SSD1306.CurrentX + Font.FontWidth) ||
 655              		.loc 1 169 5 view .LVU165
 656              		.loc 1 169 34 is_stmt 0 view .LVU166
 657 0010 234B     		ldr	r3, .L48
 658              	.LVL91:
 659              		.loc 1 169 34 view .LVU167
 660 0012 1B88     		ldrh	r3, [r3]
 661              		.loc 1 169 50 view .LVU168
 662 0014 9DF80060 		ldrb	r6, [sp]	@ zero_extendqisi2
 663              		.loc 1 169 44 view .LVU169
 664 0018 3344     		add	r3, r3, r6
 665              		.loc 1 169 8 view .LVU170
 666 001a 7F2B     		cmp	r3, #127
 667 001c 3BDC     		bgt	.L43
 170:Core/Src/ssd1306.c ****         SSD1306_HEIGHT <= (SSD1306.CurrentY + Font.FontHeight))
 668              		.loc 1 170 35 view .LVU171
 669 001e 204B     		ldr	r3, .L48
 670 0020 5B88     		ldrh	r3, [r3, #2]
 671              		.loc 1 170 51 view .LVU172
 672 0022 9DF801A0 		ldrb	r10, [sp, #1]	@ zero_extendqisi2
 673              		.loc 1 170 45 view .LVU173
 674 0026 5344     		add	r3, r3, r10
 169:Core/Src/ssd1306.c ****         SSD1306_HEIGHT <= (SSD1306.CurrentY + Font.FontHeight))
 675              		.loc 1 169 62 discriminator 1 view .LVU174
 676 0028 7F2B     		cmp	r3, #127
 677 002a 36DC     		bgt	.L44
 171:Core/Src/ssd1306.c ****     {
 172:Core/Src/ssd1306.c ****         // Not enough space on current line
 173:Core/Src/ssd1306.c ****         return 0;
 174:Core/Src/ssd1306.c ****     }
 175:Core/Src/ssd1306.c **** 
 176:Core/Src/ssd1306.c ****     // Translate font to screenbuffer
 177:Core/Src/ssd1306.c ****     for (i = 0; i < Font.FontHeight; i++)
 678              		.loc 1 177 12 view .LVU175
 679 002c 0025     		movs	r5, #0
 680 002e 1FE0     		b	.L37
 681              	.LVL92:
 682              	.L39:
 178:Core/Src/ssd1306.c ****     {
 179:Core/Src/ssd1306.c ****         b = Font.data[(ch - 32) * Font.FontHeight + i];
 180:Core/Src/ssd1306.c ****         for (j = 0; j < Font.FontWidth; j++)
 181:Core/Src/ssd1306.c ****         {
 182:Core/Src/ssd1306.c ****             if ((b << j) & 0x8000)
 183:Core/Src/ssd1306.c ****             {
 184:Core/Src/ssd1306.c ****                 ssd1306_DrawPixel(SSD1306.CurrentX + j, (SSD1306.CurrentY + i), (SSD1306_COLOR) col
ARM GAS  C:\Users\jonas\AppData\Local\Temp\ccBmEONw.s 			page 18


 185:Core/Src/ssd1306.c ****             }
 186:Core/Src/ssd1306.c ****             else
 187:Core/Src/ssd1306.c ****             {
 188:Core/Src/ssd1306.c ****                 ssd1306_DrawPixel(SSD1306.CurrentX + j, (SSD1306.CurrentY + i), (SSD1306_COLOR)!col
 683              		.loc 1 188 17 is_stmt 1 view .LVU176
 684              		.loc 1 188 42 is_stmt 0 view .LVU177
 685 0030 1B4B     		ldr	r3, .L48
 686 0032 1888     		ldrh	r0, [r3]
 687              		.loc 1 188 65 view .LVU178
 688 0034 5988     		ldrh	r1, [r3, #2]
 689              		.loc 1 188 17 view .LVU179
 690 0036 2944     		add	r1, r1, r5
 691 0038 2044     		add	r0, r0, r4
 692 003a B8FA88F2 		clz	r2, r8
 693 003e 5209     		lsrs	r2, r2, #5
 694 0040 C9B2     		uxtb	r1, r1
 695 0042 C0B2     		uxtb	r0, r0
 696 0044 FFF7FEFF 		bl	ssd1306_DrawPixel
 697              	.LVL93:
 698              	.L40:
 180:Core/Src/ssd1306.c ****         {
 699              		.loc 1 180 42 is_stmt 1 discriminator 2 view .LVU180
 700 0048 0134     		adds	r4, r4, #1
 701              	.LVL94:
 702              	.L38:
 180:Core/Src/ssd1306.c ****         {
 703              		.loc 1 180 23 discriminator 1 view .LVU181
 704 004a A642     		cmp	r6, r4
 705 004c 0FD9     		bls	.L46
 182:Core/Src/ssd1306.c ****             {
 706              		.loc 1 182 13 view .LVU182
 182:Core/Src/ssd1306.c ****             {
 707              		.loc 1 182 20 is_stmt 0 view .LVU183
 708 004e 07FA04F3 		lsl	r3, r7, r4
 182:Core/Src/ssd1306.c ****             {
 709              		.loc 1 182 16 view .LVU184
 710 0052 13F4004F 		tst	r3, #32768
 711 0056 EBD0     		beq	.L39
 184:Core/Src/ssd1306.c ****             }
 712              		.loc 1 184 17 is_stmt 1 view .LVU185
 184:Core/Src/ssd1306.c ****             }
 713              		.loc 1 184 42 is_stmt 0 view .LVU186
 714 0058 114B     		ldr	r3, .L48
 715 005a 1888     		ldrh	r0, [r3]
 184:Core/Src/ssd1306.c ****             }
 716              		.loc 1 184 65 view .LVU187
 717 005c 5988     		ldrh	r1, [r3, #2]
 184:Core/Src/ssd1306.c ****             }
 718              		.loc 1 184 17 view .LVU188
 719 005e 2944     		add	r1, r1, r5
 720 0060 2044     		add	r0, r0, r4
 721 0062 4246     		mov	r2, r8
 722 0064 C9B2     		uxtb	r1, r1
 723 0066 C0B2     		uxtb	r0, r0
 724 0068 FFF7FEFF 		bl	ssd1306_DrawPixel
 725              	.LVL95:
 726 006c ECE7     		b	.L40
ARM GAS  C:\Users\jonas\AppData\Local\Temp\ccBmEONw.s 			page 19


 727              	.L46:
 177:Core/Src/ssd1306.c ****     {
 728              		.loc 1 177 39 is_stmt 1 discriminator 2 view .LVU189
 729 006e 0135     		adds	r5, r5, #1
 730              	.LVL96:
 731              	.L37:
 177:Core/Src/ssd1306.c ****     {
 732              		.loc 1 177 19 discriminator 1 view .LVU190
 733 0070 AA45     		cmp	r10, r5
 734 0072 08D9     		bls	.L47
 179:Core/Src/ssd1306.c ****         for (j = 0; j < Font.FontWidth; j++)
 735              		.loc 1 179 9 view .LVU191
 179:Core/Src/ssd1306.c ****         for (j = 0; j < Font.FontWidth; j++)
 736              		.loc 1 179 27 is_stmt 0 view .LVU192
 737 0074 A9F12003 		sub	r3, r9, #32
 179:Core/Src/ssd1306.c ****         for (j = 0; j < Font.FontWidth; j++)
 738              		.loc 1 179 51 view .LVU193
 739 0078 03FB0A53 		mla	r3, r3, r10, r5
 179:Core/Src/ssd1306.c ****         for (j = 0; j < Font.FontWidth; j++)
 740              		.loc 1 179 22 view .LVU194
 741 007c 019A     		ldr	r2, [sp, #4]
 742 007e 32F81370 		ldrh	r7, [r2, r3, lsl #1]
 743              	.LVL97:
 180:Core/Src/ssd1306.c ****         {
 744              		.loc 1 180 9 is_stmt 1 view .LVU195
 180:Core/Src/ssd1306.c ****         {
 745              		.loc 1 180 16 is_stmt 0 view .LVU196
 746 0082 0024     		movs	r4, #0
 180:Core/Src/ssd1306.c ****         {
 747              		.loc 1 180 9 view .LVU197
 748 0084 E1E7     		b	.L38
 749              	.LVL98:
 750              	.L47:
 189:Core/Src/ssd1306.c ****             }
 190:Core/Src/ssd1306.c ****         }
 191:Core/Src/ssd1306.c ****     }
 192:Core/Src/ssd1306.c **** 
 193:Core/Src/ssd1306.c ****     // The current space is now taken
 194:Core/Src/ssd1306.c ****     SSD1306.CurrentX += Font.FontWidth;
 751              		.loc 1 194 5 is_stmt 1 view .LVU198
 752              		.loc 1 194 12 is_stmt 0 view .LVU199
 753 0086 064A     		ldr	r2, .L48
 754 0088 1388     		ldrh	r3, [r2]
 755              		.loc 1 194 22 view .LVU200
 756 008a 3344     		add	r3, r3, r6
 757 008c 1380     		strh	r3, [r2]	@ movhi
 195:Core/Src/ssd1306.c **** 
 196:Core/Src/ssd1306.c ****     // Return written char for validation
 197:Core/Src/ssd1306.c ****     return ch;
 758              		.loc 1 197 5 is_stmt 1 view .LVU201
 759              		.loc 1 197 12 is_stmt 0 view .LVU202
 760 008e 4846     		mov	r0, r9
 761              	.LVL99:
 762              	.L36:
 198:Core/Src/ssd1306.c **** }
 763              		.loc 1 198 1 view .LVU203
 764 0090 02B0     		add	sp, sp, #8
ARM GAS  C:\Users\jonas\AppData\Local\Temp\ccBmEONw.s 			page 20


 765              		.cfi_remember_state
 766              		.cfi_def_cfa_offset 32
 767              		@ sp needed
 768 0092 BDE8F087 		pop	{r4, r5, r6, r7, r8, r9, r10, pc}
 769              	.LVL100:
 770              	.L43:
 771              		.cfi_restore_state
 173:Core/Src/ssd1306.c ****     }
 772              		.loc 1 173 16 view .LVU204
 773 0096 0020     		movs	r0, #0
 774 0098 FAE7     		b	.L36
 775              	.L44:
 776 009a 0020     		movs	r0, #0
 777 009c F8E7     		b	.L36
 778              	.L49:
 779 009e 00BF     		.align	2
 780              	.L48:
 781 00a0 00000000 		.word	SSD1306
 782              		.cfi_endproc
 783              	.LFE139:
 785              		.section	.text.ssd1306_WriteString,"ax",%progbits
 786              		.align	1
 787              		.global	ssd1306_WriteString
 788              		.syntax unified
 789              		.thumb
 790              		.thumb_func
 792              	ssd1306_WriteString:
 793              	.LVL101:
 794              	.LFB140:
 199:Core/Src/ssd1306.c **** 
 200:Core/Src/ssd1306.c **** //
 201:Core/Src/ssd1306.c **** //  Write full string to screenbuffer
 202:Core/Src/ssd1306.c **** //
 203:Core/Src/ssd1306.c **** char ssd1306_WriteString(const char* str, FontDef Font, SSD1306_COLOR color)
 204:Core/Src/ssd1306.c **** {
 795              		.loc 1 204 1 is_stmt 1 view -0
 796              		.cfi_startproc
 797              		@ args = 0, pretend = 0, frame = 8
 798              		@ frame_needed = 0, uses_anonymous_args = 0
 799              		.loc 1 204 1 is_stmt 0 view .LVU206
 800 0000 30B5     		push	{r4, r5, lr}
 801              		.cfi_def_cfa_offset 12
 802              		.cfi_offset 4, -12
 803              		.cfi_offset 5, -8
 804              		.cfi_offset 14, -4
 805 0002 83B0     		sub	sp, sp, #12
 806              		.cfi_def_cfa_offset 24
 807 0004 0446     		mov	r4, r0
 808 0006 02A8     		add	r0, sp, #8
 809              	.LVL102:
 810              		.loc 1 204 1 view .LVU207
 811 0008 00E90600 		stmdb	r0, {r1, r2}
 812 000c 1D46     		mov	r5, r3
 205:Core/Src/ssd1306.c ****     // Write until null-byte
 206:Core/Src/ssd1306.c ****     while (*str)
 813              		.loc 1 206 5 is_stmt 1 view .LVU208
 814              		.loc 1 206 11 is_stmt 0 view .LVU209
ARM GAS  C:\Users\jonas\AppData\Local\Temp\ccBmEONw.s 			page 21


 815 000e 00E0     		b	.L51
 816              	.LVL103:
 817              	.L55:
 207:Core/Src/ssd1306.c ****     {
 208:Core/Src/ssd1306.c ****         if (ssd1306_WriteChar(*str, Font, color) != *str)
 209:Core/Src/ssd1306.c ****         {
 210:Core/Src/ssd1306.c ****             // Char could not be written
 211:Core/Src/ssd1306.c ****             return *str;
 212:Core/Src/ssd1306.c ****         }
 213:Core/Src/ssd1306.c **** 
 214:Core/Src/ssd1306.c ****         // Next char
 215:Core/Src/ssd1306.c ****         str++;
 818              		.loc 1 215 9 is_stmt 1 view .LVU210
 819              		.loc 1 215 12 is_stmt 0 view .LVU211
 820 0010 0134     		adds	r4, r4, #1
 821              	.LVL104:
 822              	.L51:
 206:Core/Src/ssd1306.c ****     {
 823              		.loc 1 206 12 is_stmt 1 view .LVU212
 824 0012 2078     		ldrb	r0, [r4]	@ zero_extendqisi2
 825 0014 48B1     		cbz	r0, .L52
 208:Core/Src/ssd1306.c ****         {
 826              		.loc 1 208 9 view .LVU213
 208:Core/Src/ssd1306.c ****         {
 827              		.loc 1 208 13 is_stmt 0 view .LVU214
 828 0016 2B46     		mov	r3, r5
 829 0018 02AA     		add	r2, sp, #8
 830 001a 12E90600 		ldmdb	r2, {r1, r2}
 831 001e FFF7FEFF 		bl	ssd1306_WriteChar
 832              	.LVL105:
 833 0022 0246     		mov	r2, r0
 208:Core/Src/ssd1306.c ****         {
 834              		.loc 1 208 50 discriminator 1 view .LVU215
 835 0024 2078     		ldrb	r0, [r4]	@ zero_extendqisi2
 208:Core/Src/ssd1306.c ****         {
 836              		.loc 1 208 12 discriminator 1 view .LVU216
 837 0026 8242     		cmp	r2, r0
 838 0028 F2D0     		beq	.L55
 839              	.L52:
 216:Core/Src/ssd1306.c ****     }
 217:Core/Src/ssd1306.c **** 
 218:Core/Src/ssd1306.c ****     // Everything ok
 219:Core/Src/ssd1306.c ****     return *str;
 220:Core/Src/ssd1306.c **** }
 840              		.loc 1 220 1 view .LVU217
 841 002a 03B0     		add	sp, sp, #12
 842              		.cfi_def_cfa_offset 12
 843              		@ sp needed
 844 002c 30BD     		pop	{r4, r5, pc}
 845              		.loc 1 220 1 view .LVU218
 846              		.cfi_endproc
 847              	.LFE140:
 849              		.section	.text.ssd1306_InvertColors,"ax",%progbits
 850              		.align	1
 851              		.global	ssd1306_InvertColors
 852              		.syntax unified
 853              		.thumb
ARM GAS  C:\Users\jonas\AppData\Local\Temp\ccBmEONw.s 			page 22


 854              		.thumb_func
 856              	ssd1306_InvertColors:
 857              	.LFB141:
 221:Core/Src/ssd1306.c **** 
 222:Core/Src/ssd1306.c **** //
 223:Core/Src/ssd1306.c **** //  Invert background/foreground colors
 224:Core/Src/ssd1306.c **** //
 225:Core/Src/ssd1306.c **** void ssd1306_InvertColors(void)
 226:Core/Src/ssd1306.c **** {
 858              		.loc 1 226 1 is_stmt 1 view -0
 859              		.cfi_startproc
 860              		@ args = 0, pretend = 0, frame = 0
 861              		@ frame_needed = 0, uses_anonymous_args = 0
 862              		@ link register save eliminated.
 227:Core/Src/ssd1306.c ****     SSD1306.Inverted = !SSD1306.Inverted;
 863              		.loc 1 227 5 view .LVU220
 864              		.loc 1 227 32 is_stmt 0 view .LVU221
 865 0000 034A     		ldr	r2, .L57
 866 0002 1379     		ldrb	r3, [r2, #4]	@ zero_extendqisi2
 867              		.loc 1 227 24 view .LVU222
 868 0004 B3FA83F3 		clz	r3, r3
 869 0008 5B09     		lsrs	r3, r3, #5
 870              		.loc 1 227 22 view .LVU223
 871 000a 1371     		strb	r3, [r2, #4]
 228:Core/Src/ssd1306.c **** }
 872              		.loc 1 228 1 view .LVU224
 873 000c 7047     		bx	lr
 874              	.L58:
 875 000e 00BF     		.align	2
 876              	.L57:
 877 0010 00000000 		.word	SSD1306
 878              		.cfi_endproc
 879              	.LFE141:
 881              		.section	.text.ssd1306_SetCursor,"ax",%progbits
 882              		.align	1
 883              		.global	ssd1306_SetCursor
 884              		.syntax unified
 885              		.thumb
 886              		.thumb_func
 888              	ssd1306_SetCursor:
 889              	.LVL106:
 890              	.LFB142:
 229:Core/Src/ssd1306.c **** 
 230:Core/Src/ssd1306.c **** //
 231:Core/Src/ssd1306.c **** //  Set cursor_index position
 232:Core/Src/ssd1306.c **** //
 233:Core/Src/ssd1306.c **** void ssd1306_SetCursor(uint8_t x, uint8_t y)
 234:Core/Src/ssd1306.c **** {
 891              		.loc 1 234 1 is_stmt 1 view -0
 892              		.cfi_startproc
 893              		@ args = 0, pretend = 0, frame = 0
 894              		@ frame_needed = 0, uses_anonymous_args = 0
 895              		@ link register save eliminated.
 235:Core/Src/ssd1306.c ****     SSD1306.CurrentX = x;
 896              		.loc 1 235 5 view .LVU226
 897              		.loc 1 235 22 is_stmt 0 view .LVU227
 898 0000 014B     		ldr	r3, .L60
ARM GAS  C:\Users\jonas\AppData\Local\Temp\ccBmEONw.s 			page 23


 899 0002 1880     		strh	r0, [r3]	@ movhi
 236:Core/Src/ssd1306.c ****     SSD1306.CurrentY = y;
 900              		.loc 1 236 5 is_stmt 1 view .LVU228
 901              		.loc 1 236 22 is_stmt 0 view .LVU229
 902 0004 5980     		strh	r1, [r3, #2]	@ movhi
 237:Core/Src/ssd1306.c **** }
 903              		.loc 1 237 1 view .LVU230
 904 0006 7047     		bx	lr
 905              	.L61:
 906              		.align	2
 907              	.L60:
 908 0008 00000000 		.word	SSD1306
 909              		.cfi_endproc
 910              	.LFE142:
 912              		.section	.bss.SSD1306,"aw",%nobits
 913              		.align	2
 916              	SSD1306:
 917 0000 00000000 		.space	6
 917      0000
 918              		.section	.bss.SSD1306_Buffer,"aw",%nobits
 919              		.align	2
 922              	SSD1306_Buffer:
 923 0000 00000000 		.space	2048
 923      00000000 
 923      00000000 
 923      00000000 
 923      00000000 
 924              		.text
 925              	.Letext0:
 926              		.file 2 "C:/Users/jonas/AppData/Roaming/VSCodium/User/globalStorage/bmd.stm32-for-vscode/@xpack-de
 927              		.file 3 "C:/Users/jonas/AppData/Roaming/VSCodium/User/globalStorage/bmd.stm32-for-vscode/@xpack-de
 928              		.file 4 "Drivers/CMSIS/Device/ST/STM32F4xx/Include/stm32f401xe.h"
 929              		.file 5 "Drivers/STM32F4xx_HAL_Driver/Inc/stm32f4xx_hal_def.h"
 930              		.file 6 "Drivers/STM32F4xx_HAL_Driver/Inc/stm32f4xx_hal_dma.h"
 931              		.file 7 "Drivers/STM32F4xx_HAL_Driver/Inc/stm32f4xx_hal_i2c.h"
 932              		.file 8 "Core/Inc/fonts.h"
 933              		.file 9 "Core/Inc/ssd1306.h"
 934              		.file 10 "Drivers/STM32F4xx_HAL_Driver/Inc/stm32f4xx_hal.h"
ARM GAS  C:\Users\jonas\AppData\Local\Temp\ccBmEONw.s 			page 24

